
VERICI-DEVRE.elf:     file format elf32-littlearm

Sections:
Idx Name          Size      VMA       LMA       File off  Algn
  0 .isr_vector   000000c0  08000000  08000000  00010000  2**0
                  CONTENTS, ALLOC, LOAD, READONLY, DATA
  1 .text         00006fc8  080000c0  080000c0  000100c0  2**2
                  CONTENTS, ALLOC, LOAD, READONLY, CODE
  2 .rodata       0000023c  08007088  08007088  00017088  2**2
                  CONTENTS, ALLOC, LOAD, READONLY, DATA
  3 .ARM.extab    00000000  080072c4  080072c4  000201f4  2**0
                  CONTENTS
  4 .ARM          00000008  080072c4  080072c4  000172c4  2**2
                  CONTENTS, ALLOC, LOAD, READONLY, DATA
  5 .preinit_array 00000000  080072cc  080072cc  000201f4  2**0
                  CONTENTS, ALLOC, LOAD, DATA
  6 .init_array   00000004  080072cc  080072cc  000172cc  2**2
                  CONTENTS, ALLOC, LOAD, DATA
  7 .fini_array   00000004  080072d0  080072d0  000172d0  2**2
                  CONTENTS, ALLOC, LOAD, DATA
  8 .data         000001f4  20000000  080072d4  00020000  2**2
                  CONTENTS, ALLOC, LOAD, DATA
  9 .bss          000002e4  200001f4  080074c8  000201f4  2**2
                  ALLOC
 10 ._user_heap_stack 00000600  200004d8  080074c8  000204d8  2**0
                  ALLOC
 11 .ARM.attributes 00000028  00000000  00000000  000201f4  2**0
                  CONTENTS, READONLY
 12 .debug_info   0001588a  00000000  00000000  0002021c  2**0
                  CONTENTS, READONLY, DEBUGGING, OCTETS
 13 .debug_abbrev 000030e4  00000000  00000000  00035aa6  2**0
                  CONTENTS, READONLY, DEBUGGING, OCTETS
 14 .debug_aranges 00001020  00000000  00000000  00038b90  2**3
                  CONTENTS, READONLY, DEBUGGING, OCTETS
 15 .debug_ranges 00000ed8  00000000  00000000  00039bb0  2**3
                  CONTENTS, READONLY, DEBUGGING, OCTETS
 16 .debug_macro  00013ec9  00000000  00000000  0003aa88  2**0
                  CONTENTS, READONLY, DEBUGGING, OCTETS
 17 .debug_line   0001464f  00000000  00000000  0004e951  2**0
                  CONTENTS, READONLY, DEBUGGING, OCTETS
 18 .debug_str    00071934  00000000  00000000  00062fa0  2**0
                  CONTENTS, READONLY, DEBUGGING, OCTETS
 19 .comment      00000053  00000000  00000000  000d48d4  2**0
                  CONTENTS, READONLY
 20 .debug_frame  00003dfc  00000000  00000000  000d4928  2**2
                  CONTENTS, READONLY, DEBUGGING, OCTETS

Disassembly of section .text:

080000c0 <__do_global_dtors_aux>:
 80000c0:	b510      	push	{r4, lr}
 80000c2:	4c06      	ldr	r4, [pc, #24]	; (80000dc <__do_global_dtors_aux+0x1c>)
 80000c4:	7823      	ldrb	r3, [r4, #0]
 80000c6:	2b00      	cmp	r3, #0
 80000c8:	d107      	bne.n	80000da <__do_global_dtors_aux+0x1a>
 80000ca:	4b05      	ldr	r3, [pc, #20]	; (80000e0 <__do_global_dtors_aux+0x20>)
 80000cc:	2b00      	cmp	r3, #0
 80000ce:	d002      	beq.n	80000d6 <__do_global_dtors_aux+0x16>
 80000d0:	4804      	ldr	r0, [pc, #16]	; (80000e4 <__do_global_dtors_aux+0x24>)
 80000d2:	e000      	b.n	80000d6 <__do_global_dtors_aux+0x16>
 80000d4:	bf00      	nop
 80000d6:	2301      	movs	r3, #1
 80000d8:	7023      	strb	r3, [r4, #0]
 80000da:	bd10      	pop	{r4, pc}
 80000dc:	200001f4 	.word	0x200001f4
 80000e0:	00000000 	.word	0x00000000
 80000e4:	08007070 	.word	0x08007070

080000e8 <frame_dummy>:
 80000e8:	4b04      	ldr	r3, [pc, #16]	; (80000fc <frame_dummy+0x14>)
 80000ea:	b510      	push	{r4, lr}
 80000ec:	2b00      	cmp	r3, #0
 80000ee:	d003      	beq.n	80000f8 <frame_dummy+0x10>
 80000f0:	4903      	ldr	r1, [pc, #12]	; (8000100 <frame_dummy+0x18>)
 80000f2:	4804      	ldr	r0, [pc, #16]	; (8000104 <frame_dummy+0x1c>)
 80000f4:	e000      	b.n	80000f8 <frame_dummy+0x10>
 80000f6:	bf00      	nop
 80000f8:	bd10      	pop	{r4, pc}
 80000fa:	46c0      	nop			; (mov r8, r8)
 80000fc:	00000000 	.word	0x00000000
 8000100:	200001f8 	.word	0x200001f8
 8000104:	08007070 	.word	0x08007070

08000108 <strlen>:
 8000108:	2300      	movs	r3, #0
 800010a:	5cc2      	ldrb	r2, [r0, r3]
 800010c:	3301      	adds	r3, #1
 800010e:	2a00      	cmp	r2, #0
 8000110:	d1fb      	bne.n	800010a <strlen+0x2>
 8000112:	1e58      	subs	r0, r3, #1
 8000114:	4770      	bx	lr
	...

08000118 <__gnu_thumb1_case_shi>:
 8000118:	b403      	push	{r0, r1}
 800011a:	4671      	mov	r1, lr
 800011c:	0849      	lsrs	r1, r1, #1
 800011e:	0040      	lsls	r0, r0, #1
 8000120:	0049      	lsls	r1, r1, #1
 8000122:	5e09      	ldrsh	r1, [r1, r0]
 8000124:	0049      	lsls	r1, r1, #1
 8000126:	448e      	add	lr, r1
 8000128:	bc03      	pop	{r0, r1}
 800012a:	4770      	bx	lr

0800012c <__udivsi3>:
 800012c:	2200      	movs	r2, #0
 800012e:	0843      	lsrs	r3, r0, #1
 8000130:	428b      	cmp	r3, r1
 8000132:	d374      	bcc.n	800021e <__udivsi3+0xf2>
 8000134:	0903      	lsrs	r3, r0, #4
 8000136:	428b      	cmp	r3, r1
 8000138:	d35f      	bcc.n	80001fa <__udivsi3+0xce>
 800013a:	0a03      	lsrs	r3, r0, #8
 800013c:	428b      	cmp	r3, r1
 800013e:	d344      	bcc.n	80001ca <__udivsi3+0x9e>
 8000140:	0b03      	lsrs	r3, r0, #12
 8000142:	428b      	cmp	r3, r1
 8000144:	d328      	bcc.n	8000198 <__udivsi3+0x6c>
 8000146:	0c03      	lsrs	r3, r0, #16
 8000148:	428b      	cmp	r3, r1
 800014a:	d30d      	bcc.n	8000168 <__udivsi3+0x3c>
 800014c:	22ff      	movs	r2, #255	; 0xff
 800014e:	0209      	lsls	r1, r1, #8
 8000150:	ba12      	rev	r2, r2
 8000152:	0c03      	lsrs	r3, r0, #16
 8000154:	428b      	cmp	r3, r1
 8000156:	d302      	bcc.n	800015e <__udivsi3+0x32>
 8000158:	1212      	asrs	r2, r2, #8
 800015a:	0209      	lsls	r1, r1, #8
 800015c:	d065      	beq.n	800022a <__udivsi3+0xfe>
 800015e:	0b03      	lsrs	r3, r0, #12
 8000160:	428b      	cmp	r3, r1
 8000162:	d319      	bcc.n	8000198 <__udivsi3+0x6c>
 8000164:	e000      	b.n	8000168 <__udivsi3+0x3c>
 8000166:	0a09      	lsrs	r1, r1, #8
 8000168:	0bc3      	lsrs	r3, r0, #15
 800016a:	428b      	cmp	r3, r1
 800016c:	d301      	bcc.n	8000172 <__udivsi3+0x46>
 800016e:	03cb      	lsls	r3, r1, #15
 8000170:	1ac0      	subs	r0, r0, r3
 8000172:	4152      	adcs	r2, r2
 8000174:	0b83      	lsrs	r3, r0, #14
 8000176:	428b      	cmp	r3, r1
 8000178:	d301      	bcc.n	800017e <__udivsi3+0x52>
 800017a:	038b      	lsls	r3, r1, #14
 800017c:	1ac0      	subs	r0, r0, r3
 800017e:	4152      	adcs	r2, r2
 8000180:	0b43      	lsrs	r3, r0, #13
 8000182:	428b      	cmp	r3, r1
 8000184:	d301      	bcc.n	800018a <__udivsi3+0x5e>
 8000186:	034b      	lsls	r3, r1, #13
 8000188:	1ac0      	subs	r0, r0, r3
 800018a:	4152      	adcs	r2, r2
 800018c:	0b03      	lsrs	r3, r0, #12
 800018e:	428b      	cmp	r3, r1
 8000190:	d301      	bcc.n	8000196 <__udivsi3+0x6a>
 8000192:	030b      	lsls	r3, r1, #12
 8000194:	1ac0      	subs	r0, r0, r3
 8000196:	4152      	adcs	r2, r2
 8000198:	0ac3      	lsrs	r3, r0, #11
 800019a:	428b      	cmp	r3, r1
 800019c:	d301      	bcc.n	80001a2 <__udivsi3+0x76>
 800019e:	02cb      	lsls	r3, r1, #11
 80001a0:	1ac0      	subs	r0, r0, r3
 80001a2:	4152      	adcs	r2, r2
 80001a4:	0a83      	lsrs	r3, r0, #10
 80001a6:	428b      	cmp	r3, r1
 80001a8:	d301      	bcc.n	80001ae <__udivsi3+0x82>
 80001aa:	028b      	lsls	r3, r1, #10
 80001ac:	1ac0      	subs	r0, r0, r3
 80001ae:	4152      	adcs	r2, r2
 80001b0:	0a43      	lsrs	r3, r0, #9
 80001b2:	428b      	cmp	r3, r1
 80001b4:	d301      	bcc.n	80001ba <__udivsi3+0x8e>
 80001b6:	024b      	lsls	r3, r1, #9
 80001b8:	1ac0      	subs	r0, r0, r3
 80001ba:	4152      	adcs	r2, r2
 80001bc:	0a03      	lsrs	r3, r0, #8
 80001be:	428b      	cmp	r3, r1
 80001c0:	d301      	bcc.n	80001c6 <__udivsi3+0x9a>
 80001c2:	020b      	lsls	r3, r1, #8
 80001c4:	1ac0      	subs	r0, r0, r3
 80001c6:	4152      	adcs	r2, r2
 80001c8:	d2cd      	bcs.n	8000166 <__udivsi3+0x3a>
 80001ca:	09c3      	lsrs	r3, r0, #7
 80001cc:	428b      	cmp	r3, r1
 80001ce:	d301      	bcc.n	80001d4 <__udivsi3+0xa8>
 80001d0:	01cb      	lsls	r3, r1, #7
 80001d2:	1ac0      	subs	r0, r0, r3
 80001d4:	4152      	adcs	r2, r2
 80001d6:	0983      	lsrs	r3, r0, #6
 80001d8:	428b      	cmp	r3, r1
 80001da:	d301      	bcc.n	80001e0 <__udivsi3+0xb4>
 80001dc:	018b      	lsls	r3, r1, #6
 80001de:	1ac0      	subs	r0, r0, r3
 80001e0:	4152      	adcs	r2, r2
 80001e2:	0943      	lsrs	r3, r0, #5
 80001e4:	428b      	cmp	r3, r1
 80001e6:	d301      	bcc.n	80001ec <__udivsi3+0xc0>
 80001e8:	014b      	lsls	r3, r1, #5
 80001ea:	1ac0      	subs	r0, r0, r3
 80001ec:	4152      	adcs	r2, r2
 80001ee:	0903      	lsrs	r3, r0, #4
 80001f0:	428b      	cmp	r3, r1
 80001f2:	d301      	bcc.n	80001f8 <__udivsi3+0xcc>
 80001f4:	010b      	lsls	r3, r1, #4
 80001f6:	1ac0      	subs	r0, r0, r3
 80001f8:	4152      	adcs	r2, r2
 80001fa:	08c3      	lsrs	r3, r0, #3
 80001fc:	428b      	cmp	r3, r1
 80001fe:	d301      	bcc.n	8000204 <__udivsi3+0xd8>
 8000200:	00cb      	lsls	r3, r1, #3
 8000202:	1ac0      	subs	r0, r0, r3
 8000204:	4152      	adcs	r2, r2
 8000206:	0883      	lsrs	r3, r0, #2
 8000208:	428b      	cmp	r3, r1
 800020a:	d301      	bcc.n	8000210 <__udivsi3+0xe4>
 800020c:	008b      	lsls	r3, r1, #2
 800020e:	1ac0      	subs	r0, r0, r3
 8000210:	4152      	adcs	r2, r2
 8000212:	0843      	lsrs	r3, r0, #1
 8000214:	428b      	cmp	r3, r1
 8000216:	d301      	bcc.n	800021c <__udivsi3+0xf0>
 8000218:	004b      	lsls	r3, r1, #1
 800021a:	1ac0      	subs	r0, r0, r3
 800021c:	4152      	adcs	r2, r2
 800021e:	1a41      	subs	r1, r0, r1
 8000220:	d200      	bcs.n	8000224 <__udivsi3+0xf8>
 8000222:	4601      	mov	r1, r0
 8000224:	4152      	adcs	r2, r2
 8000226:	4610      	mov	r0, r2
 8000228:	4770      	bx	lr
 800022a:	e7ff      	b.n	800022c <__udivsi3+0x100>
 800022c:	b501      	push	{r0, lr}
 800022e:	2000      	movs	r0, #0
 8000230:	f000 f8f0 	bl	8000414 <__aeabi_idiv0>
 8000234:	bd02      	pop	{r1, pc}
 8000236:	46c0      	nop			; (mov r8, r8)

08000238 <__aeabi_uidivmod>:
 8000238:	2900      	cmp	r1, #0
 800023a:	d0f7      	beq.n	800022c <__udivsi3+0x100>
 800023c:	e776      	b.n	800012c <__udivsi3>
 800023e:	4770      	bx	lr

08000240 <__divsi3>:
 8000240:	4603      	mov	r3, r0
 8000242:	430b      	orrs	r3, r1
 8000244:	d47f      	bmi.n	8000346 <__divsi3+0x106>
 8000246:	2200      	movs	r2, #0
 8000248:	0843      	lsrs	r3, r0, #1
 800024a:	428b      	cmp	r3, r1
 800024c:	d374      	bcc.n	8000338 <__divsi3+0xf8>
 800024e:	0903      	lsrs	r3, r0, #4
 8000250:	428b      	cmp	r3, r1
 8000252:	d35f      	bcc.n	8000314 <__divsi3+0xd4>
 8000254:	0a03      	lsrs	r3, r0, #8
 8000256:	428b      	cmp	r3, r1
 8000258:	d344      	bcc.n	80002e4 <__divsi3+0xa4>
 800025a:	0b03      	lsrs	r3, r0, #12
 800025c:	428b      	cmp	r3, r1
 800025e:	d328      	bcc.n	80002b2 <__divsi3+0x72>
 8000260:	0c03      	lsrs	r3, r0, #16
 8000262:	428b      	cmp	r3, r1
 8000264:	d30d      	bcc.n	8000282 <__divsi3+0x42>
 8000266:	22ff      	movs	r2, #255	; 0xff
 8000268:	0209      	lsls	r1, r1, #8
 800026a:	ba12      	rev	r2, r2
 800026c:	0c03      	lsrs	r3, r0, #16
 800026e:	428b      	cmp	r3, r1
 8000270:	d302      	bcc.n	8000278 <__divsi3+0x38>
 8000272:	1212      	asrs	r2, r2, #8
 8000274:	0209      	lsls	r1, r1, #8
 8000276:	d065      	beq.n	8000344 <__divsi3+0x104>
 8000278:	0b03      	lsrs	r3, r0, #12
 800027a:	428b      	cmp	r3, r1
 800027c:	d319      	bcc.n	80002b2 <__divsi3+0x72>
 800027e:	e000      	b.n	8000282 <__divsi3+0x42>
 8000280:	0a09      	lsrs	r1, r1, #8
 8000282:	0bc3      	lsrs	r3, r0, #15
 8000284:	428b      	cmp	r3, r1
 8000286:	d301      	bcc.n	800028c <__divsi3+0x4c>
 8000288:	03cb      	lsls	r3, r1, #15
 800028a:	1ac0      	subs	r0, r0, r3
 800028c:	4152      	adcs	r2, r2
 800028e:	0b83      	lsrs	r3, r0, #14
 8000290:	428b      	cmp	r3, r1
 8000292:	d301      	bcc.n	8000298 <__divsi3+0x58>
 8000294:	038b      	lsls	r3, r1, #14
 8000296:	1ac0      	subs	r0, r0, r3
 8000298:	4152      	adcs	r2, r2
 800029a:	0b43      	lsrs	r3, r0, #13
 800029c:	428b      	cmp	r3, r1
 800029e:	d301      	bcc.n	80002a4 <__divsi3+0x64>
 80002a0:	034b      	lsls	r3, r1, #13
 80002a2:	1ac0      	subs	r0, r0, r3
 80002a4:	4152      	adcs	r2, r2
 80002a6:	0b03      	lsrs	r3, r0, #12
 80002a8:	428b      	cmp	r3, r1
 80002aa:	d301      	bcc.n	80002b0 <__divsi3+0x70>
 80002ac:	030b      	lsls	r3, r1, #12
 80002ae:	1ac0      	subs	r0, r0, r3
 80002b0:	4152      	adcs	r2, r2
 80002b2:	0ac3      	lsrs	r3, r0, #11
 80002b4:	428b      	cmp	r3, r1
 80002b6:	d301      	bcc.n	80002bc <__divsi3+0x7c>
 80002b8:	02cb      	lsls	r3, r1, #11
 80002ba:	1ac0      	subs	r0, r0, r3
 80002bc:	4152      	adcs	r2, r2
 80002be:	0a83      	lsrs	r3, r0, #10
 80002c0:	428b      	cmp	r3, r1
 80002c2:	d301      	bcc.n	80002c8 <__divsi3+0x88>
 80002c4:	028b      	lsls	r3, r1, #10
 80002c6:	1ac0      	subs	r0, r0, r3
 80002c8:	4152      	adcs	r2, r2
 80002ca:	0a43      	lsrs	r3, r0, #9
 80002cc:	428b      	cmp	r3, r1
 80002ce:	d301      	bcc.n	80002d4 <__divsi3+0x94>
 80002d0:	024b      	lsls	r3, r1, #9
 80002d2:	1ac0      	subs	r0, r0, r3
 80002d4:	4152      	adcs	r2, r2
 80002d6:	0a03      	lsrs	r3, r0, #8
 80002d8:	428b      	cmp	r3, r1
 80002da:	d301      	bcc.n	80002e0 <__divsi3+0xa0>
 80002dc:	020b      	lsls	r3, r1, #8
 80002de:	1ac0      	subs	r0, r0, r3
 80002e0:	4152      	adcs	r2, r2
 80002e2:	d2cd      	bcs.n	8000280 <__divsi3+0x40>
 80002e4:	09c3      	lsrs	r3, r0, #7
 80002e6:	428b      	cmp	r3, r1
 80002e8:	d301      	bcc.n	80002ee <__divsi3+0xae>
 80002ea:	01cb      	lsls	r3, r1, #7
 80002ec:	1ac0      	subs	r0, r0, r3
 80002ee:	4152      	adcs	r2, r2
 80002f0:	0983      	lsrs	r3, r0, #6
 80002f2:	428b      	cmp	r3, r1
 80002f4:	d301      	bcc.n	80002fa <__divsi3+0xba>
 80002f6:	018b      	lsls	r3, r1, #6
 80002f8:	1ac0      	subs	r0, r0, r3
 80002fa:	4152      	adcs	r2, r2
 80002fc:	0943      	lsrs	r3, r0, #5
 80002fe:	428b      	cmp	r3, r1
 8000300:	d301      	bcc.n	8000306 <__divsi3+0xc6>
 8000302:	014b      	lsls	r3, r1, #5
 8000304:	1ac0      	subs	r0, r0, r3
 8000306:	4152      	adcs	r2, r2
 8000308:	0903      	lsrs	r3, r0, #4
 800030a:	428b      	cmp	r3, r1
 800030c:	d301      	bcc.n	8000312 <__divsi3+0xd2>
 800030e:	010b      	lsls	r3, r1, #4
 8000310:	1ac0      	subs	r0, r0, r3
 8000312:	4152      	adcs	r2, r2
 8000314:	08c3      	lsrs	r3, r0, #3
 8000316:	428b      	cmp	r3, r1
 8000318:	d301      	bcc.n	800031e <__divsi3+0xde>
 800031a:	00cb      	lsls	r3, r1, #3
 800031c:	1ac0      	subs	r0, r0, r3
 800031e:	4152      	adcs	r2, r2
 8000320:	0883      	lsrs	r3, r0, #2
 8000322:	428b      	cmp	r3, r1
 8000324:	d301      	bcc.n	800032a <__divsi3+0xea>
 8000326:	008b      	lsls	r3, r1, #2
 8000328:	1ac0      	subs	r0, r0, r3
 800032a:	4152      	adcs	r2, r2
 800032c:	0843      	lsrs	r3, r0, #1
 800032e:	428b      	cmp	r3, r1
 8000330:	d301      	bcc.n	8000336 <__divsi3+0xf6>
 8000332:	004b      	lsls	r3, r1, #1
 8000334:	1ac0      	subs	r0, r0, r3
 8000336:	4152      	adcs	r2, r2
 8000338:	1a41      	subs	r1, r0, r1
 800033a:	d200      	bcs.n	800033e <__divsi3+0xfe>
 800033c:	4601      	mov	r1, r0
 800033e:	4152      	adcs	r2, r2
 8000340:	4610      	mov	r0, r2
 8000342:	4770      	bx	lr
 8000344:	e05d      	b.n	8000402 <__divsi3+0x1c2>
 8000346:	0fca      	lsrs	r2, r1, #31
 8000348:	d000      	beq.n	800034c <__divsi3+0x10c>
 800034a:	4249      	negs	r1, r1
 800034c:	1003      	asrs	r3, r0, #32
 800034e:	d300      	bcc.n	8000352 <__divsi3+0x112>
 8000350:	4240      	negs	r0, r0
 8000352:	4053      	eors	r3, r2
 8000354:	2200      	movs	r2, #0
 8000356:	469c      	mov	ip, r3
 8000358:	0903      	lsrs	r3, r0, #4
 800035a:	428b      	cmp	r3, r1
 800035c:	d32d      	bcc.n	80003ba <__divsi3+0x17a>
 800035e:	0a03      	lsrs	r3, r0, #8
 8000360:	428b      	cmp	r3, r1
 8000362:	d312      	bcc.n	800038a <__divsi3+0x14a>
 8000364:	22fc      	movs	r2, #252	; 0xfc
 8000366:	0189      	lsls	r1, r1, #6
 8000368:	ba12      	rev	r2, r2
 800036a:	0a03      	lsrs	r3, r0, #8
 800036c:	428b      	cmp	r3, r1
 800036e:	d30c      	bcc.n	800038a <__divsi3+0x14a>
 8000370:	0189      	lsls	r1, r1, #6
 8000372:	1192      	asrs	r2, r2, #6
 8000374:	428b      	cmp	r3, r1
 8000376:	d308      	bcc.n	800038a <__divsi3+0x14a>
 8000378:	0189      	lsls	r1, r1, #6
 800037a:	1192      	asrs	r2, r2, #6
 800037c:	428b      	cmp	r3, r1
 800037e:	d304      	bcc.n	800038a <__divsi3+0x14a>
 8000380:	0189      	lsls	r1, r1, #6
 8000382:	d03a      	beq.n	80003fa <__divsi3+0x1ba>
 8000384:	1192      	asrs	r2, r2, #6
 8000386:	e000      	b.n	800038a <__divsi3+0x14a>
 8000388:	0989      	lsrs	r1, r1, #6
 800038a:	09c3      	lsrs	r3, r0, #7
 800038c:	428b      	cmp	r3, r1
 800038e:	d301      	bcc.n	8000394 <__divsi3+0x154>
 8000390:	01cb      	lsls	r3, r1, #7
 8000392:	1ac0      	subs	r0, r0, r3
 8000394:	4152      	adcs	r2, r2
 8000396:	0983      	lsrs	r3, r0, #6
 8000398:	428b      	cmp	r3, r1
 800039a:	d301      	bcc.n	80003a0 <__divsi3+0x160>
 800039c:	018b      	lsls	r3, r1, #6
 800039e:	1ac0      	subs	r0, r0, r3
 80003a0:	4152      	adcs	r2, r2
 80003a2:	0943      	lsrs	r3, r0, #5
 80003a4:	428b      	cmp	r3, r1
 80003a6:	d301      	bcc.n	80003ac <__divsi3+0x16c>
 80003a8:	014b      	lsls	r3, r1, #5
 80003aa:	1ac0      	subs	r0, r0, r3
 80003ac:	4152      	adcs	r2, r2
 80003ae:	0903      	lsrs	r3, r0, #4
 80003b0:	428b      	cmp	r3, r1
 80003b2:	d301      	bcc.n	80003b8 <__divsi3+0x178>
 80003b4:	010b      	lsls	r3, r1, #4
 80003b6:	1ac0      	subs	r0, r0, r3
 80003b8:	4152      	adcs	r2, r2
 80003ba:	08c3      	lsrs	r3, r0, #3
 80003bc:	428b      	cmp	r3, r1
 80003be:	d301      	bcc.n	80003c4 <__divsi3+0x184>
 80003c0:	00cb      	lsls	r3, r1, #3
 80003c2:	1ac0      	subs	r0, r0, r3
 80003c4:	4152      	adcs	r2, r2
 80003c6:	0883      	lsrs	r3, r0, #2
 80003c8:	428b      	cmp	r3, r1
 80003ca:	d301      	bcc.n	80003d0 <__divsi3+0x190>
 80003cc:	008b      	lsls	r3, r1, #2
 80003ce:	1ac0      	subs	r0, r0, r3
 80003d0:	4152      	adcs	r2, r2
 80003d2:	d2d9      	bcs.n	8000388 <__divsi3+0x148>
 80003d4:	0843      	lsrs	r3, r0, #1
 80003d6:	428b      	cmp	r3, r1
 80003d8:	d301      	bcc.n	80003de <__divsi3+0x19e>
 80003da:	004b      	lsls	r3, r1, #1
 80003dc:	1ac0      	subs	r0, r0, r3
 80003de:	4152      	adcs	r2, r2
 80003e0:	1a41      	subs	r1, r0, r1
 80003e2:	d200      	bcs.n	80003e6 <__divsi3+0x1a6>
 80003e4:	4601      	mov	r1, r0
 80003e6:	4663      	mov	r3, ip
 80003e8:	4152      	adcs	r2, r2
 80003ea:	105b      	asrs	r3, r3, #1
 80003ec:	4610      	mov	r0, r2
 80003ee:	d301      	bcc.n	80003f4 <__divsi3+0x1b4>
 80003f0:	4240      	negs	r0, r0
 80003f2:	2b00      	cmp	r3, #0
 80003f4:	d500      	bpl.n	80003f8 <__divsi3+0x1b8>
 80003f6:	4249      	negs	r1, r1
 80003f8:	4770      	bx	lr
 80003fa:	4663      	mov	r3, ip
 80003fc:	105b      	asrs	r3, r3, #1
 80003fe:	d300      	bcc.n	8000402 <__divsi3+0x1c2>
 8000400:	4240      	negs	r0, r0
 8000402:	b501      	push	{r0, lr}
 8000404:	2000      	movs	r0, #0
 8000406:	f000 f805 	bl	8000414 <__aeabi_idiv0>
 800040a:	bd02      	pop	{r1, pc}

0800040c <__aeabi_idivmod>:
 800040c:	2900      	cmp	r1, #0
 800040e:	d0f8      	beq.n	8000402 <__divsi3+0x1c2>
 8000410:	e716      	b.n	8000240 <__divsi3>
 8000412:	4770      	bx	lr

08000414 <__aeabi_idiv0>:
 8000414:	4770      	bx	lr
 8000416:	46c0      	nop			; (mov r8, r8)

08000418 <__aeabi_uldivmod>:
 8000418:	2b00      	cmp	r3, #0
 800041a:	d111      	bne.n	8000440 <__aeabi_uldivmod+0x28>
 800041c:	2a00      	cmp	r2, #0
 800041e:	d10f      	bne.n	8000440 <__aeabi_uldivmod+0x28>
 8000420:	2900      	cmp	r1, #0
 8000422:	d100      	bne.n	8000426 <__aeabi_uldivmod+0xe>
 8000424:	2800      	cmp	r0, #0
 8000426:	d002      	beq.n	800042e <__aeabi_uldivmod+0x16>
 8000428:	2100      	movs	r1, #0
 800042a:	43c9      	mvns	r1, r1
 800042c:	1c08      	adds	r0, r1, #0
 800042e:	b407      	push	{r0, r1, r2}
 8000430:	4802      	ldr	r0, [pc, #8]	; (800043c <__aeabi_uldivmod+0x24>)
 8000432:	a102      	add	r1, pc, #8	; (adr r1, 800043c <__aeabi_uldivmod+0x24>)
 8000434:	1840      	adds	r0, r0, r1
 8000436:	9002      	str	r0, [sp, #8]
 8000438:	bd03      	pop	{r0, r1, pc}
 800043a:	46c0      	nop			; (mov r8, r8)
 800043c:	ffffffd9 	.word	0xffffffd9
 8000440:	b403      	push	{r0, r1}
 8000442:	4668      	mov	r0, sp
 8000444:	b501      	push	{r0, lr}
 8000446:	9802      	ldr	r0, [sp, #8]
 8000448:	f000 f82e 	bl	80004a8 <__udivmoddi4>
 800044c:	9b01      	ldr	r3, [sp, #4]
 800044e:	469e      	mov	lr, r3
 8000450:	b002      	add	sp, #8
 8000452:	bc0c      	pop	{r2, r3}
 8000454:	4770      	bx	lr
 8000456:	46c0      	nop			; (mov r8, r8)

08000458 <__aeabi_lmul>:
 8000458:	b5f0      	push	{r4, r5, r6, r7, lr}
 800045a:	0415      	lsls	r5, r2, #16
 800045c:	0c2d      	lsrs	r5, r5, #16
 800045e:	000f      	movs	r7, r1
 8000460:	0001      	movs	r1, r0
 8000462:	002e      	movs	r6, r5
 8000464:	46c6      	mov	lr, r8
 8000466:	4684      	mov	ip, r0
 8000468:	0400      	lsls	r0, r0, #16
 800046a:	0c14      	lsrs	r4, r2, #16
 800046c:	0c00      	lsrs	r0, r0, #16
 800046e:	0c09      	lsrs	r1, r1, #16
 8000470:	4346      	muls	r6, r0
 8000472:	434d      	muls	r5, r1
 8000474:	4360      	muls	r0, r4
 8000476:	4361      	muls	r1, r4
 8000478:	1940      	adds	r0, r0, r5
 800047a:	0c34      	lsrs	r4, r6, #16
 800047c:	1824      	adds	r4, r4, r0
 800047e:	b500      	push	{lr}
 8000480:	42a5      	cmp	r5, r4
 8000482:	d903      	bls.n	800048c <__aeabi_lmul+0x34>
 8000484:	2080      	movs	r0, #128	; 0x80
 8000486:	0240      	lsls	r0, r0, #9
 8000488:	4680      	mov	r8, r0
 800048a:	4441      	add	r1, r8
 800048c:	0c25      	lsrs	r5, r4, #16
 800048e:	186d      	adds	r5, r5, r1
 8000490:	4661      	mov	r1, ip
 8000492:	4359      	muls	r1, r3
 8000494:	437a      	muls	r2, r7
 8000496:	0430      	lsls	r0, r6, #16
 8000498:	1949      	adds	r1, r1, r5
 800049a:	0424      	lsls	r4, r4, #16
 800049c:	0c00      	lsrs	r0, r0, #16
 800049e:	1820      	adds	r0, r4, r0
 80004a0:	1889      	adds	r1, r1, r2
 80004a2:	bc80      	pop	{r7}
 80004a4:	46b8      	mov	r8, r7
 80004a6:	bdf0      	pop	{r4, r5, r6, r7, pc}

080004a8 <__udivmoddi4>:
 80004a8:	b5f0      	push	{r4, r5, r6, r7, lr}
 80004aa:	4657      	mov	r7, sl
 80004ac:	464e      	mov	r6, r9
 80004ae:	4645      	mov	r5, r8
 80004b0:	46de      	mov	lr, fp
 80004b2:	b5e0      	push	{r5, r6, r7, lr}
 80004b4:	0004      	movs	r4, r0
 80004b6:	000d      	movs	r5, r1
 80004b8:	4692      	mov	sl, r2
 80004ba:	4699      	mov	r9, r3
 80004bc:	b083      	sub	sp, #12
 80004be:	428b      	cmp	r3, r1
 80004c0:	d830      	bhi.n	8000524 <__udivmoddi4+0x7c>
 80004c2:	d02d      	beq.n	8000520 <__udivmoddi4+0x78>
 80004c4:	4649      	mov	r1, r9
 80004c6:	4650      	mov	r0, sl
 80004c8:	f000 fba0 	bl	8000c0c <__clzdi2>
 80004cc:	0029      	movs	r1, r5
 80004ce:	0006      	movs	r6, r0
 80004d0:	0020      	movs	r0, r4
 80004d2:	f000 fb9b 	bl	8000c0c <__clzdi2>
 80004d6:	1a33      	subs	r3, r6, r0
 80004d8:	4698      	mov	r8, r3
 80004da:	3b20      	subs	r3, #32
 80004dc:	469b      	mov	fp, r3
 80004de:	d433      	bmi.n	8000548 <__udivmoddi4+0xa0>
 80004e0:	465a      	mov	r2, fp
 80004e2:	4653      	mov	r3, sl
 80004e4:	4093      	lsls	r3, r2
 80004e6:	4642      	mov	r2, r8
 80004e8:	001f      	movs	r7, r3
 80004ea:	4653      	mov	r3, sl
 80004ec:	4093      	lsls	r3, r2
 80004ee:	001e      	movs	r6, r3
 80004f0:	42af      	cmp	r7, r5
 80004f2:	d83a      	bhi.n	800056a <__udivmoddi4+0xc2>
 80004f4:	42af      	cmp	r7, r5
 80004f6:	d100      	bne.n	80004fa <__udivmoddi4+0x52>
 80004f8:	e078      	b.n	80005ec <__udivmoddi4+0x144>
 80004fa:	465b      	mov	r3, fp
 80004fc:	1ba4      	subs	r4, r4, r6
 80004fe:	41bd      	sbcs	r5, r7
 8000500:	2b00      	cmp	r3, #0
 8000502:	da00      	bge.n	8000506 <__udivmoddi4+0x5e>
 8000504:	e075      	b.n	80005f2 <__udivmoddi4+0x14a>
 8000506:	2200      	movs	r2, #0
 8000508:	2300      	movs	r3, #0
 800050a:	9200      	str	r2, [sp, #0]
 800050c:	9301      	str	r3, [sp, #4]
 800050e:	2301      	movs	r3, #1
 8000510:	465a      	mov	r2, fp
 8000512:	4093      	lsls	r3, r2
 8000514:	9301      	str	r3, [sp, #4]
 8000516:	2301      	movs	r3, #1
 8000518:	4642      	mov	r2, r8
 800051a:	4093      	lsls	r3, r2
 800051c:	9300      	str	r3, [sp, #0]
 800051e:	e028      	b.n	8000572 <__udivmoddi4+0xca>
 8000520:	4282      	cmp	r2, r0
 8000522:	d9cf      	bls.n	80004c4 <__udivmoddi4+0x1c>
 8000524:	2200      	movs	r2, #0
 8000526:	2300      	movs	r3, #0
 8000528:	9200      	str	r2, [sp, #0]
 800052a:	9301      	str	r3, [sp, #4]
 800052c:	9b0c      	ldr	r3, [sp, #48]	; 0x30
 800052e:	2b00      	cmp	r3, #0
 8000530:	d001      	beq.n	8000536 <__udivmoddi4+0x8e>
 8000532:	601c      	str	r4, [r3, #0]
 8000534:	605d      	str	r5, [r3, #4]
 8000536:	9800      	ldr	r0, [sp, #0]
 8000538:	9901      	ldr	r1, [sp, #4]
 800053a:	b003      	add	sp, #12
 800053c:	bcf0      	pop	{r4, r5, r6, r7}
 800053e:	46bb      	mov	fp, r7
 8000540:	46b2      	mov	sl, r6
 8000542:	46a9      	mov	r9, r5
 8000544:	46a0      	mov	r8, r4
 8000546:	bdf0      	pop	{r4, r5, r6, r7, pc}
 8000548:	4642      	mov	r2, r8
 800054a:	2320      	movs	r3, #32
 800054c:	1a9b      	subs	r3, r3, r2
 800054e:	4652      	mov	r2, sl
 8000550:	40da      	lsrs	r2, r3
 8000552:	4641      	mov	r1, r8
 8000554:	0013      	movs	r3, r2
 8000556:	464a      	mov	r2, r9
 8000558:	408a      	lsls	r2, r1
 800055a:	0017      	movs	r7, r2
 800055c:	4642      	mov	r2, r8
 800055e:	431f      	orrs	r7, r3
 8000560:	4653      	mov	r3, sl
 8000562:	4093      	lsls	r3, r2
 8000564:	001e      	movs	r6, r3
 8000566:	42af      	cmp	r7, r5
 8000568:	d9c4      	bls.n	80004f4 <__udivmoddi4+0x4c>
 800056a:	2200      	movs	r2, #0
 800056c:	2300      	movs	r3, #0
 800056e:	9200      	str	r2, [sp, #0]
 8000570:	9301      	str	r3, [sp, #4]
 8000572:	4643      	mov	r3, r8
 8000574:	2b00      	cmp	r3, #0
 8000576:	d0d9      	beq.n	800052c <__udivmoddi4+0x84>
 8000578:	07fb      	lsls	r3, r7, #31
 800057a:	0872      	lsrs	r2, r6, #1
 800057c:	431a      	orrs	r2, r3
 800057e:	4646      	mov	r6, r8
 8000580:	087b      	lsrs	r3, r7, #1
 8000582:	e00e      	b.n	80005a2 <__udivmoddi4+0xfa>
 8000584:	42ab      	cmp	r3, r5
 8000586:	d101      	bne.n	800058c <__udivmoddi4+0xe4>
 8000588:	42a2      	cmp	r2, r4
 800058a:	d80c      	bhi.n	80005a6 <__udivmoddi4+0xfe>
 800058c:	1aa4      	subs	r4, r4, r2
 800058e:	419d      	sbcs	r5, r3
 8000590:	2001      	movs	r0, #1
 8000592:	1924      	adds	r4, r4, r4
 8000594:	416d      	adcs	r5, r5
 8000596:	2100      	movs	r1, #0
 8000598:	3e01      	subs	r6, #1
 800059a:	1824      	adds	r4, r4, r0
 800059c:	414d      	adcs	r5, r1
 800059e:	2e00      	cmp	r6, #0
 80005a0:	d006      	beq.n	80005b0 <__udivmoddi4+0x108>
 80005a2:	42ab      	cmp	r3, r5
 80005a4:	d9ee      	bls.n	8000584 <__udivmoddi4+0xdc>
 80005a6:	3e01      	subs	r6, #1
 80005a8:	1924      	adds	r4, r4, r4
 80005aa:	416d      	adcs	r5, r5
 80005ac:	2e00      	cmp	r6, #0
 80005ae:	d1f8      	bne.n	80005a2 <__udivmoddi4+0xfa>
 80005b0:	9800      	ldr	r0, [sp, #0]
 80005b2:	9901      	ldr	r1, [sp, #4]
 80005b4:	465b      	mov	r3, fp
 80005b6:	1900      	adds	r0, r0, r4
 80005b8:	4169      	adcs	r1, r5
 80005ba:	2b00      	cmp	r3, #0
 80005bc:	db24      	blt.n	8000608 <__udivmoddi4+0x160>
 80005be:	002b      	movs	r3, r5
 80005c0:	465a      	mov	r2, fp
 80005c2:	4644      	mov	r4, r8
 80005c4:	40d3      	lsrs	r3, r2
 80005c6:	002a      	movs	r2, r5
 80005c8:	40e2      	lsrs	r2, r4
 80005ca:	001c      	movs	r4, r3
 80005cc:	465b      	mov	r3, fp
 80005ce:	0015      	movs	r5, r2
 80005d0:	2b00      	cmp	r3, #0
 80005d2:	db2a      	blt.n	800062a <__udivmoddi4+0x182>
 80005d4:	0026      	movs	r6, r4
 80005d6:	409e      	lsls	r6, r3
 80005d8:	0033      	movs	r3, r6
 80005da:	0026      	movs	r6, r4
 80005dc:	4647      	mov	r7, r8
 80005de:	40be      	lsls	r6, r7
 80005e0:	0032      	movs	r2, r6
 80005e2:	1a80      	subs	r0, r0, r2
 80005e4:	4199      	sbcs	r1, r3
 80005e6:	9000      	str	r0, [sp, #0]
 80005e8:	9101      	str	r1, [sp, #4]
 80005ea:	e79f      	b.n	800052c <__udivmoddi4+0x84>
 80005ec:	42a3      	cmp	r3, r4
 80005ee:	d8bc      	bhi.n	800056a <__udivmoddi4+0xc2>
 80005f0:	e783      	b.n	80004fa <__udivmoddi4+0x52>
 80005f2:	4642      	mov	r2, r8
 80005f4:	2320      	movs	r3, #32
 80005f6:	2100      	movs	r1, #0
 80005f8:	1a9b      	subs	r3, r3, r2
 80005fa:	2200      	movs	r2, #0
 80005fc:	9100      	str	r1, [sp, #0]
 80005fe:	9201      	str	r2, [sp, #4]
 8000600:	2201      	movs	r2, #1
 8000602:	40da      	lsrs	r2, r3
 8000604:	9201      	str	r2, [sp, #4]
 8000606:	e786      	b.n	8000516 <__udivmoddi4+0x6e>
 8000608:	4642      	mov	r2, r8
 800060a:	2320      	movs	r3, #32
 800060c:	1a9b      	subs	r3, r3, r2
 800060e:	002a      	movs	r2, r5
 8000610:	4646      	mov	r6, r8
 8000612:	409a      	lsls	r2, r3
 8000614:	0023      	movs	r3, r4
 8000616:	40f3      	lsrs	r3, r6
 8000618:	4644      	mov	r4, r8
 800061a:	4313      	orrs	r3, r2
 800061c:	002a      	movs	r2, r5
 800061e:	40e2      	lsrs	r2, r4
 8000620:	001c      	movs	r4, r3
 8000622:	465b      	mov	r3, fp
 8000624:	0015      	movs	r5, r2
 8000626:	2b00      	cmp	r3, #0
 8000628:	dad4      	bge.n	80005d4 <__udivmoddi4+0x12c>
 800062a:	4642      	mov	r2, r8
 800062c:	002f      	movs	r7, r5
 800062e:	2320      	movs	r3, #32
 8000630:	0026      	movs	r6, r4
 8000632:	4097      	lsls	r7, r2
 8000634:	1a9b      	subs	r3, r3, r2
 8000636:	40de      	lsrs	r6, r3
 8000638:	003b      	movs	r3, r7
 800063a:	4333      	orrs	r3, r6
 800063c:	e7cd      	b.n	80005da <__udivmoddi4+0x132>
 800063e:	46c0      	nop			; (mov r8, r8)

08000640 <__aeabi_fdiv>:
 8000640:	b5f0      	push	{r4, r5, r6, r7, lr}
 8000642:	464f      	mov	r7, r9
 8000644:	4646      	mov	r6, r8
 8000646:	46d6      	mov	lr, sl
 8000648:	0245      	lsls	r5, r0, #9
 800064a:	b5c0      	push	{r6, r7, lr}
 800064c:	0047      	lsls	r7, r0, #1
 800064e:	1c0c      	adds	r4, r1, #0
 8000650:	0a6d      	lsrs	r5, r5, #9
 8000652:	0e3f      	lsrs	r7, r7, #24
 8000654:	0fc6      	lsrs	r6, r0, #31
 8000656:	2f00      	cmp	r7, #0
 8000658:	d066      	beq.n	8000728 <__aeabi_fdiv+0xe8>
 800065a:	2fff      	cmp	r7, #255	; 0xff
 800065c:	d06c      	beq.n	8000738 <__aeabi_fdiv+0xf8>
 800065e:	2300      	movs	r3, #0
 8000660:	00ea      	lsls	r2, r5, #3
 8000662:	2580      	movs	r5, #128	; 0x80
 8000664:	4699      	mov	r9, r3
 8000666:	469a      	mov	sl, r3
 8000668:	04ed      	lsls	r5, r5, #19
 800066a:	4315      	orrs	r5, r2
 800066c:	3f7f      	subs	r7, #127	; 0x7f
 800066e:	0260      	lsls	r0, r4, #9
 8000670:	0061      	lsls	r1, r4, #1
 8000672:	0a43      	lsrs	r3, r0, #9
 8000674:	4698      	mov	r8, r3
 8000676:	0e09      	lsrs	r1, r1, #24
 8000678:	0fe4      	lsrs	r4, r4, #31
 800067a:	2900      	cmp	r1, #0
 800067c:	d048      	beq.n	8000710 <__aeabi_fdiv+0xd0>
 800067e:	29ff      	cmp	r1, #255	; 0xff
 8000680:	d010      	beq.n	80006a4 <__aeabi_fdiv+0x64>
 8000682:	2280      	movs	r2, #128	; 0x80
 8000684:	00d8      	lsls	r0, r3, #3
 8000686:	04d2      	lsls	r2, r2, #19
 8000688:	4302      	orrs	r2, r0
 800068a:	4690      	mov	r8, r2
 800068c:	2000      	movs	r0, #0
 800068e:	397f      	subs	r1, #127	; 0x7f
 8000690:	464a      	mov	r2, r9
 8000692:	0033      	movs	r3, r6
 8000694:	1a7f      	subs	r7, r7, r1
 8000696:	4302      	orrs	r2, r0
 8000698:	496c      	ldr	r1, [pc, #432]	; (800084c <__aeabi_fdiv+0x20c>)
 800069a:	0092      	lsls	r2, r2, #2
 800069c:	588a      	ldr	r2, [r1, r2]
 800069e:	4063      	eors	r3, r4
 80006a0:	b2db      	uxtb	r3, r3
 80006a2:	4697      	mov	pc, r2
 80006a4:	2b00      	cmp	r3, #0
 80006a6:	d16d      	bne.n	8000784 <__aeabi_fdiv+0x144>
 80006a8:	2002      	movs	r0, #2
 80006aa:	3fff      	subs	r7, #255	; 0xff
 80006ac:	e033      	b.n	8000716 <__aeabi_fdiv+0xd6>
 80006ae:	2300      	movs	r3, #0
 80006b0:	4698      	mov	r8, r3
 80006b2:	0026      	movs	r6, r4
 80006b4:	4645      	mov	r5, r8
 80006b6:	4682      	mov	sl, r0
 80006b8:	4653      	mov	r3, sl
 80006ba:	2b02      	cmp	r3, #2
 80006bc:	d100      	bne.n	80006c0 <__aeabi_fdiv+0x80>
 80006be:	e07f      	b.n	80007c0 <__aeabi_fdiv+0x180>
 80006c0:	2b03      	cmp	r3, #3
 80006c2:	d100      	bne.n	80006c6 <__aeabi_fdiv+0x86>
 80006c4:	e094      	b.n	80007f0 <__aeabi_fdiv+0x1b0>
 80006c6:	2b01      	cmp	r3, #1
 80006c8:	d017      	beq.n	80006fa <__aeabi_fdiv+0xba>
 80006ca:	0038      	movs	r0, r7
 80006cc:	307f      	adds	r0, #127	; 0x7f
 80006ce:	2800      	cmp	r0, #0
 80006d0:	dd5f      	ble.n	8000792 <__aeabi_fdiv+0x152>
 80006d2:	076b      	lsls	r3, r5, #29
 80006d4:	d004      	beq.n	80006e0 <__aeabi_fdiv+0xa0>
 80006d6:	230f      	movs	r3, #15
 80006d8:	402b      	ands	r3, r5
 80006da:	2b04      	cmp	r3, #4
 80006dc:	d000      	beq.n	80006e0 <__aeabi_fdiv+0xa0>
 80006de:	3504      	adds	r5, #4
 80006e0:	012b      	lsls	r3, r5, #4
 80006e2:	d503      	bpl.n	80006ec <__aeabi_fdiv+0xac>
 80006e4:	0038      	movs	r0, r7
 80006e6:	4b5a      	ldr	r3, [pc, #360]	; (8000850 <__aeabi_fdiv+0x210>)
 80006e8:	3080      	adds	r0, #128	; 0x80
 80006ea:	401d      	ands	r5, r3
 80006ec:	28fe      	cmp	r0, #254	; 0xfe
 80006ee:	dc67      	bgt.n	80007c0 <__aeabi_fdiv+0x180>
 80006f0:	01ad      	lsls	r5, r5, #6
 80006f2:	0a6d      	lsrs	r5, r5, #9
 80006f4:	b2c0      	uxtb	r0, r0
 80006f6:	e002      	b.n	80006fe <__aeabi_fdiv+0xbe>
 80006f8:	001e      	movs	r6, r3
 80006fa:	2000      	movs	r0, #0
 80006fc:	2500      	movs	r5, #0
 80006fe:	05c0      	lsls	r0, r0, #23
 8000700:	4328      	orrs	r0, r5
 8000702:	07f6      	lsls	r6, r6, #31
 8000704:	4330      	orrs	r0, r6
 8000706:	bce0      	pop	{r5, r6, r7}
 8000708:	46ba      	mov	sl, r7
 800070a:	46b1      	mov	r9, r6
 800070c:	46a8      	mov	r8, r5
 800070e:	bdf0      	pop	{r4, r5, r6, r7, pc}
 8000710:	2b00      	cmp	r3, #0
 8000712:	d12b      	bne.n	800076c <__aeabi_fdiv+0x12c>
 8000714:	2001      	movs	r0, #1
 8000716:	464a      	mov	r2, r9
 8000718:	0033      	movs	r3, r6
 800071a:	494e      	ldr	r1, [pc, #312]	; (8000854 <__aeabi_fdiv+0x214>)
 800071c:	4302      	orrs	r2, r0
 800071e:	0092      	lsls	r2, r2, #2
 8000720:	588a      	ldr	r2, [r1, r2]
 8000722:	4063      	eors	r3, r4
 8000724:	b2db      	uxtb	r3, r3
 8000726:	4697      	mov	pc, r2
 8000728:	2d00      	cmp	r5, #0
 800072a:	d113      	bne.n	8000754 <__aeabi_fdiv+0x114>
 800072c:	2304      	movs	r3, #4
 800072e:	4699      	mov	r9, r3
 8000730:	3b03      	subs	r3, #3
 8000732:	2700      	movs	r7, #0
 8000734:	469a      	mov	sl, r3
 8000736:	e79a      	b.n	800066e <__aeabi_fdiv+0x2e>
 8000738:	2d00      	cmp	r5, #0
 800073a:	d105      	bne.n	8000748 <__aeabi_fdiv+0x108>
 800073c:	2308      	movs	r3, #8
 800073e:	4699      	mov	r9, r3
 8000740:	3b06      	subs	r3, #6
 8000742:	27ff      	movs	r7, #255	; 0xff
 8000744:	469a      	mov	sl, r3
 8000746:	e792      	b.n	800066e <__aeabi_fdiv+0x2e>
 8000748:	230c      	movs	r3, #12
 800074a:	4699      	mov	r9, r3
 800074c:	3b09      	subs	r3, #9
 800074e:	27ff      	movs	r7, #255	; 0xff
 8000750:	469a      	mov	sl, r3
 8000752:	e78c      	b.n	800066e <__aeabi_fdiv+0x2e>
 8000754:	0028      	movs	r0, r5
 8000756:	f000 fa3b 	bl	8000bd0 <__clzsi2>
 800075a:	2776      	movs	r7, #118	; 0x76
 800075c:	1f43      	subs	r3, r0, #5
 800075e:	409d      	lsls	r5, r3
 8000760:	2300      	movs	r3, #0
 8000762:	427f      	negs	r7, r7
 8000764:	4699      	mov	r9, r3
 8000766:	469a      	mov	sl, r3
 8000768:	1a3f      	subs	r7, r7, r0
 800076a:	e780      	b.n	800066e <__aeabi_fdiv+0x2e>
 800076c:	0018      	movs	r0, r3
 800076e:	f000 fa2f 	bl	8000bd0 <__clzsi2>
 8000772:	4642      	mov	r2, r8
 8000774:	1f43      	subs	r3, r0, #5
 8000776:	2176      	movs	r1, #118	; 0x76
 8000778:	409a      	lsls	r2, r3
 800077a:	4249      	negs	r1, r1
 800077c:	1a09      	subs	r1, r1, r0
 800077e:	4690      	mov	r8, r2
 8000780:	2000      	movs	r0, #0
 8000782:	e785      	b.n	8000690 <__aeabi_fdiv+0x50>
 8000784:	21ff      	movs	r1, #255	; 0xff
 8000786:	2003      	movs	r0, #3
 8000788:	e782      	b.n	8000690 <__aeabi_fdiv+0x50>
 800078a:	001e      	movs	r6, r3
 800078c:	20ff      	movs	r0, #255	; 0xff
 800078e:	2500      	movs	r5, #0
 8000790:	e7b5      	b.n	80006fe <__aeabi_fdiv+0xbe>
 8000792:	2301      	movs	r3, #1
 8000794:	1a1b      	subs	r3, r3, r0
 8000796:	2b1b      	cmp	r3, #27
 8000798:	dcaf      	bgt.n	80006fa <__aeabi_fdiv+0xba>
 800079a:	379e      	adds	r7, #158	; 0x9e
 800079c:	0029      	movs	r1, r5
 800079e:	40bd      	lsls	r5, r7
 80007a0:	40d9      	lsrs	r1, r3
 80007a2:	1e6a      	subs	r2, r5, #1
 80007a4:	4195      	sbcs	r5, r2
 80007a6:	430d      	orrs	r5, r1
 80007a8:	076b      	lsls	r3, r5, #29
 80007aa:	d004      	beq.n	80007b6 <__aeabi_fdiv+0x176>
 80007ac:	230f      	movs	r3, #15
 80007ae:	402b      	ands	r3, r5
 80007b0:	2b04      	cmp	r3, #4
 80007b2:	d000      	beq.n	80007b6 <__aeabi_fdiv+0x176>
 80007b4:	3504      	adds	r5, #4
 80007b6:	016b      	lsls	r3, r5, #5
 80007b8:	d544      	bpl.n	8000844 <__aeabi_fdiv+0x204>
 80007ba:	2001      	movs	r0, #1
 80007bc:	2500      	movs	r5, #0
 80007be:	e79e      	b.n	80006fe <__aeabi_fdiv+0xbe>
 80007c0:	20ff      	movs	r0, #255	; 0xff
 80007c2:	2500      	movs	r5, #0
 80007c4:	e79b      	b.n	80006fe <__aeabi_fdiv+0xbe>
 80007c6:	2580      	movs	r5, #128	; 0x80
 80007c8:	2600      	movs	r6, #0
 80007ca:	20ff      	movs	r0, #255	; 0xff
 80007cc:	03ed      	lsls	r5, r5, #15
 80007ce:	e796      	b.n	80006fe <__aeabi_fdiv+0xbe>
 80007d0:	2300      	movs	r3, #0
 80007d2:	4698      	mov	r8, r3
 80007d4:	2080      	movs	r0, #128	; 0x80
 80007d6:	03c0      	lsls	r0, r0, #15
 80007d8:	4205      	tst	r5, r0
 80007da:	d009      	beq.n	80007f0 <__aeabi_fdiv+0x1b0>
 80007dc:	4643      	mov	r3, r8
 80007de:	4203      	tst	r3, r0
 80007e0:	d106      	bne.n	80007f0 <__aeabi_fdiv+0x1b0>
 80007e2:	4645      	mov	r5, r8
 80007e4:	4305      	orrs	r5, r0
 80007e6:	026d      	lsls	r5, r5, #9
 80007e8:	0026      	movs	r6, r4
 80007ea:	20ff      	movs	r0, #255	; 0xff
 80007ec:	0a6d      	lsrs	r5, r5, #9
 80007ee:	e786      	b.n	80006fe <__aeabi_fdiv+0xbe>
 80007f0:	2080      	movs	r0, #128	; 0x80
 80007f2:	03c0      	lsls	r0, r0, #15
 80007f4:	4305      	orrs	r5, r0
 80007f6:	026d      	lsls	r5, r5, #9
 80007f8:	20ff      	movs	r0, #255	; 0xff
 80007fa:	0a6d      	lsrs	r5, r5, #9
 80007fc:	e77f      	b.n	80006fe <__aeabi_fdiv+0xbe>
 80007fe:	4641      	mov	r1, r8
 8000800:	016a      	lsls	r2, r5, #5
 8000802:	0148      	lsls	r0, r1, #5
 8000804:	4282      	cmp	r2, r0
 8000806:	d219      	bcs.n	800083c <__aeabi_fdiv+0x1fc>
 8000808:	211b      	movs	r1, #27
 800080a:	2500      	movs	r5, #0
 800080c:	3f01      	subs	r7, #1
 800080e:	2601      	movs	r6, #1
 8000810:	0014      	movs	r4, r2
 8000812:	006d      	lsls	r5, r5, #1
 8000814:	0052      	lsls	r2, r2, #1
 8000816:	2c00      	cmp	r4, #0
 8000818:	db01      	blt.n	800081e <__aeabi_fdiv+0x1de>
 800081a:	4290      	cmp	r0, r2
 800081c:	d801      	bhi.n	8000822 <__aeabi_fdiv+0x1e2>
 800081e:	1a12      	subs	r2, r2, r0
 8000820:	4335      	orrs	r5, r6
 8000822:	3901      	subs	r1, #1
 8000824:	2900      	cmp	r1, #0
 8000826:	d1f3      	bne.n	8000810 <__aeabi_fdiv+0x1d0>
 8000828:	1e50      	subs	r0, r2, #1
 800082a:	4182      	sbcs	r2, r0
 800082c:	0038      	movs	r0, r7
 800082e:	307f      	adds	r0, #127	; 0x7f
 8000830:	001e      	movs	r6, r3
 8000832:	4315      	orrs	r5, r2
 8000834:	2800      	cmp	r0, #0
 8000836:	dd00      	ble.n	800083a <__aeabi_fdiv+0x1fa>
 8000838:	e74b      	b.n	80006d2 <__aeabi_fdiv+0x92>
 800083a:	e7aa      	b.n	8000792 <__aeabi_fdiv+0x152>
 800083c:	211a      	movs	r1, #26
 800083e:	2501      	movs	r5, #1
 8000840:	1a12      	subs	r2, r2, r0
 8000842:	e7e4      	b.n	800080e <__aeabi_fdiv+0x1ce>
 8000844:	01ad      	lsls	r5, r5, #6
 8000846:	2000      	movs	r0, #0
 8000848:	0a6d      	lsrs	r5, r5, #9
 800084a:	e758      	b.n	80006fe <__aeabi_fdiv+0xbe>
 800084c:	08007164 	.word	0x08007164
 8000850:	f7ffffff 	.word	0xf7ffffff
 8000854:	080071a4 	.word	0x080071a4

08000858 <__aeabi_fmul>:
 8000858:	b5f8      	push	{r3, r4, r5, r6, r7, lr}
 800085a:	4657      	mov	r7, sl
 800085c:	464e      	mov	r6, r9
 800085e:	4645      	mov	r5, r8
 8000860:	46de      	mov	lr, fp
 8000862:	0244      	lsls	r4, r0, #9
 8000864:	b5e0      	push	{r5, r6, r7, lr}
 8000866:	0045      	lsls	r5, r0, #1
 8000868:	1c0f      	adds	r7, r1, #0
 800086a:	0a64      	lsrs	r4, r4, #9
 800086c:	0e2d      	lsrs	r5, r5, #24
 800086e:	0fc6      	lsrs	r6, r0, #31
 8000870:	2d00      	cmp	r5, #0
 8000872:	d047      	beq.n	8000904 <__aeabi_fmul+0xac>
 8000874:	2dff      	cmp	r5, #255	; 0xff
 8000876:	d04d      	beq.n	8000914 <__aeabi_fmul+0xbc>
 8000878:	2300      	movs	r3, #0
 800087a:	2080      	movs	r0, #128	; 0x80
 800087c:	469a      	mov	sl, r3
 800087e:	469b      	mov	fp, r3
 8000880:	00e4      	lsls	r4, r4, #3
 8000882:	04c0      	lsls	r0, r0, #19
 8000884:	4304      	orrs	r4, r0
 8000886:	3d7f      	subs	r5, #127	; 0x7f
 8000888:	0278      	lsls	r0, r7, #9
 800088a:	0a43      	lsrs	r3, r0, #9
 800088c:	4699      	mov	r9, r3
 800088e:	007a      	lsls	r2, r7, #1
 8000890:	0ffb      	lsrs	r3, r7, #31
 8000892:	4698      	mov	r8, r3
 8000894:	0e12      	lsrs	r2, r2, #24
 8000896:	464b      	mov	r3, r9
 8000898:	d044      	beq.n	8000924 <__aeabi_fmul+0xcc>
 800089a:	2aff      	cmp	r2, #255	; 0xff
 800089c:	d011      	beq.n	80008c2 <__aeabi_fmul+0x6a>
 800089e:	00d8      	lsls	r0, r3, #3
 80008a0:	2380      	movs	r3, #128	; 0x80
 80008a2:	04db      	lsls	r3, r3, #19
 80008a4:	4303      	orrs	r3, r0
 80008a6:	4699      	mov	r9, r3
 80008a8:	2000      	movs	r0, #0
 80008aa:	3a7f      	subs	r2, #127	; 0x7f
 80008ac:	18ad      	adds	r5, r5, r2
 80008ae:	4647      	mov	r7, r8
 80008b0:	4653      	mov	r3, sl
 80008b2:	4077      	eors	r7, r6
 80008b4:	1c69      	adds	r1, r5, #1
 80008b6:	2b0f      	cmp	r3, #15
 80008b8:	d83f      	bhi.n	800093a <__aeabi_fmul+0xe2>
 80008ba:	4a72      	ldr	r2, [pc, #456]	; (8000a84 <__aeabi_fmul+0x22c>)
 80008bc:	009b      	lsls	r3, r3, #2
 80008be:	58d3      	ldr	r3, [r2, r3]
 80008c0:	469f      	mov	pc, r3
 80008c2:	35ff      	adds	r5, #255	; 0xff
 80008c4:	2b00      	cmp	r3, #0
 80008c6:	d000      	beq.n	80008ca <__aeabi_fmul+0x72>
 80008c8:	e079      	b.n	80009be <__aeabi_fmul+0x166>
 80008ca:	4652      	mov	r2, sl
 80008cc:	2302      	movs	r3, #2
 80008ce:	431a      	orrs	r2, r3
 80008d0:	4692      	mov	sl, r2
 80008d2:	2002      	movs	r0, #2
 80008d4:	e7eb      	b.n	80008ae <__aeabi_fmul+0x56>
 80008d6:	4647      	mov	r7, r8
 80008d8:	464c      	mov	r4, r9
 80008da:	4683      	mov	fp, r0
 80008dc:	465b      	mov	r3, fp
 80008de:	2b02      	cmp	r3, #2
 80008e0:	d028      	beq.n	8000934 <__aeabi_fmul+0xdc>
 80008e2:	2b03      	cmp	r3, #3
 80008e4:	d100      	bne.n	80008e8 <__aeabi_fmul+0x90>
 80008e6:	e0c6      	b.n	8000a76 <__aeabi_fmul+0x21e>
 80008e8:	2b01      	cmp	r3, #1
 80008ea:	d14f      	bne.n	800098c <__aeabi_fmul+0x134>
 80008ec:	2000      	movs	r0, #0
 80008ee:	2400      	movs	r4, #0
 80008f0:	05c0      	lsls	r0, r0, #23
 80008f2:	07ff      	lsls	r7, r7, #31
 80008f4:	4320      	orrs	r0, r4
 80008f6:	4338      	orrs	r0, r7
 80008f8:	bcf0      	pop	{r4, r5, r6, r7}
 80008fa:	46bb      	mov	fp, r7
 80008fc:	46b2      	mov	sl, r6
 80008fe:	46a9      	mov	r9, r5
 8000900:	46a0      	mov	r8, r4
 8000902:	bdf8      	pop	{r3, r4, r5, r6, r7, pc}
 8000904:	2c00      	cmp	r4, #0
 8000906:	d171      	bne.n	80009ec <__aeabi_fmul+0x194>
 8000908:	2304      	movs	r3, #4
 800090a:	469a      	mov	sl, r3
 800090c:	3b03      	subs	r3, #3
 800090e:	2500      	movs	r5, #0
 8000910:	469b      	mov	fp, r3
 8000912:	e7b9      	b.n	8000888 <__aeabi_fmul+0x30>
 8000914:	2c00      	cmp	r4, #0
 8000916:	d163      	bne.n	80009e0 <__aeabi_fmul+0x188>
 8000918:	2308      	movs	r3, #8
 800091a:	469a      	mov	sl, r3
 800091c:	3b06      	subs	r3, #6
 800091e:	25ff      	movs	r5, #255	; 0xff
 8000920:	469b      	mov	fp, r3
 8000922:	e7b1      	b.n	8000888 <__aeabi_fmul+0x30>
 8000924:	2b00      	cmp	r3, #0
 8000926:	d150      	bne.n	80009ca <__aeabi_fmul+0x172>
 8000928:	4652      	mov	r2, sl
 800092a:	3301      	adds	r3, #1
 800092c:	431a      	orrs	r2, r3
 800092e:	4692      	mov	sl, r2
 8000930:	2001      	movs	r0, #1
 8000932:	e7bc      	b.n	80008ae <__aeabi_fmul+0x56>
 8000934:	20ff      	movs	r0, #255	; 0xff
 8000936:	2400      	movs	r4, #0
 8000938:	e7da      	b.n	80008f0 <__aeabi_fmul+0x98>
 800093a:	4648      	mov	r0, r9
 800093c:	0c26      	lsrs	r6, r4, #16
 800093e:	0424      	lsls	r4, r4, #16
 8000940:	0c22      	lsrs	r2, r4, #16
 8000942:	0404      	lsls	r4, r0, #16
 8000944:	0c24      	lsrs	r4, r4, #16
 8000946:	464b      	mov	r3, r9
 8000948:	0020      	movs	r0, r4
 800094a:	0c1b      	lsrs	r3, r3, #16
 800094c:	4350      	muls	r0, r2
 800094e:	4374      	muls	r4, r6
 8000950:	435a      	muls	r2, r3
 8000952:	435e      	muls	r6, r3
 8000954:	1912      	adds	r2, r2, r4
 8000956:	0c03      	lsrs	r3, r0, #16
 8000958:	189b      	adds	r3, r3, r2
 800095a:	429c      	cmp	r4, r3
 800095c:	d903      	bls.n	8000966 <__aeabi_fmul+0x10e>
 800095e:	2280      	movs	r2, #128	; 0x80
 8000960:	0252      	lsls	r2, r2, #9
 8000962:	4694      	mov	ip, r2
 8000964:	4466      	add	r6, ip
 8000966:	0400      	lsls	r0, r0, #16
 8000968:	041a      	lsls	r2, r3, #16
 800096a:	0c00      	lsrs	r0, r0, #16
 800096c:	1812      	adds	r2, r2, r0
 800096e:	0194      	lsls	r4, r2, #6
 8000970:	1e60      	subs	r0, r4, #1
 8000972:	4184      	sbcs	r4, r0
 8000974:	0c1b      	lsrs	r3, r3, #16
 8000976:	0e92      	lsrs	r2, r2, #26
 8000978:	199b      	adds	r3, r3, r6
 800097a:	4314      	orrs	r4, r2
 800097c:	019b      	lsls	r3, r3, #6
 800097e:	431c      	orrs	r4, r3
 8000980:	011b      	lsls	r3, r3, #4
 8000982:	d572      	bpl.n	8000a6a <__aeabi_fmul+0x212>
 8000984:	2001      	movs	r0, #1
 8000986:	0863      	lsrs	r3, r4, #1
 8000988:	4004      	ands	r4, r0
 800098a:	431c      	orrs	r4, r3
 800098c:	0008      	movs	r0, r1
 800098e:	307f      	adds	r0, #127	; 0x7f
 8000990:	2800      	cmp	r0, #0
 8000992:	dd3c      	ble.n	8000a0e <__aeabi_fmul+0x1b6>
 8000994:	0763      	lsls	r3, r4, #29
 8000996:	d004      	beq.n	80009a2 <__aeabi_fmul+0x14a>
 8000998:	230f      	movs	r3, #15
 800099a:	4023      	ands	r3, r4
 800099c:	2b04      	cmp	r3, #4
 800099e:	d000      	beq.n	80009a2 <__aeabi_fmul+0x14a>
 80009a0:	3404      	adds	r4, #4
 80009a2:	0123      	lsls	r3, r4, #4
 80009a4:	d503      	bpl.n	80009ae <__aeabi_fmul+0x156>
 80009a6:	3180      	adds	r1, #128	; 0x80
 80009a8:	0008      	movs	r0, r1
 80009aa:	4b37      	ldr	r3, [pc, #220]	; (8000a88 <__aeabi_fmul+0x230>)
 80009ac:	401c      	ands	r4, r3
 80009ae:	28fe      	cmp	r0, #254	; 0xfe
 80009b0:	dcc0      	bgt.n	8000934 <__aeabi_fmul+0xdc>
 80009b2:	01a4      	lsls	r4, r4, #6
 80009b4:	0a64      	lsrs	r4, r4, #9
 80009b6:	b2c0      	uxtb	r0, r0
 80009b8:	e79a      	b.n	80008f0 <__aeabi_fmul+0x98>
 80009ba:	0037      	movs	r7, r6
 80009bc:	e78e      	b.n	80008dc <__aeabi_fmul+0x84>
 80009be:	4652      	mov	r2, sl
 80009c0:	2303      	movs	r3, #3
 80009c2:	431a      	orrs	r2, r3
 80009c4:	4692      	mov	sl, r2
 80009c6:	2003      	movs	r0, #3
 80009c8:	e771      	b.n	80008ae <__aeabi_fmul+0x56>
 80009ca:	4648      	mov	r0, r9
 80009cc:	f000 f900 	bl	8000bd0 <__clzsi2>
 80009d0:	464a      	mov	r2, r9
 80009d2:	1f43      	subs	r3, r0, #5
 80009d4:	409a      	lsls	r2, r3
 80009d6:	1a2d      	subs	r5, r5, r0
 80009d8:	4691      	mov	r9, r2
 80009da:	2000      	movs	r0, #0
 80009dc:	3d76      	subs	r5, #118	; 0x76
 80009de:	e766      	b.n	80008ae <__aeabi_fmul+0x56>
 80009e0:	230c      	movs	r3, #12
 80009e2:	469a      	mov	sl, r3
 80009e4:	3b09      	subs	r3, #9
 80009e6:	25ff      	movs	r5, #255	; 0xff
 80009e8:	469b      	mov	fp, r3
 80009ea:	e74d      	b.n	8000888 <__aeabi_fmul+0x30>
 80009ec:	0020      	movs	r0, r4
 80009ee:	f000 f8ef 	bl	8000bd0 <__clzsi2>
 80009f2:	2576      	movs	r5, #118	; 0x76
 80009f4:	1f43      	subs	r3, r0, #5
 80009f6:	409c      	lsls	r4, r3
 80009f8:	2300      	movs	r3, #0
 80009fa:	426d      	negs	r5, r5
 80009fc:	469a      	mov	sl, r3
 80009fe:	469b      	mov	fp, r3
 8000a00:	1a2d      	subs	r5, r5, r0
 8000a02:	e741      	b.n	8000888 <__aeabi_fmul+0x30>
 8000a04:	2480      	movs	r4, #128	; 0x80
 8000a06:	2700      	movs	r7, #0
 8000a08:	20ff      	movs	r0, #255	; 0xff
 8000a0a:	03e4      	lsls	r4, r4, #15
 8000a0c:	e770      	b.n	80008f0 <__aeabi_fmul+0x98>
 8000a0e:	2301      	movs	r3, #1
 8000a10:	1a1b      	subs	r3, r3, r0
 8000a12:	2b1b      	cmp	r3, #27
 8000a14:	dd00      	ble.n	8000a18 <__aeabi_fmul+0x1c0>
 8000a16:	e769      	b.n	80008ec <__aeabi_fmul+0x94>
 8000a18:	319e      	adds	r1, #158	; 0x9e
 8000a1a:	0020      	movs	r0, r4
 8000a1c:	408c      	lsls	r4, r1
 8000a1e:	40d8      	lsrs	r0, r3
 8000a20:	1e63      	subs	r3, r4, #1
 8000a22:	419c      	sbcs	r4, r3
 8000a24:	4304      	orrs	r4, r0
 8000a26:	0763      	lsls	r3, r4, #29
 8000a28:	d004      	beq.n	8000a34 <__aeabi_fmul+0x1dc>
 8000a2a:	230f      	movs	r3, #15
 8000a2c:	4023      	ands	r3, r4
 8000a2e:	2b04      	cmp	r3, #4
 8000a30:	d000      	beq.n	8000a34 <__aeabi_fmul+0x1dc>
 8000a32:	3404      	adds	r4, #4
 8000a34:	0163      	lsls	r3, r4, #5
 8000a36:	d51a      	bpl.n	8000a6e <__aeabi_fmul+0x216>
 8000a38:	2001      	movs	r0, #1
 8000a3a:	2400      	movs	r4, #0
 8000a3c:	e758      	b.n	80008f0 <__aeabi_fmul+0x98>
 8000a3e:	2080      	movs	r0, #128	; 0x80
 8000a40:	03c0      	lsls	r0, r0, #15
 8000a42:	4204      	tst	r4, r0
 8000a44:	d009      	beq.n	8000a5a <__aeabi_fmul+0x202>
 8000a46:	464b      	mov	r3, r9
 8000a48:	4203      	tst	r3, r0
 8000a4a:	d106      	bne.n	8000a5a <__aeabi_fmul+0x202>
 8000a4c:	464c      	mov	r4, r9
 8000a4e:	4304      	orrs	r4, r0
 8000a50:	0264      	lsls	r4, r4, #9
 8000a52:	4647      	mov	r7, r8
 8000a54:	20ff      	movs	r0, #255	; 0xff
 8000a56:	0a64      	lsrs	r4, r4, #9
 8000a58:	e74a      	b.n	80008f0 <__aeabi_fmul+0x98>
 8000a5a:	2080      	movs	r0, #128	; 0x80
 8000a5c:	03c0      	lsls	r0, r0, #15
 8000a5e:	4304      	orrs	r4, r0
 8000a60:	0264      	lsls	r4, r4, #9
 8000a62:	0037      	movs	r7, r6
 8000a64:	20ff      	movs	r0, #255	; 0xff
 8000a66:	0a64      	lsrs	r4, r4, #9
 8000a68:	e742      	b.n	80008f0 <__aeabi_fmul+0x98>
 8000a6a:	0029      	movs	r1, r5
 8000a6c:	e78e      	b.n	800098c <__aeabi_fmul+0x134>
 8000a6e:	01a4      	lsls	r4, r4, #6
 8000a70:	2000      	movs	r0, #0
 8000a72:	0a64      	lsrs	r4, r4, #9
 8000a74:	e73c      	b.n	80008f0 <__aeabi_fmul+0x98>
 8000a76:	2080      	movs	r0, #128	; 0x80
 8000a78:	03c0      	lsls	r0, r0, #15
 8000a7a:	4304      	orrs	r4, r0
 8000a7c:	0264      	lsls	r4, r4, #9
 8000a7e:	20ff      	movs	r0, #255	; 0xff
 8000a80:	0a64      	lsrs	r4, r4, #9
 8000a82:	e735      	b.n	80008f0 <__aeabi_fmul+0x98>
 8000a84:	080071e4 	.word	0x080071e4
 8000a88:	f7ffffff 	.word	0xf7ffffff

08000a8c <__aeabi_f2iz>:
 8000a8c:	0241      	lsls	r1, r0, #9
 8000a8e:	0042      	lsls	r2, r0, #1
 8000a90:	0fc3      	lsrs	r3, r0, #31
 8000a92:	0a49      	lsrs	r1, r1, #9
 8000a94:	2000      	movs	r0, #0
 8000a96:	0e12      	lsrs	r2, r2, #24
 8000a98:	2a7e      	cmp	r2, #126	; 0x7e
 8000a9a:	d903      	bls.n	8000aa4 <__aeabi_f2iz+0x18>
 8000a9c:	2a9d      	cmp	r2, #157	; 0x9d
 8000a9e:	d902      	bls.n	8000aa6 <__aeabi_f2iz+0x1a>
 8000aa0:	4a09      	ldr	r2, [pc, #36]	; (8000ac8 <__aeabi_f2iz+0x3c>)
 8000aa2:	1898      	adds	r0, r3, r2
 8000aa4:	4770      	bx	lr
 8000aa6:	2080      	movs	r0, #128	; 0x80
 8000aa8:	0400      	lsls	r0, r0, #16
 8000aaa:	4301      	orrs	r1, r0
 8000aac:	2a95      	cmp	r2, #149	; 0x95
 8000aae:	dc07      	bgt.n	8000ac0 <__aeabi_f2iz+0x34>
 8000ab0:	2096      	movs	r0, #150	; 0x96
 8000ab2:	1a82      	subs	r2, r0, r2
 8000ab4:	40d1      	lsrs	r1, r2
 8000ab6:	4248      	negs	r0, r1
 8000ab8:	2b00      	cmp	r3, #0
 8000aba:	d1f3      	bne.n	8000aa4 <__aeabi_f2iz+0x18>
 8000abc:	0008      	movs	r0, r1
 8000abe:	e7f1      	b.n	8000aa4 <__aeabi_f2iz+0x18>
 8000ac0:	3a96      	subs	r2, #150	; 0x96
 8000ac2:	4091      	lsls	r1, r2
 8000ac4:	e7f7      	b.n	8000ab6 <__aeabi_f2iz+0x2a>
 8000ac6:	46c0      	nop			; (mov r8, r8)
 8000ac8:	7fffffff 	.word	0x7fffffff

08000acc <__aeabi_i2f>:
 8000acc:	b570      	push	{r4, r5, r6, lr}
 8000ace:	2800      	cmp	r0, #0
 8000ad0:	d013      	beq.n	8000afa <__aeabi_i2f+0x2e>
 8000ad2:	17c3      	asrs	r3, r0, #31
 8000ad4:	18c5      	adds	r5, r0, r3
 8000ad6:	405d      	eors	r5, r3
 8000ad8:	0fc4      	lsrs	r4, r0, #31
 8000ada:	0028      	movs	r0, r5
 8000adc:	f000 f878 	bl	8000bd0 <__clzsi2>
 8000ae0:	239e      	movs	r3, #158	; 0x9e
 8000ae2:	0001      	movs	r1, r0
 8000ae4:	1a1b      	subs	r3, r3, r0
 8000ae6:	2b96      	cmp	r3, #150	; 0x96
 8000ae8:	dc0f      	bgt.n	8000b0a <__aeabi_i2f+0x3e>
 8000aea:	2808      	cmp	r0, #8
 8000aec:	dd01      	ble.n	8000af2 <__aeabi_i2f+0x26>
 8000aee:	3908      	subs	r1, #8
 8000af0:	408d      	lsls	r5, r1
 8000af2:	026d      	lsls	r5, r5, #9
 8000af4:	0a6d      	lsrs	r5, r5, #9
 8000af6:	b2d8      	uxtb	r0, r3
 8000af8:	e002      	b.n	8000b00 <__aeabi_i2f+0x34>
 8000afa:	2400      	movs	r4, #0
 8000afc:	2000      	movs	r0, #0
 8000afe:	2500      	movs	r5, #0
 8000b00:	05c0      	lsls	r0, r0, #23
 8000b02:	4328      	orrs	r0, r5
 8000b04:	07e4      	lsls	r4, r4, #31
 8000b06:	4320      	orrs	r0, r4
 8000b08:	bd70      	pop	{r4, r5, r6, pc}
 8000b0a:	2b99      	cmp	r3, #153	; 0x99
 8000b0c:	dd0b      	ble.n	8000b26 <__aeabi_i2f+0x5a>
 8000b0e:	2205      	movs	r2, #5
 8000b10:	002e      	movs	r6, r5
 8000b12:	1a12      	subs	r2, r2, r0
 8000b14:	40d6      	lsrs	r6, r2
 8000b16:	0002      	movs	r2, r0
 8000b18:	321b      	adds	r2, #27
 8000b1a:	4095      	lsls	r5, r2
 8000b1c:	0028      	movs	r0, r5
 8000b1e:	1e45      	subs	r5, r0, #1
 8000b20:	41a8      	sbcs	r0, r5
 8000b22:	0035      	movs	r5, r6
 8000b24:	4305      	orrs	r5, r0
 8000b26:	2905      	cmp	r1, #5
 8000b28:	dd01      	ble.n	8000b2e <__aeabi_i2f+0x62>
 8000b2a:	1f4a      	subs	r2, r1, #5
 8000b2c:	4095      	lsls	r5, r2
 8000b2e:	002a      	movs	r2, r5
 8000b30:	4e08      	ldr	r6, [pc, #32]	; (8000b54 <__aeabi_i2f+0x88>)
 8000b32:	4032      	ands	r2, r6
 8000b34:	0768      	lsls	r0, r5, #29
 8000b36:	d009      	beq.n	8000b4c <__aeabi_i2f+0x80>
 8000b38:	200f      	movs	r0, #15
 8000b3a:	4028      	ands	r0, r5
 8000b3c:	2804      	cmp	r0, #4
 8000b3e:	d005      	beq.n	8000b4c <__aeabi_i2f+0x80>
 8000b40:	3204      	adds	r2, #4
 8000b42:	0150      	lsls	r0, r2, #5
 8000b44:	d502      	bpl.n	8000b4c <__aeabi_i2f+0x80>
 8000b46:	239f      	movs	r3, #159	; 0x9f
 8000b48:	4032      	ands	r2, r6
 8000b4a:	1a5b      	subs	r3, r3, r1
 8000b4c:	0192      	lsls	r2, r2, #6
 8000b4e:	0a55      	lsrs	r5, r2, #9
 8000b50:	b2d8      	uxtb	r0, r3
 8000b52:	e7d5      	b.n	8000b00 <__aeabi_i2f+0x34>
 8000b54:	fbffffff 	.word	0xfbffffff

08000b58 <__aeabi_ui2f>:
 8000b58:	b570      	push	{r4, r5, r6, lr}
 8000b5a:	1e05      	subs	r5, r0, #0
 8000b5c:	d00e      	beq.n	8000b7c <__aeabi_ui2f+0x24>
 8000b5e:	f000 f837 	bl	8000bd0 <__clzsi2>
 8000b62:	239e      	movs	r3, #158	; 0x9e
 8000b64:	0004      	movs	r4, r0
 8000b66:	1a1b      	subs	r3, r3, r0
 8000b68:	2b96      	cmp	r3, #150	; 0x96
 8000b6a:	dc0c      	bgt.n	8000b86 <__aeabi_ui2f+0x2e>
 8000b6c:	2808      	cmp	r0, #8
 8000b6e:	dd01      	ble.n	8000b74 <__aeabi_ui2f+0x1c>
 8000b70:	3c08      	subs	r4, #8
 8000b72:	40a5      	lsls	r5, r4
 8000b74:	026d      	lsls	r5, r5, #9
 8000b76:	0a6d      	lsrs	r5, r5, #9
 8000b78:	b2d8      	uxtb	r0, r3
 8000b7a:	e001      	b.n	8000b80 <__aeabi_ui2f+0x28>
 8000b7c:	2000      	movs	r0, #0
 8000b7e:	2500      	movs	r5, #0
 8000b80:	05c0      	lsls	r0, r0, #23
 8000b82:	4328      	orrs	r0, r5
 8000b84:	bd70      	pop	{r4, r5, r6, pc}
 8000b86:	2b99      	cmp	r3, #153	; 0x99
 8000b88:	dd09      	ble.n	8000b9e <__aeabi_ui2f+0x46>
 8000b8a:	0002      	movs	r2, r0
 8000b8c:	0029      	movs	r1, r5
 8000b8e:	321b      	adds	r2, #27
 8000b90:	4091      	lsls	r1, r2
 8000b92:	1e4a      	subs	r2, r1, #1
 8000b94:	4191      	sbcs	r1, r2
 8000b96:	2205      	movs	r2, #5
 8000b98:	1a12      	subs	r2, r2, r0
 8000b9a:	40d5      	lsrs	r5, r2
 8000b9c:	430d      	orrs	r5, r1
 8000b9e:	2c05      	cmp	r4, #5
 8000ba0:	dd01      	ble.n	8000ba6 <__aeabi_ui2f+0x4e>
 8000ba2:	1f62      	subs	r2, r4, #5
 8000ba4:	4095      	lsls	r5, r2
 8000ba6:	0029      	movs	r1, r5
 8000ba8:	4e08      	ldr	r6, [pc, #32]	; (8000bcc <__aeabi_ui2f+0x74>)
 8000baa:	4031      	ands	r1, r6
 8000bac:	076a      	lsls	r2, r5, #29
 8000bae:	d009      	beq.n	8000bc4 <__aeabi_ui2f+0x6c>
 8000bb0:	200f      	movs	r0, #15
 8000bb2:	4028      	ands	r0, r5
 8000bb4:	2804      	cmp	r0, #4
 8000bb6:	d005      	beq.n	8000bc4 <__aeabi_ui2f+0x6c>
 8000bb8:	3104      	adds	r1, #4
 8000bba:	014a      	lsls	r2, r1, #5
 8000bbc:	d502      	bpl.n	8000bc4 <__aeabi_ui2f+0x6c>
 8000bbe:	239f      	movs	r3, #159	; 0x9f
 8000bc0:	4031      	ands	r1, r6
 8000bc2:	1b1b      	subs	r3, r3, r4
 8000bc4:	0189      	lsls	r1, r1, #6
 8000bc6:	0a4d      	lsrs	r5, r1, #9
 8000bc8:	b2d8      	uxtb	r0, r3
 8000bca:	e7d9      	b.n	8000b80 <__aeabi_ui2f+0x28>
 8000bcc:	fbffffff 	.word	0xfbffffff

08000bd0 <__clzsi2>:
 8000bd0:	211c      	movs	r1, #28
 8000bd2:	2301      	movs	r3, #1
 8000bd4:	041b      	lsls	r3, r3, #16
 8000bd6:	4298      	cmp	r0, r3
 8000bd8:	d301      	bcc.n	8000bde <__clzsi2+0xe>
 8000bda:	0c00      	lsrs	r0, r0, #16
 8000bdc:	3910      	subs	r1, #16
 8000bde:	0a1b      	lsrs	r3, r3, #8
 8000be0:	4298      	cmp	r0, r3
 8000be2:	d301      	bcc.n	8000be8 <__clzsi2+0x18>
 8000be4:	0a00      	lsrs	r0, r0, #8
 8000be6:	3908      	subs	r1, #8
 8000be8:	091b      	lsrs	r3, r3, #4
 8000bea:	4298      	cmp	r0, r3
 8000bec:	d301      	bcc.n	8000bf2 <__clzsi2+0x22>
 8000bee:	0900      	lsrs	r0, r0, #4
 8000bf0:	3904      	subs	r1, #4
 8000bf2:	a202      	add	r2, pc, #8	; (adr r2, 8000bfc <__clzsi2+0x2c>)
 8000bf4:	5c10      	ldrb	r0, [r2, r0]
 8000bf6:	1840      	adds	r0, r0, r1
 8000bf8:	4770      	bx	lr
 8000bfa:	46c0      	nop			; (mov r8, r8)
 8000bfc:	02020304 	.word	0x02020304
 8000c00:	01010101 	.word	0x01010101
	...

08000c0c <__clzdi2>:
 8000c0c:	b510      	push	{r4, lr}
 8000c0e:	2900      	cmp	r1, #0
 8000c10:	d103      	bne.n	8000c1a <__clzdi2+0xe>
 8000c12:	f7ff ffdd 	bl	8000bd0 <__clzsi2>
 8000c16:	3020      	adds	r0, #32
 8000c18:	e002      	b.n	8000c20 <__clzdi2+0x14>
 8000c1a:	1c08      	adds	r0, r1, #0
 8000c1c:	f7ff ffd8 	bl	8000bd0 <__clzsi2>
 8000c20:	bd10      	pop	{r4, pc}
 8000c22:	46c0      	nop			; (mov r8, r8)

08000c24 <InputSDIO>:
**Name: 	vSpi3Init
**Func: 	Init Spi-3 Config
**Note:
**********************************************************/
void InputSDIO(void)
{
 8000c24:	b590      	push	{r4, r7, lr}
 8000c26:	b089      	sub	sp, #36	; 0x24
 8000c28:	af00      	add	r7, sp, #0


	GPIO_InitTypeDef GPIO_InitStruct = {0};
 8000c2a:	240c      	movs	r4, #12
 8000c2c:	193b      	adds	r3, r7, r4
 8000c2e:	0018      	movs	r0, r3
 8000c30:	2314      	movs	r3, #20
 8000c32:	001a      	movs	r2, r3
 8000c34:	2100      	movs	r1, #0
 8000c36:	f005 fde0 	bl	80067fa <memset>

	  /* GPIO Ports Clock Enable */
	  __HAL_RCC_GPIOH_CLK_ENABLE();
 8000c3a:	4b16      	ldr	r3, [pc, #88]	; (8000c94 <InputSDIO+0x70>)
 8000c3c:	6ada      	ldr	r2, [r3, #44]	; 0x2c
 8000c3e:	4b15      	ldr	r3, [pc, #84]	; (8000c94 <InputSDIO+0x70>)
 8000c40:	2180      	movs	r1, #128	; 0x80
 8000c42:	430a      	orrs	r2, r1
 8000c44:	62da      	str	r2, [r3, #44]	; 0x2c
 8000c46:	4b13      	ldr	r3, [pc, #76]	; (8000c94 <InputSDIO+0x70>)
 8000c48:	6adb      	ldr	r3, [r3, #44]	; 0x2c
 8000c4a:	2280      	movs	r2, #128	; 0x80
 8000c4c:	4013      	ands	r3, r2
 8000c4e:	60bb      	str	r3, [r7, #8]
 8000c50:	68bb      	ldr	r3, [r7, #8]
	  __HAL_RCC_GPIOA_CLK_ENABLE();
 8000c52:	4b10      	ldr	r3, [pc, #64]	; (8000c94 <InputSDIO+0x70>)
 8000c54:	6ada      	ldr	r2, [r3, #44]	; 0x2c
 8000c56:	4b0f      	ldr	r3, [pc, #60]	; (8000c94 <InputSDIO+0x70>)
 8000c58:	2101      	movs	r1, #1
 8000c5a:	430a      	orrs	r2, r1
 8000c5c:	62da      	str	r2, [r3, #44]	; 0x2c
 8000c5e:	4b0d      	ldr	r3, [pc, #52]	; (8000c94 <InputSDIO+0x70>)
 8000c60:	6adb      	ldr	r3, [r3, #44]	; 0x2c
 8000c62:	2201      	movs	r2, #1
 8000c64:	4013      	ands	r3, r2
 8000c66:	607b      	str	r3, [r7, #4]
 8000c68:	687b      	ldr	r3, [r7, #4]

	  /*Configure GPIO pin : GPO3_Pin */
	  GPIO_InitStruct.Pin = SDIO_Pin;
 8000c6a:	193b      	adds	r3, r7, r4
 8000c6c:	2280      	movs	r2, #128	; 0x80
 8000c6e:	00d2      	lsls	r2, r2, #3
 8000c70:	601a      	str	r2, [r3, #0]
	  GPIO_InitStruct.Mode = GPIO_MODE_INPUT;
 8000c72:	193b      	adds	r3, r7, r4
 8000c74:	2200      	movs	r2, #0
 8000c76:	605a      	str	r2, [r3, #4]
	  GPIO_InitStruct.Pull = GPIO_NOPULL;
 8000c78:	193b      	adds	r3, r7, r4
 8000c7a:	2200      	movs	r2, #0
 8000c7c:	609a      	str	r2, [r3, #8]
	  HAL_GPIO_Init(SDIO_GPIO_Port, &GPIO_InitStruct);
 8000c7e:	193a      	adds	r2, r7, r4
 8000c80:	23a0      	movs	r3, #160	; 0xa0
 8000c82:	05db      	lsls	r3, r3, #23
 8000c84:	0011      	movs	r1, r2
 8000c86:	0018      	movs	r0, r3
 8000c88:	f002 ff04 	bl	8003a94 <HAL_GPIO_Init>
}
 8000c8c:	46c0      	nop			; (mov r8, r8)
 8000c8e:	46bd      	mov	sp, r7
 8000c90:	b009      	add	sp, #36	; 0x24
 8000c92:	bd90      	pop	{r4, r7, pc}
 8000c94:	40021000 	.word	0x40021000

08000c98 <OutputSDIO>:
void OutputSDIO(){
 8000c98:	b590      	push	{r4, r7, lr}
 8000c9a:	b089      	sub	sp, #36	; 0x24
 8000c9c:	af00      	add	r7, sp, #0
	 GPIO_InitTypeDef GPIO_InitStruct = {0};
 8000c9e:	240c      	movs	r4, #12
 8000ca0:	193b      	adds	r3, r7, r4
 8000ca2:	0018      	movs	r0, r3
 8000ca4:	2314      	movs	r3, #20
 8000ca6:	001a      	movs	r2, r3
 8000ca8:	2100      	movs	r1, #0
 8000caa:	f005 fda6 	bl	80067fa <memset>

	  /* GPIO Ports Clock Enable */
	  __HAL_RCC_GPIOH_CLK_ENABLE();
 8000cae:	4b1c      	ldr	r3, [pc, #112]	; (8000d20 <OutputSDIO+0x88>)
 8000cb0:	6ada      	ldr	r2, [r3, #44]	; 0x2c
 8000cb2:	4b1b      	ldr	r3, [pc, #108]	; (8000d20 <OutputSDIO+0x88>)
 8000cb4:	2180      	movs	r1, #128	; 0x80
 8000cb6:	430a      	orrs	r2, r1
 8000cb8:	62da      	str	r2, [r3, #44]	; 0x2c
 8000cba:	4b19      	ldr	r3, [pc, #100]	; (8000d20 <OutputSDIO+0x88>)
 8000cbc:	6adb      	ldr	r3, [r3, #44]	; 0x2c
 8000cbe:	2280      	movs	r2, #128	; 0x80
 8000cc0:	4013      	ands	r3, r2
 8000cc2:	60bb      	str	r3, [r7, #8]
 8000cc4:	68bb      	ldr	r3, [r7, #8]
	  __HAL_RCC_GPIOA_CLK_ENABLE();
 8000cc6:	4b16      	ldr	r3, [pc, #88]	; (8000d20 <OutputSDIO+0x88>)
 8000cc8:	6ada      	ldr	r2, [r3, #44]	; 0x2c
 8000cca:	4b15      	ldr	r3, [pc, #84]	; (8000d20 <OutputSDIO+0x88>)
 8000ccc:	2101      	movs	r1, #1
 8000cce:	430a      	orrs	r2, r1
 8000cd0:	62da      	str	r2, [r3, #44]	; 0x2c
 8000cd2:	4b13      	ldr	r3, [pc, #76]	; (8000d20 <OutputSDIO+0x88>)
 8000cd4:	6adb      	ldr	r3, [r3, #44]	; 0x2c
 8000cd6:	2201      	movs	r2, #1
 8000cd8:	4013      	ands	r3, r2
 8000cda:	607b      	str	r3, [r7, #4]
 8000cdc:	687b      	ldr	r3, [r7, #4]

	  /*Configure GPIO pin Output Level */
	  HAL_GPIO_WritePin(SDIO_GPIO_Port, SDIO_Pin, GPIO_PIN_RESET);
 8000cde:	2380      	movs	r3, #128	; 0x80
 8000ce0:	00d9      	lsls	r1, r3, #3
 8000ce2:	23a0      	movs	r3, #160	; 0xa0
 8000ce4:	05db      	lsls	r3, r3, #23
 8000ce6:	2200      	movs	r2, #0
 8000ce8:	0018      	movs	r0, r3
 8000cea:	f003 f930 	bl	8003f4e <HAL_GPIO_WritePin>

	  /*Configure GPIO pins : CSB_Pin FCSB_Pin SCLK_Pin SDIO_Pin */
	  GPIO_InitStruct.Pin = SDIO_Pin;
 8000cee:	193b      	adds	r3, r7, r4
 8000cf0:	2280      	movs	r2, #128	; 0x80
 8000cf2:	00d2      	lsls	r2, r2, #3
 8000cf4:	601a      	str	r2, [r3, #0]
	  GPIO_InitStruct.Mode = GPIO_MODE_OUTPUT_PP;
 8000cf6:	193b      	adds	r3, r7, r4
 8000cf8:	2201      	movs	r2, #1
 8000cfa:	605a      	str	r2, [r3, #4]
	  GPIO_InitStruct.Pull = GPIO_NOPULL;
 8000cfc:	193b      	adds	r3, r7, r4
 8000cfe:	2200      	movs	r2, #0
 8000d00:	609a      	str	r2, [r3, #8]
	  GPIO_InitStruct.Speed = GPIO_SPEED_FREQ_LOW;
 8000d02:	193b      	adds	r3, r7, r4
 8000d04:	2200      	movs	r2, #0
 8000d06:	60da      	str	r2, [r3, #12]
	  HAL_GPIO_Init(GPIOA, &GPIO_InitStruct);
 8000d08:	193a      	adds	r2, r7, r4
 8000d0a:	23a0      	movs	r3, #160	; 0xa0
 8000d0c:	05db      	lsls	r3, r3, #23
 8000d0e:	0011      	movs	r1, r2
 8000d10:	0018      	movs	r0, r3
 8000d12:	f002 febf 	bl	8003a94 <HAL_GPIO_Init>


}
 8000d16:	46c0      	nop			; (mov r8, r8)
 8000d18:	46bd      	mov	sp, r7
 8000d1a:	b009      	add	sp, #36	; 0x24
 8000d1c:	bd90      	pop	{r4, r7, pc}
 8000d1e:	46c0      	nop			; (mov r8, r8)
 8000d20:	40021000 	.word	0x40021000

08000d24 <OutputSDCK>:

void OutputSDCK(void){
 8000d24:	b590      	push	{r4, r7, lr}
 8000d26:	b089      	sub	sp, #36	; 0x24
 8000d28:	af00      	add	r7, sp, #0

	  GPIO_InitTypeDef GPIO_InitStruct = {0};
 8000d2a:	240c      	movs	r4, #12
 8000d2c:	193b      	adds	r3, r7, r4
 8000d2e:	0018      	movs	r0, r3
 8000d30:	2314      	movs	r3, #20
 8000d32:	001a      	movs	r2, r3
 8000d34:	2100      	movs	r1, #0
 8000d36:	f005 fd60 	bl	80067fa <memset>

	  	  /* GPIO Ports Clock Enable */
	  	  __HAL_RCC_GPIOH_CLK_ENABLE();
 8000d3a:	4b1c      	ldr	r3, [pc, #112]	; (8000dac <OutputSDCK+0x88>)
 8000d3c:	6ada      	ldr	r2, [r3, #44]	; 0x2c
 8000d3e:	4b1b      	ldr	r3, [pc, #108]	; (8000dac <OutputSDCK+0x88>)
 8000d40:	2180      	movs	r1, #128	; 0x80
 8000d42:	430a      	orrs	r2, r1
 8000d44:	62da      	str	r2, [r3, #44]	; 0x2c
 8000d46:	4b19      	ldr	r3, [pc, #100]	; (8000dac <OutputSDCK+0x88>)
 8000d48:	6adb      	ldr	r3, [r3, #44]	; 0x2c
 8000d4a:	2280      	movs	r2, #128	; 0x80
 8000d4c:	4013      	ands	r3, r2
 8000d4e:	60bb      	str	r3, [r7, #8]
 8000d50:	68bb      	ldr	r3, [r7, #8]
	  	  __HAL_RCC_GPIOA_CLK_ENABLE();
 8000d52:	4b16      	ldr	r3, [pc, #88]	; (8000dac <OutputSDCK+0x88>)
 8000d54:	6ada      	ldr	r2, [r3, #44]	; 0x2c
 8000d56:	4b15      	ldr	r3, [pc, #84]	; (8000dac <OutputSDCK+0x88>)
 8000d58:	2101      	movs	r1, #1
 8000d5a:	430a      	orrs	r2, r1
 8000d5c:	62da      	str	r2, [r3, #44]	; 0x2c
 8000d5e:	4b13      	ldr	r3, [pc, #76]	; (8000dac <OutputSDCK+0x88>)
 8000d60:	6adb      	ldr	r3, [r3, #44]	; 0x2c
 8000d62:	2201      	movs	r2, #1
 8000d64:	4013      	ands	r3, r2
 8000d66:	607b      	str	r3, [r7, #4]
 8000d68:	687b      	ldr	r3, [r7, #4]

	  	  /*Configure GPIO pin Output Level */
	  	  HAL_GPIO_WritePin(SCLK_GPIO_Port, SCLK_Pin, GPIO_PIN_RESET);
 8000d6a:	2380      	movs	r3, #128	; 0x80
 8000d6c:	0099      	lsls	r1, r3, #2
 8000d6e:	23a0      	movs	r3, #160	; 0xa0
 8000d70:	05db      	lsls	r3, r3, #23
 8000d72:	2200      	movs	r2, #0
 8000d74:	0018      	movs	r0, r3
 8000d76:	f003 f8ea 	bl	8003f4e <HAL_GPIO_WritePin>

	  	  /*Configure GPIO pins : CSB_Pin FCSB_Pin SCLK_Pin SDIO_Pin */
	  	  GPIO_InitStruct.Pin = SCLK_Pin;
 8000d7a:	193b      	adds	r3, r7, r4
 8000d7c:	2280      	movs	r2, #128	; 0x80
 8000d7e:	0092      	lsls	r2, r2, #2
 8000d80:	601a      	str	r2, [r3, #0]
	  	  GPIO_InitStruct.Mode = GPIO_MODE_OUTPUT_PP;
 8000d82:	193b      	adds	r3, r7, r4
 8000d84:	2201      	movs	r2, #1
 8000d86:	605a      	str	r2, [r3, #4]
	  	  GPIO_InitStruct.Pull = GPIO_NOPULL;
 8000d88:	193b      	adds	r3, r7, r4
 8000d8a:	2200      	movs	r2, #0
 8000d8c:	609a      	str	r2, [r3, #8]
	  	  GPIO_InitStruct.Speed = GPIO_SPEED_FREQ_LOW;
 8000d8e:	193b      	adds	r3, r7, r4
 8000d90:	2200      	movs	r2, #0
 8000d92:	60da      	str	r2, [r3, #12]
	  	  HAL_GPIO_Init(GPIOA, &GPIO_InitStruct);
 8000d94:	193a      	adds	r2, r7, r4
 8000d96:	23a0      	movs	r3, #160	; 0xa0
 8000d98:	05db      	lsls	r3, r3, #23
 8000d9a:	0011      	movs	r1, r2
 8000d9c:	0018      	movs	r0, r3
 8000d9e:	f002 fe79 	bl	8003a94 <HAL_GPIO_Init>

}
 8000da2:	46c0      	nop			; (mov r8, r8)
 8000da4:	46bd      	mov	sp, r7
 8000da6:	b009      	add	sp, #36	; 0x24
 8000da8:	bd90      	pop	{r4, r7, pc}
 8000daa:	46c0      	nop			; (mov r8, r8)
 8000dac:	40021000 	.word	0x40021000

08000db0 <OutputFCSB>:

void OutputFCSB(void){
 8000db0:	b590      	push	{r4, r7, lr}
 8000db2:	b089      	sub	sp, #36	; 0x24
 8000db4:	af00      	add	r7, sp, #0

	GPIO_InitTypeDef GPIO_InitStruct = {0};
 8000db6:	240c      	movs	r4, #12
 8000db8:	193b      	adds	r3, r7, r4
 8000dba:	0018      	movs	r0, r3
 8000dbc:	2314      	movs	r3, #20
 8000dbe:	001a      	movs	r2, r3
 8000dc0:	2100      	movs	r1, #0
 8000dc2:	f005 fd1a 	bl	80067fa <memset>

		  	  /* GPIO Ports Clock Enable */
		  	  __HAL_RCC_GPIOH_CLK_ENABLE();
 8000dc6:	4b1b      	ldr	r3, [pc, #108]	; (8000e34 <OutputFCSB+0x84>)
 8000dc8:	6ada      	ldr	r2, [r3, #44]	; 0x2c
 8000dca:	4b1a      	ldr	r3, [pc, #104]	; (8000e34 <OutputFCSB+0x84>)
 8000dcc:	2180      	movs	r1, #128	; 0x80
 8000dce:	430a      	orrs	r2, r1
 8000dd0:	62da      	str	r2, [r3, #44]	; 0x2c
 8000dd2:	4b18      	ldr	r3, [pc, #96]	; (8000e34 <OutputFCSB+0x84>)
 8000dd4:	6adb      	ldr	r3, [r3, #44]	; 0x2c
 8000dd6:	2280      	movs	r2, #128	; 0x80
 8000dd8:	4013      	ands	r3, r2
 8000dda:	60bb      	str	r3, [r7, #8]
 8000ddc:	68bb      	ldr	r3, [r7, #8]
		  	  __HAL_RCC_GPIOA_CLK_ENABLE();
 8000dde:	4b15      	ldr	r3, [pc, #84]	; (8000e34 <OutputFCSB+0x84>)
 8000de0:	6ada      	ldr	r2, [r3, #44]	; 0x2c
 8000de2:	4b14      	ldr	r3, [pc, #80]	; (8000e34 <OutputFCSB+0x84>)
 8000de4:	2101      	movs	r1, #1
 8000de6:	430a      	orrs	r2, r1
 8000de8:	62da      	str	r2, [r3, #44]	; 0x2c
 8000dea:	4b12      	ldr	r3, [pc, #72]	; (8000e34 <OutputFCSB+0x84>)
 8000dec:	6adb      	ldr	r3, [r3, #44]	; 0x2c
 8000dee:	2201      	movs	r2, #1
 8000df0:	4013      	ands	r3, r2
 8000df2:	607b      	str	r3, [r7, #4]
 8000df4:	687b      	ldr	r3, [r7, #4]

	  /*Configure GPIO pin Output Level */
	HAL_GPIO_WritePin(FCSB_GPIO_Port, FCSB_Pin, GPIO_PIN_RESET);
 8000df6:	23a0      	movs	r3, #160	; 0xa0
 8000df8:	05db      	lsls	r3, r3, #23
 8000dfa:	2200      	movs	r2, #0
 8000dfc:	2104      	movs	r1, #4
 8000dfe:	0018      	movs	r0, r3
 8000e00:	f003 f8a5 	bl	8003f4e <HAL_GPIO_WritePin>
  	GPIO_InitStruct.Pin = FCSB_Pin;
 8000e04:	0021      	movs	r1, r4
 8000e06:	187b      	adds	r3, r7, r1
 8000e08:	2204      	movs	r2, #4
 8000e0a:	601a      	str	r2, [r3, #0]
  	GPIO_InitStruct.Mode = GPIO_MODE_OUTPUT_PP;
 8000e0c:	187b      	adds	r3, r7, r1
 8000e0e:	2201      	movs	r2, #1
 8000e10:	605a      	str	r2, [r3, #4]
  	GPIO_InitStruct.Pull = GPIO_NOPULL;
 8000e12:	187b      	adds	r3, r7, r1
 8000e14:	2200      	movs	r2, #0
 8000e16:	609a      	str	r2, [r3, #8]
  	GPIO_InitStruct.Speed = GPIO_SPEED_FREQ_LOW;
 8000e18:	187b      	adds	r3, r7, r1
 8000e1a:	2200      	movs	r2, #0
 8000e1c:	60da      	str	r2, [r3, #12]
  	HAL_GPIO_Init(GPIOA, &GPIO_InitStruct);
 8000e1e:	187a      	adds	r2, r7, r1
 8000e20:	23a0      	movs	r3, #160	; 0xa0
 8000e22:	05db      	lsls	r3, r3, #23
 8000e24:	0011      	movs	r1, r2
 8000e26:	0018      	movs	r0, r3
 8000e28:	f002 fe34 	bl	8003a94 <HAL_GPIO_Init>


}
 8000e2c:	46c0      	nop			; (mov r8, r8)
 8000e2e:	46bd      	mov	sp, r7
 8000e30:	b009      	add	sp, #36	; 0x24
 8000e32:	bd90      	pop	{r4, r7, pc}
 8000e34:	40021000 	.word	0x40021000

08000e38 <OutputCSB>:

void OutputCSB(void){
 8000e38:	b590      	push	{r4, r7, lr}
 8000e3a:	b089      	sub	sp, #36	; 0x24
 8000e3c:	af00      	add	r7, sp, #0
	GPIO_InitTypeDef GPIO_InitStruct = {0};
 8000e3e:	240c      	movs	r4, #12
 8000e40:	193b      	adds	r3, r7, r4
 8000e42:	0018      	movs	r0, r3
 8000e44:	2314      	movs	r3, #20
 8000e46:	001a      	movs	r2, r3
 8000e48:	2100      	movs	r1, #0
 8000e4a:	f005 fcd6 	bl	80067fa <memset>

	/* GPIO Ports Clock Enable */
    __HAL_RCC_GPIOH_CLK_ENABLE();
 8000e4e:	4b1b      	ldr	r3, [pc, #108]	; (8000ebc <OutputCSB+0x84>)
 8000e50:	6ada      	ldr	r2, [r3, #44]	; 0x2c
 8000e52:	4b1a      	ldr	r3, [pc, #104]	; (8000ebc <OutputCSB+0x84>)
 8000e54:	2180      	movs	r1, #128	; 0x80
 8000e56:	430a      	orrs	r2, r1
 8000e58:	62da      	str	r2, [r3, #44]	; 0x2c
 8000e5a:	4b18      	ldr	r3, [pc, #96]	; (8000ebc <OutputCSB+0x84>)
 8000e5c:	6adb      	ldr	r3, [r3, #44]	; 0x2c
 8000e5e:	2280      	movs	r2, #128	; 0x80
 8000e60:	4013      	ands	r3, r2
 8000e62:	60bb      	str	r3, [r7, #8]
 8000e64:	68bb      	ldr	r3, [r7, #8]
	__HAL_RCC_GPIOA_CLK_ENABLE();
 8000e66:	4b15      	ldr	r3, [pc, #84]	; (8000ebc <OutputCSB+0x84>)
 8000e68:	6ada      	ldr	r2, [r3, #44]	; 0x2c
 8000e6a:	4b14      	ldr	r3, [pc, #80]	; (8000ebc <OutputCSB+0x84>)
 8000e6c:	2101      	movs	r1, #1
 8000e6e:	430a      	orrs	r2, r1
 8000e70:	62da      	str	r2, [r3, #44]	; 0x2c
 8000e72:	4b12      	ldr	r3, [pc, #72]	; (8000ebc <OutputCSB+0x84>)
 8000e74:	6adb      	ldr	r3, [r3, #44]	; 0x2c
 8000e76:	2201      	movs	r2, #1
 8000e78:	4013      	ands	r3, r2
 8000e7a:	607b      	str	r3, [r7, #4]
 8000e7c:	687b      	ldr	r3, [r7, #4]

	  /*Configure GPIO pin Output Level */
	HAL_GPIO_WritePin(CSB_GPIO_Port, CSB_Pin, GPIO_PIN_RESET);
 8000e7e:	23a0      	movs	r3, #160	; 0xa0
 8000e80:	05db      	lsls	r3, r3, #23
 8000e82:	2200      	movs	r2, #0
 8000e84:	2102      	movs	r1, #2
 8000e86:	0018      	movs	r0, r3
 8000e88:	f003 f861 	bl	8003f4e <HAL_GPIO_WritePin>
  	GPIO_InitStruct.Pin = CSB_Pin;
 8000e8c:	0021      	movs	r1, r4
 8000e8e:	187b      	adds	r3, r7, r1
 8000e90:	2202      	movs	r2, #2
 8000e92:	601a      	str	r2, [r3, #0]
  	GPIO_InitStruct.Mode = GPIO_MODE_OUTPUT_PP;
 8000e94:	187b      	adds	r3, r7, r1
 8000e96:	2201      	movs	r2, #1
 8000e98:	605a      	str	r2, [r3, #4]
  	GPIO_InitStruct.Pull = GPIO_NOPULL;
 8000e9a:	187b      	adds	r3, r7, r1
 8000e9c:	2200      	movs	r2, #0
 8000e9e:	609a      	str	r2, [r3, #8]
  	GPIO_InitStruct.Speed = GPIO_SPEED_FREQ_LOW;
 8000ea0:	187b      	adds	r3, r7, r1
 8000ea2:	2200      	movs	r2, #0
 8000ea4:	60da      	str	r2, [r3, #12]
  	HAL_GPIO_Init(GPIOA, &GPIO_InitStruct);
 8000ea6:	187a      	adds	r2, r7, r1
 8000ea8:	23a0      	movs	r3, #160	; 0xa0
 8000eaa:	05db      	lsls	r3, r3, #23
 8000eac:	0011      	movs	r1, r2
 8000eae:	0018      	movs	r0, r3
 8000eb0:	f002 fdf0 	bl	8003a94 <HAL_GPIO_Init>
}
 8000eb4:	46c0      	nop			; (mov r8, r8)
 8000eb6:	46bd      	mov	sp, r7
 8000eb8:	b009      	add	sp, #36	; 0x24
 8000eba:	bd90      	pop	{r4, r7, pc}
 8000ebc:	40021000 	.word	0x40021000

08000ec0 <_delay_us>:
void _delay_us(void){
 8000ec0:	b580      	push	{r7, lr}
 8000ec2:	af00      	add	r7, sp, #0
 	// HAL_UART_Transmit( &hlpuart1, (uint8_t *)"giriyor\r\n",9, 100);

	//
	  	//  }
	 //HAL_Delay(1);
}
 8000ec4:	46c0      	nop			; (mov r8, r8)
 8000ec6:	46bd      	mov	sp, r7
 8000ec8:	bd80      	pop	{r7, pc}

08000eca <vSpi3Init>:
void vSpi3Init(void)
{
 8000eca:	b580      	push	{r7, lr}
 8000ecc:	af00      	add	r7, sp, #0
	OutputCSB();
 8000ece:	f7ff ffb3 	bl	8000e38 <OutputCSB>
	OutputFCSB();
 8000ed2:	f7ff ff6d 	bl	8000db0 <OutputFCSB>
	OutputSDCK();
 8000ed6:	f7ff ff25 	bl	8000d24 <OutputSDCK>
	OutputSDIO();
 8000eda:	f7ff fedd 	bl	8000c98 <OutputSDIO>

	SetCSB();
 8000ede:	23a0      	movs	r3, #160	; 0xa0
 8000ee0:	05db      	lsls	r3, r3, #23
 8000ee2:	2201      	movs	r2, #1
 8000ee4:	2102      	movs	r1, #2
 8000ee6:	0018      	movs	r0, r3
 8000ee8:	f003 f831 	bl	8003f4e <HAL_GPIO_WritePin>
	SetFCSB();
 8000eec:	23a0      	movs	r3, #160	; 0xa0
 8000eee:	05db      	lsls	r3, r3, #23
 8000ef0:	2201      	movs	r2, #1
 8000ef2:	2104      	movs	r1, #4
 8000ef4:	0018      	movs	r0, r3
 8000ef6:	f003 f82a 	bl	8003f4e <HAL_GPIO_WritePin>
	SetSDIO();
 8000efa:	2380      	movs	r3, #128	; 0x80
 8000efc:	00d9      	lsls	r1, r3, #3
 8000efe:	23a0      	movs	r3, #160	; 0xa0
 8000f00:	05db      	lsls	r3, r3, #23
 8000f02:	2201      	movs	r2, #1
 8000f04:	0018      	movs	r0, r3
 8000f06:	f003 f822 	bl	8003f4e <HAL_GPIO_WritePin>
	ClrSDCK();
 8000f0a:	2380      	movs	r3, #128	; 0x80
 8000f0c:	0099      	lsls	r1, r3, #2
 8000f0e:	23a0      	movs	r3, #160	; 0xa0
 8000f10:	05db      	lsls	r3, r3, #23
 8000f12:	2200      	movs	r2, #0
 8000f14:	0018      	movs	r0, r3
 8000f16:	f003 f81a 	bl	8003f4e <HAL_GPIO_WritePin>
}
 8000f1a:	46c0      	nop			; (mov r8, r8)
 8000f1c:	46bd      	mov	sp, r7
 8000f1e:	bd80      	pop	{r7, pc}

08000f20 <vSpi3WriteByte>:
**Func: 	SPI-3 send one byte
**Input:
**Output:  
**********************************************************/
void vSpi3WriteByte(byte dat)
{
 8000f20:	b580      	push	{r7, lr}
 8000f22:	b084      	sub	sp, #16
 8000f24:	af00      	add	r7, sp, #0
 8000f26:	0002      	movs	r2, r0
 8000f28:	1dfb      	adds	r3, r7, #7
 8000f2a:	701a      	strb	r2, [r3, #0]

 	byte bitcnt;
 
	SetFCSB();				//FCSB = 1;
 8000f2c:	23a0      	movs	r3, #160	; 0xa0
 8000f2e:	05db      	lsls	r3, r3, #23
 8000f30:	2201      	movs	r2, #1
 8000f32:	2104      	movs	r1, #4
 8000f34:	0018      	movs	r0, r3
 8000f36:	f003 f80a 	bl	8003f4e <HAL_GPIO_WritePin>
 
 	OutputSDIO();			//SDA output mode
 8000f3a:	f7ff fead 	bl	8000c98 <OutputSDIO>
 	SetSDIO();				//    output 1
 8000f3e:	2380      	movs	r3, #128	; 0x80
 8000f40:	00d9      	lsls	r1, r3, #3
 8000f42:	23a0      	movs	r3, #160	; 0xa0
 8000f44:	05db      	lsls	r3, r3, #23
 8000f46:	2201      	movs	r2, #1
 8000f48:	0018      	movs	r0, r3
 8000f4a:	f003 f800 	bl	8003f4e <HAL_GPIO_WritePin>
 
 	ClrSDCK();
 8000f4e:	2380      	movs	r3, #128	; 0x80
 8000f50:	0099      	lsls	r1, r3, #2
 8000f52:	23a0      	movs	r3, #160	; 0xa0
 8000f54:	05db      	lsls	r3, r3, #23
 8000f56:	2200      	movs	r2, #0
 8000f58:	0018      	movs	r0, r3
 8000f5a:	f002 fff8 	bl	8003f4e <HAL_GPIO_WritePin>
 	ClrCSB();
 8000f5e:	23a0      	movs	r3, #160	; 0xa0
 8000f60:	05db      	lsls	r3, r3, #23
 8000f62:	2200      	movs	r2, #0
 8000f64:	2102      	movs	r1, #2
 8000f66:	0018      	movs	r0, r3
 8000f68:	f002 fff1 	bl	8003f4e <HAL_GPIO_WritePin>

 	for(bitcnt=8; bitcnt!=0; bitcnt--)
 8000f6c:	230f      	movs	r3, #15
 8000f6e:	18fb      	adds	r3, r7, r3
 8000f70:	2208      	movs	r2, #8
 8000f72:	701a      	strb	r2, [r3, #0]
 8000f74:	e034      	b.n	8000fe0 <vSpi3WriteByte+0xc0>
 		{
		ClrSDCK();
 8000f76:	2380      	movs	r3, #128	; 0x80
 8000f78:	0099      	lsls	r1, r3, #2
 8000f7a:	23a0      	movs	r3, #160	; 0xa0
 8000f7c:	05db      	lsls	r3, r3, #23
 8000f7e:	2200      	movs	r2, #0
 8000f80:	0018      	movs	r0, r3
 8000f82:	f002 ffe4 	bl	8003f4e <HAL_GPIO_WritePin>
		_delay_us(); //_delay_us(1);
 8000f86:	f7ff ff9b 	bl	8000ec0 <_delay_us>
 		if(dat&0x80)
 8000f8a:	1dfb      	adds	r3, r7, #7
 8000f8c:	781b      	ldrb	r3, [r3, #0]
 8000f8e:	b25b      	sxtb	r3, r3
 8000f90:	2b00      	cmp	r3, #0
 8000f92:	da08      	bge.n	8000fa6 <vSpi3WriteByte+0x86>
 			SetSDIO();
 8000f94:	2380      	movs	r3, #128	; 0x80
 8000f96:	00d9      	lsls	r1, r3, #3
 8000f98:	23a0      	movs	r3, #160	; 0xa0
 8000f9a:	05db      	lsls	r3, r3, #23
 8000f9c:	2201      	movs	r2, #1
 8000f9e:	0018      	movs	r0, r3
 8000fa0:	f002 ffd5 	bl	8003f4e <HAL_GPIO_WritePin>
 8000fa4:	e007      	b.n	8000fb6 <vSpi3WriteByte+0x96>
 		else
 			ClrSDIO();
 8000fa6:	2380      	movs	r3, #128	; 0x80
 8000fa8:	00d9      	lsls	r1, r3, #3
 8000faa:	23a0      	movs	r3, #160	; 0xa0
 8000fac:	05db      	lsls	r3, r3, #23
 8000fae:	2200      	movs	r2, #0
 8000fb0:	0018      	movs	r0, r3
 8000fb2:	f002 ffcc 	bl	8003f4e <HAL_GPIO_WritePin>
		SetSDCK();
 8000fb6:	2380      	movs	r3, #128	; 0x80
 8000fb8:	0099      	lsls	r1, r3, #2
 8000fba:	23a0      	movs	r3, #160	; 0xa0
 8000fbc:	05db      	lsls	r3, r3, #23
 8000fbe:	2201      	movs	r2, #1
 8000fc0:	0018      	movs	r0, r3
 8000fc2:	f002 ffc4 	bl	8003f4e <HAL_GPIO_WritePin>
 		dat <<= 1;
 8000fc6:	1dfa      	adds	r2, r7, #7
 8000fc8:	1dfb      	adds	r3, r7, #7
 8000fca:	781b      	ldrb	r3, [r3, #0]
 8000fcc:	18db      	adds	r3, r3, r3
 8000fce:	7013      	strb	r3, [r2, #0]
 		_delay_us(); //_delay_us(1);
 8000fd0:	f7ff ff76 	bl	8000ec0 <_delay_us>
 	for(bitcnt=8; bitcnt!=0; bitcnt--)
 8000fd4:	210f      	movs	r1, #15
 8000fd6:	187b      	adds	r3, r7, r1
 8000fd8:	781a      	ldrb	r2, [r3, #0]
 8000fda:	187b      	adds	r3, r7, r1
 8000fdc:	3a01      	subs	r2, #1
 8000fde:	701a      	strb	r2, [r3, #0]
 8000fe0:	230f      	movs	r3, #15
 8000fe2:	18fb      	adds	r3, r7, r3
 8000fe4:	781b      	ldrb	r3, [r3, #0]
 8000fe6:	2b00      	cmp	r3, #0
 8000fe8:	d1c5      	bne.n	8000f76 <vSpi3WriteByte+0x56>
 		}
 	ClrSDCK();
 8000fea:	2380      	movs	r3, #128	; 0x80
 8000fec:	0099      	lsls	r1, r3, #2
 8000fee:	23a0      	movs	r3, #160	; 0xa0
 8000ff0:	05db      	lsls	r3, r3, #23
 8000ff2:	2200      	movs	r2, #0
 8000ff4:	0018      	movs	r0, r3
 8000ff6:	f002 ffaa 	bl	8003f4e <HAL_GPIO_WritePin>
 	SetSDIO();
 8000ffa:	2380      	movs	r3, #128	; 0x80
 8000ffc:	00d9      	lsls	r1, r3, #3
 8000ffe:	23a0      	movs	r3, #160	; 0xa0
 8001000:	05db      	lsls	r3, r3, #23
 8001002:	2201      	movs	r2, #1
 8001004:	0018      	movs	r0, r3
 8001006:	f002 ffa2 	bl	8003f4e <HAL_GPIO_WritePin>
}
 800100a:	46c0      	nop			; (mov r8, r8)
 800100c:	46bd      	mov	sp, r7
 800100e:	b004      	add	sp, #16
 8001010:	bd80      	pop	{r7, pc}

08001012 <bSpi3ReadByte>:
**Func: 	SPI-3 read one byte
**Input:
**Output:  
**********************************************************/
byte bSpi3ReadByte(void)
{
 8001012:	b580      	push	{r7, lr}
 8001014:	b082      	sub	sp, #8
 8001016:	af00      	add	r7, sp, #0
	byte RdPara = 0;
 8001018:	1dfb      	adds	r3, r7, #7
 800101a:	2200      	movs	r2, #0
 800101c:	701a      	strb	r2, [r3, #0]
 	byte bitcnt;
  
 	ClrCSB();
 800101e:	23a0      	movs	r3, #160	; 0xa0
 8001020:	05db      	lsls	r3, r3, #23
 8001022:	2200      	movs	r2, #0
 8001024:	2102      	movs	r1, #2
 8001026:	0018      	movs	r0, r3
 8001028:	f002 ff91 	bl	8003f4e <HAL_GPIO_WritePin>
 	InputSDIO();
 800102c:	f7ff fdfa 	bl	8000c24 <InputSDIO>

 	for(bitcnt=8; bitcnt!=0; bitcnt--)
 8001030:	1dbb      	adds	r3, r7, #6
 8001032:	2208      	movs	r2, #8
 8001034:	701a      	strb	r2, [r3, #0]
 8001036:	e033      	b.n	80010a0 <bSpi3ReadByte+0x8e>
 		{
 		ClrSDCK();
 8001038:	2380      	movs	r3, #128	; 0x80
 800103a:	0099      	lsls	r1, r3, #2
 800103c:	23a0      	movs	r3, #160	; 0xa0
 800103e:	05db      	lsls	r3, r3, #23
 8001040:	2200      	movs	r2, #0
 8001042:	0018      	movs	r0, r3
 8001044:	f002 ff83 	bl	8003f4e <HAL_GPIO_WritePin>
 		RdPara <<= 1;
 8001048:	1dfa      	adds	r2, r7, #7
 800104a:	1dfb      	adds	r3, r7, #7
 800104c:	781b      	ldrb	r3, [r3, #0]
 800104e:	18db      	adds	r3, r3, r3
 8001050:	7013      	strb	r3, [r2, #0]
 		_delay_us(); //_delay_us(1);
 8001052:	f7ff ff35 	bl	8000ec0 <_delay_us>
 		SetSDCK();
 8001056:	2380      	movs	r3, #128	; 0x80
 8001058:	0099      	lsls	r1, r3, #2
 800105a:	23a0      	movs	r3, #160	; 0xa0
 800105c:	05db      	lsls	r3, r3, #23
 800105e:	2201      	movs	r2, #1
 8001060:	0018      	movs	r0, r3
 8001062:	f002 ff74 	bl	8003f4e <HAL_GPIO_WritePin>
 		_delay_us(); //_delay_us(1);
 8001066:	f7ff ff2b 	bl	8000ec0 <_delay_us>

 		if(SDIO_H())
 800106a:	2380      	movs	r3, #128	; 0x80
 800106c:	00da      	lsls	r2, r3, #3
 800106e:	23a0      	movs	r3, #160	; 0xa0
 8001070:	05db      	lsls	r3, r3, #23
 8001072:	0011      	movs	r1, r2
 8001074:	0018      	movs	r0, r3
 8001076:	f002 ff4d 	bl	8003f14 <HAL_GPIO_ReadPin>
 800107a:	0003      	movs	r3, r0
 800107c:	2b01      	cmp	r3, #1
 800107e:	d106      	bne.n	800108e <bSpi3ReadByte+0x7c>
 			RdPara |= 0x01;
 8001080:	1dfb      	adds	r3, r7, #7
 8001082:	1dfa      	adds	r2, r7, #7
 8001084:	7812      	ldrb	r2, [r2, #0]
 8001086:	2101      	movs	r1, #1
 8001088:	430a      	orrs	r2, r1
 800108a:	701a      	strb	r2, [r3, #0]
 800108c:	e003      	b.n	8001096 <bSpi3ReadByte+0x84>
 		else
 			RdPara |= 0x00;
 800108e:	1dfb      	adds	r3, r7, #7
 8001090:	1dfa      	adds	r2, r7, #7
 8001092:	7812      	ldrb	r2, [r2, #0]
 8001094:	701a      	strb	r2, [r3, #0]
 	for(bitcnt=8; bitcnt!=0; bitcnt--)
 8001096:	1dbb      	adds	r3, r7, #6
 8001098:	781a      	ldrb	r2, [r3, #0]
 800109a:	1dbb      	adds	r3, r7, #6
 800109c:	3a01      	subs	r2, #1
 800109e:	701a      	strb	r2, [r3, #0]
 80010a0:	1dbb      	adds	r3, r7, #6
 80010a2:	781b      	ldrb	r3, [r3, #0]
 80010a4:	2b00      	cmp	r3, #0
 80010a6:	d1c7      	bne.n	8001038 <bSpi3ReadByte+0x26>
 		}
 	ClrSDCK();
 80010a8:	2380      	movs	r3, #128	; 0x80
 80010aa:	0099      	lsls	r1, r3, #2
 80010ac:	23a0      	movs	r3, #160	; 0xa0
 80010ae:	05db      	lsls	r3, r3, #23
 80010b0:	2200      	movs	r2, #0
 80010b2:	0018      	movs	r0, r3
 80010b4:	f002 ff4b 	bl	8003f4e <HAL_GPIO_WritePin>
 	OutputSDIO();
 80010b8:	f7ff fdee 	bl	8000c98 <OutputSDIO>
 	SetSDIO();
 80010bc:	2380      	movs	r3, #128	; 0x80
 80010be:	00d9      	lsls	r1, r3, #3
 80010c0:	23a0      	movs	r3, #160	; 0xa0
 80010c2:	05db      	lsls	r3, r3, #23
 80010c4:	2201      	movs	r2, #1
 80010c6:	0018      	movs	r0, r3
 80010c8:	f002 ff41 	bl	8003f4e <HAL_GPIO_WritePin>
 	SetCSB();
 80010cc:	23a0      	movs	r3, #160	; 0xa0
 80010ce:	05db      	lsls	r3, r3, #23
 80010d0:	2201      	movs	r2, #1
 80010d2:	2102      	movs	r1, #2
 80010d4:	0018      	movs	r0, r3
 80010d6:	f002 ff3a 	bl	8003f4e <HAL_GPIO_WritePin>
 	return(RdPara);
 80010da:	1dfb      	adds	r3, r7, #7
 80010dc:	781b      	ldrb	r3, [r3, #0]
}
 80010de:	0018      	movs	r0, r3
 80010e0:	46bd      	mov	sp, r7
 80010e2:	b002      	add	sp, #8
 80010e4:	bd80      	pop	{r7, pc}

080010e6 <vSpi3Write>:
**Func: 	SPI Write One word
**Input: 	Write word
**Output:	none
**********************************************************/
void vSpi3Write(word dat)
{
 80010e6:	b580      	push	{r7, lr}
 80010e8:	b082      	sub	sp, #8
 80010ea:	af00      	add	r7, sp, #0
 80010ec:	6078      	str	r0, [r7, #4]
 	vSpi3WriteByte((byte)(dat>>8)&0x7F);
 80010ee:	687b      	ldr	r3, [r7, #4]
 80010f0:	0a1b      	lsrs	r3, r3, #8
 80010f2:	b2db      	uxtb	r3, r3
 80010f4:	227f      	movs	r2, #127	; 0x7f
 80010f6:	4013      	ands	r3, r2
 80010f8:	b2db      	uxtb	r3, r3
 80010fa:	0018      	movs	r0, r3
 80010fc:	f7ff ff10 	bl	8000f20 <vSpi3WriteByte>
 	vSpi3WriteByte((byte)dat);
 8001100:	687b      	ldr	r3, [r7, #4]
 8001102:	b2db      	uxtb	r3, r3
 8001104:	0018      	movs	r0, r3
 8001106:	f7ff ff0b 	bl	8000f20 <vSpi3WriteByte>
 	SetCSB();
 800110a:	23a0      	movs	r3, #160	; 0xa0
 800110c:	05db      	lsls	r3, r3, #23
 800110e:	2201      	movs	r2, #1
 8001110:	2102      	movs	r1, #2
 8001112:	0018      	movs	r0, r3
 8001114:	f002 ff1b 	bl	8003f4e <HAL_GPIO_WritePin>
}
 8001118:	46c0      	nop			; (mov r8, r8)
 800111a:	46bd      	mov	sp, r7
 800111c:	b002      	add	sp, #8
 800111e:	bd80      	pop	{r7, pc}

08001120 <bSpi3Read>:
**Func: 	SPI-3 Read One byte
**Input: 	readout addresss
**Output:	readout byte
**********************************************************/
byte bSpi3Read(byte addr)
{
 8001120:	b580      	push	{r7, lr}
 8001122:	b082      	sub	sp, #8
 8001124:	af00      	add	r7, sp, #0
 8001126:	0002      	movs	r2, r0
 8001128:	1dfb      	adds	r3, r7, #7
 800112a:	701a      	strb	r2, [r3, #0]
  	vSpi3WriteByte(addr|0x80);
 800112c:	1dfb      	adds	r3, r7, #7
 800112e:	781b      	ldrb	r3, [r3, #0]
 8001130:	2280      	movs	r2, #128	; 0x80
 8001132:	4252      	negs	r2, r2
 8001134:	4313      	orrs	r3, r2
 8001136:	b2db      	uxtb	r3, r3
 8001138:	0018      	movs	r0, r3
 800113a:	f7ff fef1 	bl	8000f20 <vSpi3WriteByte>
 	return(bSpi3ReadByte());
 800113e:	f7ff ff68 	bl	8001012 <bSpi3ReadByte>
 8001142:	0003      	movs	r3, r0
}
 8001144:	0018      	movs	r0, r3
 8001146:	46bd      	mov	sp, r7
 8001148:	b002      	add	sp, #8
 800114a:	bd80      	pop	{r7, pc}

0800114c <vSpi3WriteFIFO>:
**Func: 	SPI-3 send one byte to FIFO
**Input: 	one byte buffer
**Output:	none
**********************************************************/
void vSpi3WriteFIFO(byte dat)
{
 800114c:	b580      	push	{r7, lr}
 800114e:	b084      	sub	sp, #16
 8001150:	af00      	add	r7, sp, #0
 8001152:	0002      	movs	r2, r0
 8001154:	1dfb      	adds	r3, r7, #7
 8001156:	701a      	strb	r2, [r3, #0]
 	byte bitcnt;
 
 	SetCSB();
 8001158:	23a0      	movs	r3, #160	; 0xa0
 800115a:	05db      	lsls	r3, r3, #23
 800115c:	2201      	movs	r2, #1
 800115e:	2102      	movs	r1, #2
 8001160:	0018      	movs	r0, r3
 8001162:	f002 fef4 	bl	8003f4e <HAL_GPIO_WritePin>
	OutputSDIO();
 8001166:	f7ff fd97 	bl	8000c98 <OutputSDIO>
	ClrSDCK();
 800116a:	2380      	movs	r3, #128	; 0x80
 800116c:	0099      	lsls	r1, r3, #2
 800116e:	23a0      	movs	r3, #160	; 0xa0
 8001170:	05db      	lsls	r3, r3, #23
 8001172:	2200      	movs	r2, #0
 8001174:	0018      	movs	r0, r3
 8001176:	f002 feea 	bl	8003f4e <HAL_GPIO_WritePin>
 	ClrFCSB();			//FCSB = 0
 800117a:	23a0      	movs	r3, #160	; 0xa0
 800117c:	05db      	lsls	r3, r3, #23
 800117e:	2200      	movs	r2, #0
 8001180:	2104      	movs	r1, #4
 8001182:	0018      	movs	r0, r3
 8001184:	f002 fee3 	bl	8003f4e <HAL_GPIO_WritePin>
	for(bitcnt=8; bitcnt!=0; bitcnt--)
 8001188:	230f      	movs	r3, #15
 800118a:	18fb      	adds	r3, r7, r3
 800118c:	2208      	movs	r2, #8
 800118e:	701a      	strb	r2, [r3, #0]
 8001190:	e034      	b.n	80011fc <vSpi3WriteFIFO+0xb0>
 		{
 		ClrSDCK();
 8001192:	2380      	movs	r3, #128	; 0x80
 8001194:	0099      	lsls	r1, r3, #2
 8001196:	23a0      	movs	r3, #160	; 0xa0
 8001198:	05db      	lsls	r3, r3, #23
 800119a:	2200      	movs	r2, #0
 800119c:	0018      	movs	r0, r3
 800119e:	f002 fed6 	bl	8003f4e <HAL_GPIO_WritePin>

 		if(dat&0x80)
 80011a2:	1dfb      	adds	r3, r7, #7
 80011a4:	781b      	ldrb	r3, [r3, #0]
 80011a6:	b25b      	sxtb	r3, r3
 80011a8:	2b00      	cmp	r3, #0
 80011aa:	da08      	bge.n	80011be <vSpi3WriteFIFO+0x72>
			SetSDIO();
 80011ac:	2380      	movs	r3, #128	; 0x80
 80011ae:	00d9      	lsls	r1, r3, #3
 80011b0:	23a0      	movs	r3, #160	; 0xa0
 80011b2:	05db      	lsls	r3, r3, #23
 80011b4:	2201      	movs	r2, #1
 80011b6:	0018      	movs	r0, r3
 80011b8:	f002 fec9 	bl	8003f4e <HAL_GPIO_WritePin>
 80011bc:	e007      	b.n	80011ce <vSpi3WriteFIFO+0x82>
		else
			ClrSDIO();
 80011be:	2380      	movs	r3, #128	; 0x80
 80011c0:	00d9      	lsls	r1, r3, #3
 80011c2:	23a0      	movs	r3, #160	; 0xa0
 80011c4:	05db      	lsls	r3, r3, #23
 80011c6:	2200      	movs	r2, #0
 80011c8:	0018      	movs	r0, r3
 80011ca:	f002 fec0 	bl	8003f4e <HAL_GPIO_WritePin>
		_delay_us(); //_delay_us(1);
 80011ce:	f7ff fe77 	bl	8000ec0 <_delay_us>
		SetSDCK();
 80011d2:	2380      	movs	r3, #128	; 0x80
 80011d4:	0099      	lsls	r1, r3, #2
 80011d6:	23a0      	movs	r3, #160	; 0xa0
 80011d8:	05db      	lsls	r3, r3, #23
 80011da:	2201      	movs	r2, #1
 80011dc:	0018      	movs	r0, r3
 80011de:	f002 feb6 	bl	8003f4e <HAL_GPIO_WritePin>
		_delay_us(); //_delay_us(1);
 80011e2:	f7ff fe6d 	bl	8000ec0 <_delay_us>
 		dat <<= 1;
 80011e6:	1dfa      	adds	r2, r7, #7
 80011e8:	1dfb      	adds	r3, r7, #7
 80011ea:	781b      	ldrb	r3, [r3, #0]
 80011ec:	18db      	adds	r3, r3, r3
 80011ee:	7013      	strb	r3, [r2, #0]
	for(bitcnt=8; bitcnt!=0; bitcnt--)
 80011f0:	210f      	movs	r1, #15
 80011f2:	187b      	adds	r3, r7, r1
 80011f4:	781a      	ldrb	r2, [r3, #0]
 80011f6:	187b      	adds	r3, r7, r1
 80011f8:	3a01      	subs	r2, #1
 80011fa:	701a      	strb	r2, [r3, #0]
 80011fc:	230f      	movs	r3, #15
 80011fe:	18fb      	adds	r3, r7, r3
 8001200:	781b      	ldrb	r3, [r3, #0]
 8001202:	2b00      	cmp	r3, #0
 8001204:	d1c5      	bne.n	8001192 <vSpi3WriteFIFO+0x46>
 		}
 	ClrSDCK();
 8001206:	2380      	movs	r3, #128	; 0x80
 8001208:	0099      	lsls	r1, r3, #2
 800120a:	23a0      	movs	r3, #160	; 0xa0
 800120c:	05db      	lsls	r3, r3, #23
 800120e:	2200      	movs	r2, #0
 8001210:	0018      	movs	r0, r3
 8001212:	f002 fe9c 	bl	8003f4e <HAL_GPIO_WritePin>
 	_delay_us(); //_delay_us(1);		//Time-Critical
 8001216:	f7ff fe53 	bl	8000ec0 <_delay_us>
 	_delay_us(); //_delay_us(1);		//Time-Critical
 800121a:	f7ff fe51 	bl	8000ec0 <_delay_us>
 	SetFCSB();
 800121e:	23a0      	movs	r3, #160	; 0xa0
 8001220:	05db      	lsls	r3, r3, #23
 8001222:	2201      	movs	r2, #1
 8001224:	2104      	movs	r1, #4
 8001226:	0018      	movs	r0, r3
 8001228:	f002 fe91 	bl	8003f4e <HAL_GPIO_WritePin>
	SetSDIO();
 800122c:	2380      	movs	r3, #128	; 0x80
 800122e:	00d9      	lsls	r1, r3, #3
 8001230:	23a0      	movs	r3, #160	; 0xa0
 8001232:	05db      	lsls	r3, r3, #23
 8001234:	2201      	movs	r2, #1
 8001236:	0018      	movs	r0, r3
 8001238:	f002 fe89 	bl	8003f4e <HAL_GPIO_WritePin>
 	_delay_us(); //_delay_us(1);		//Time-Critical
 800123c:	f7ff fe40 	bl	8000ec0 <_delay_us>
 	_delay_us(); //_delay_us(1);		//Time-Critical
 8001240:	f7ff fe3e 	bl	8000ec0 <_delay_us>
}
 8001244:	46c0      	nop			; (mov r8, r8)
 8001246:	46bd      	mov	sp, r7
 8001248:	b004      	add	sp, #16
 800124a:	bd80      	pop	{r7, pc}

0800124c <vSpi3BurstWriteFIFO>:
**Func: 	burst wirte N byte to FIFO
**Input: 	array length & head pointer
**Output:	none
**********************************************************/
void vSpi3BurstWriteFIFO(byte ptr[], byte length)
{
 800124c:	b590      	push	{r4, r7, lr}
 800124e:	b085      	sub	sp, #20
 8001250:	af00      	add	r7, sp, #0
 8001252:	6078      	str	r0, [r7, #4]
 8001254:	000a      	movs	r2, r1
 8001256:	1cfb      	adds	r3, r7, #3
 8001258:	701a      	strb	r2, [r3, #0]
 	byte i;
 	if(length!=0x00)
 800125a:	1cfb      	adds	r3, r7, #3
 800125c:	781b      	ldrb	r3, [r3, #0]
 800125e:	2b00      	cmp	r3, #0
 8001260:	d01a      	beq.n	8001298 <vSpi3BurstWriteFIFO+0x4c>
	 	{
 		for(i=0;i<length;i++)
 8001262:	230f      	movs	r3, #15
 8001264:	18fb      	adds	r3, r7, r3
 8001266:	2200      	movs	r2, #0
 8001268:	701a      	strb	r2, [r3, #0]
 800126a:	e00d      	b.n	8001288 <vSpi3BurstWriteFIFO+0x3c>
 			vSpi3WriteFIFO(ptr[i]);
 800126c:	240f      	movs	r4, #15
 800126e:	193b      	adds	r3, r7, r4
 8001270:	781b      	ldrb	r3, [r3, #0]
 8001272:	687a      	ldr	r2, [r7, #4]
 8001274:	18d3      	adds	r3, r2, r3
 8001276:	781b      	ldrb	r3, [r3, #0]
 8001278:	0018      	movs	r0, r3
 800127a:	f7ff ff67 	bl	800114c <vSpi3WriteFIFO>
 		for(i=0;i<length;i++)
 800127e:	193b      	adds	r3, r7, r4
 8001280:	781a      	ldrb	r2, [r3, #0]
 8001282:	193b      	adds	r3, r7, r4
 8001284:	3201      	adds	r2, #1
 8001286:	701a      	strb	r2, [r3, #0]
 8001288:	230f      	movs	r3, #15
 800128a:	18fa      	adds	r2, r7, r3
 800128c:	1cfb      	adds	r3, r7, #3
 800128e:	7812      	ldrb	r2, [r2, #0]
 8001290:	781b      	ldrb	r3, [r3, #0]
 8001292:	429a      	cmp	r2, r3
 8001294:	d3ea      	bcc.n	800126c <vSpi3BurstWriteFIFO+0x20>
 		}
 	return;
 8001296:	46c0      	nop			; (mov r8, r8)
 8001298:	46c0      	nop			; (mov r8, r8)
}
 800129a:	46bd      	mov	sp, r7
 800129c:	b005      	add	sp, #20
 800129e:	bd90      	pop	{r4, r7, pc}

080012a0 <GPO3In>:
**Function: Entry Tx Mode
**Input:    none
**Output:   none
**********************************************************/
void GPO3In(void)
{
 80012a0:	b590      	push	{r4, r7, lr}
 80012a2:	b089      	sub	sp, #36	; 0x24
 80012a4:	af00      	add	r7, sp, #0


	GPIO_InitTypeDef GPIO_InitStruct = {0};
 80012a6:	240c      	movs	r4, #12
 80012a8:	193b      	adds	r3, r7, r4
 80012aa:	0018      	movs	r0, r3
 80012ac:	2314      	movs	r3, #20
 80012ae:	001a      	movs	r2, r3
 80012b0:	2100      	movs	r1, #0
 80012b2:	f005 faa2 	bl	80067fa <memset>

	  /* GPIO Ports Clock Enable */
	  __HAL_RCC_GPIOH_CLK_ENABLE();
 80012b6:	4b16      	ldr	r3, [pc, #88]	; (8001310 <GPO3In+0x70>)
 80012b8:	6ada      	ldr	r2, [r3, #44]	; 0x2c
 80012ba:	4b15      	ldr	r3, [pc, #84]	; (8001310 <GPO3In+0x70>)
 80012bc:	2180      	movs	r1, #128	; 0x80
 80012be:	430a      	orrs	r2, r1
 80012c0:	62da      	str	r2, [r3, #44]	; 0x2c
 80012c2:	4b13      	ldr	r3, [pc, #76]	; (8001310 <GPO3In+0x70>)
 80012c4:	6adb      	ldr	r3, [r3, #44]	; 0x2c
 80012c6:	2280      	movs	r2, #128	; 0x80
 80012c8:	4013      	ands	r3, r2
 80012ca:	60bb      	str	r3, [r7, #8]
 80012cc:	68bb      	ldr	r3, [r7, #8]
	  __HAL_RCC_GPIOA_CLK_ENABLE();
 80012ce:	4b10      	ldr	r3, [pc, #64]	; (8001310 <GPO3In+0x70>)
 80012d0:	6ada      	ldr	r2, [r3, #44]	; 0x2c
 80012d2:	4b0f      	ldr	r3, [pc, #60]	; (8001310 <GPO3In+0x70>)
 80012d4:	2101      	movs	r1, #1
 80012d6:	430a      	orrs	r2, r1
 80012d8:	62da      	str	r2, [r3, #44]	; 0x2c
 80012da:	4b0d      	ldr	r3, [pc, #52]	; (8001310 <GPO3In+0x70>)
 80012dc:	6adb      	ldr	r3, [r3, #44]	; 0x2c
 80012de:	2201      	movs	r2, #1
 80012e0:	4013      	ands	r3, r2
 80012e2:	607b      	str	r3, [r7, #4]
 80012e4:	687b      	ldr	r3, [r7, #4]

	  /*Configure GPIO pin : GPO3_Pin */
	  GPIO_InitStruct.Pin = GPO3_Pin;
 80012e6:	193b      	adds	r3, r7, r4
 80012e8:	2280      	movs	r2, #128	; 0x80
 80012ea:	0152      	lsls	r2, r2, #5
 80012ec:	601a      	str	r2, [r3, #0]
	  GPIO_InitStruct.Mode = GPIO_MODE_INPUT;
 80012ee:	193b      	adds	r3, r7, r4
 80012f0:	2200      	movs	r2, #0
 80012f2:	605a      	str	r2, [r3, #4]
	  GPIO_InitStruct.Pull = GPIO_NOPULL;
 80012f4:	193b      	adds	r3, r7, r4
 80012f6:	2200      	movs	r2, #0
 80012f8:	609a      	str	r2, [r3, #8]
	  HAL_GPIO_Init(GPO3_GPIO_Port, &GPIO_InitStruct);
 80012fa:	193a      	adds	r2, r7, r4
 80012fc:	23a0      	movs	r3, #160	; 0xa0
 80012fe:	05db      	lsls	r3, r3, #23
 8001300:	0011      	movs	r1, r2
 8001302:	0018      	movs	r0, r3
 8001304:	f002 fbc6 	bl	8003a94 <HAL_GPIO_Init>
}
 8001308:	46c0      	nop			; (mov r8, r8)
 800130a:	46bd      	mov	sp, r7
 800130c:	b009      	add	sp, #36	; 0x24
 800130e:	bd90      	pop	{r4, r7, pc}
 8001310:	40021000 	.word	0x40021000

08001314 <bGoTx>:

byte bGoTx(void)
{
 8001314:	b580      	push	{r7, lr}
 8001316:	b082      	sub	sp, #8
 8001318:	af00      	add	r7, sp, #0
	}
	if(i>=100)
		return(false);
	#endif

	vSpi3Write(((word)CMT23_MODE_CTL<<8)+MODE_GO_TX);
 800131a:	4b1d      	ldr	r3, [pc, #116]	; (8001390 <bGoTx+0x7c>)
 800131c:	0018      	movs	r0, r3
 800131e:	f7ff fee2 	bl	80010e6 <vSpi3Write>
	for(i=0; i<100; i++){
 8001322:	1dfb      	adds	r3, r7, #7
 8001324:	2200      	movs	r2, #0
 8001326:	701a      	strb	r2, [r3, #0]
 8001328:	e020      	b.n	800136c <bGoTx+0x58>
		for(i=0; i<100; i++){
 800132a:	1dfb      	adds	r3, r7, #7
 800132c:	2200      	movs	r2, #0
 800132e:	701a      	strb	r2, [r3, #0]
 8001330:	e006      	b.n	8001340 <bGoTx+0x2c>
					_delay_us(); //_delay_us(100);
 8001332:	f7ff fdc5 	bl	8000ec0 <_delay_us>
		for(i=0; i<100; i++){
 8001336:	1dfb      	adds	r3, r7, #7
 8001338:	781a      	ldrb	r2, [r3, #0]
 800133a:	1dfb      	adds	r3, r7, #7
 800133c:	3201      	adds	r2, #1
 800133e:	701a      	strb	r2, [r3, #0]
 8001340:	1dfb      	adds	r3, r7, #7
 8001342:	781b      	ldrb	r3, [r3, #0]
 8001344:	2b63      	cmp	r3, #99	; 0x63
 8001346:	d9f4      	bls.n	8001332 <bGoTx+0x1e>
				}
		tmp = (MODE_MASK_STA & bSpi3Read(CMT23_MODE_STA));
 8001348:	2061      	movs	r0, #97	; 0x61
 800134a:	f7ff fee9 	bl	8001120 <bSpi3Read>
 800134e:	0003      	movs	r3, r0
 8001350:	0019      	movs	r1, r3
 8001352:	1dbb      	adds	r3, r7, #6
 8001354:	220f      	movs	r2, #15
 8001356:	400a      	ands	r2, r1
 8001358:	701a      	strb	r2, [r3, #0]
		if(tmp==MODE_STA_TX)
 800135a:	1dbb      	adds	r3, r7, #6
 800135c:	781b      	ldrb	r3, [r3, #0]
 800135e:	2b06      	cmp	r3, #6
 8001360:	d009      	beq.n	8001376 <bGoTx+0x62>
	for(i=0; i<100; i++){
 8001362:	1dfb      	adds	r3, r7, #7
 8001364:	781a      	ldrb	r2, [r3, #0]
 8001366:	1dfb      	adds	r3, r7, #7
 8001368:	3201      	adds	r2, #1
 800136a:	701a      	strb	r2, [r3, #0]
 800136c:	1dfb      	adds	r3, r7, #7
 800136e:	781b      	ldrb	r3, [r3, #0]
 8001370:	2b63      	cmp	r3, #99	; 0x63
 8001372:	d9da      	bls.n	800132a <bGoTx+0x16>
 8001374:	e000      	b.n	8001378 <bGoTx+0x64>
			break;
 8001376:	46c0      	nop			; (mov r8, r8)
	}
	if(i>=100)
 8001378:	1dfb      	adds	r3, r7, #7
 800137a:	781b      	ldrb	r3, [r3, #0]
 800137c:	2b63      	cmp	r3, #99	; 0x63
 800137e:	d901      	bls.n	8001384 <bGoTx+0x70>
		return(false);
 8001380:	2300      	movs	r3, #0
 8001382:	e000      	b.n	8001386 <bGoTx+0x72>
	else
		return(true);
 8001384:	2301      	movs	r3, #1
}
 8001386:	0018      	movs	r0, r3
 8001388:	46bd      	mov	sp, r7
 800138a:	b002      	add	sp, #8
 800138c:	bd80      	pop	{r7, pc}
 800138e:	46c0      	nop			; (mov r8, r8)
 8001390:	00006040 	.word	0x00006040

08001394 <bGoSleep>:
**Function: Entry Sleep Mode
**Input:    none
**Output:   none
**********************************************************/
byte bGoSleep(void)
{
 8001394:	b580      	push	{r7, lr}
 8001396:	b082      	sub	sp, #8
 8001398:	af00      	add	r7, sp, #0
	byte tmp;

	vSpi3Write(((word)CMT23_MODE_CTL<<8)+MODE_GO_SLEEP);
 800139a:	4b11      	ldr	r3, [pc, #68]	; (80013e0 <bGoSleep+0x4c>)
 800139c:	0018      	movs	r0, r3
 800139e:	f7ff fea2 	bl	80010e6 <vSpi3Write>
	for(int i=0; i<100; i++){
 80013a2:	2300      	movs	r3, #0
 80013a4:	607b      	str	r3, [r7, #4]
 80013a6:	e004      	b.n	80013b2 <bGoSleep+0x1e>
				_delay_us(); //_delay_us(100);
 80013a8:	f7ff fd8a 	bl	8000ec0 <_delay_us>
	for(int i=0; i<100; i++){
 80013ac:	687b      	ldr	r3, [r7, #4]
 80013ae:	3301      	adds	r3, #1
 80013b0:	607b      	str	r3, [r7, #4]
 80013b2:	687b      	ldr	r3, [r7, #4]
 80013b4:	2b63      	cmp	r3, #99	; 0x63
 80013b6:	ddf7      	ble.n	80013a8 <bGoSleep+0x14>
			}	//enough?
	tmp = (MODE_MASK_STA & bSpi3Read(CMT23_MODE_STA));
 80013b8:	2061      	movs	r0, #97	; 0x61
 80013ba:	f7ff feb1 	bl	8001120 <bSpi3Read>
 80013be:	0003      	movs	r3, r0
 80013c0:	0019      	movs	r1, r3
 80013c2:	1cfb      	adds	r3, r7, #3
 80013c4:	220f      	movs	r2, #15
 80013c6:	400a      	ands	r2, r1
 80013c8:	701a      	strb	r2, [r3, #0]
	if(tmp==MODE_GO_SLEEP)
 80013ca:	1cfb      	adds	r3, r7, #3
 80013cc:	781b      	ldrb	r3, [r3, #0]
 80013ce:	2b10      	cmp	r3, #16
 80013d0:	d101      	bne.n	80013d6 <bGoSleep+0x42>
		return(true);
 80013d2:	2301      	movs	r3, #1
 80013d4:	e000      	b.n	80013d8 <bGoSleep+0x44>
	else
		return(false);
 80013d6:	2300      	movs	r3, #0
}
 80013d8:	0018      	movs	r0, r3
 80013da:	46bd      	mov	sp, r7
 80013dc:	b002      	add	sp, #8
 80013de:	bd80      	pop	{r7, pc}
 80013e0:	00006010 	.word	0x00006010

080013e4 <bGoStandby>:
**Function: Entry Standby Mode
**Input:    none
**Output:   none
**********************************************************/
byte bGoStandby(void)
{
 80013e4:	b580      	push	{r7, lr}
 80013e6:	b082      	sub	sp, #8
 80013e8:	af00      	add	r7, sp, #0
	byte tmp, i;

	RssiTrig = false;
 80013ea:	4b1e      	ldr	r3, [pc, #120]	; (8001464 <bGoStandby+0x80>)
 80013ec:	2200      	movs	r2, #0
 80013ee:	701a      	strb	r2, [r3, #0]
	vSpi3Write(((word)CMT23_MODE_CTL<<8)+MODE_GO_STBY);
 80013f0:	4b1d      	ldr	r3, [pc, #116]	; (8001468 <bGoStandby+0x84>)
 80013f2:	0018      	movs	r0, r3
 80013f4:	f7ff fe77 	bl	80010e6 <vSpi3Write>
	for(i=0; i<100; i++){
 80013f8:	1dfb      	adds	r3, r7, #7
 80013fa:	2200      	movs	r2, #0
 80013fc:	701a      	strb	r2, [r3, #0]
 80013fe:	e020      	b.n	8001442 <bGoStandby+0x5e>
		for(i=0; i<100; i++){
 8001400:	1dfb      	adds	r3, r7, #7
 8001402:	2200      	movs	r2, #0
 8001404:	701a      	strb	r2, [r3, #0]
 8001406:	e006      	b.n	8001416 <bGoStandby+0x32>
					_delay_us(); //_delay_us(100);
 8001408:	f7ff fd5a 	bl	8000ec0 <_delay_us>
		for(i=0; i<100; i++){
 800140c:	1dfb      	adds	r3, r7, #7
 800140e:	781a      	ldrb	r2, [r3, #0]
 8001410:	1dfb      	adds	r3, r7, #7
 8001412:	3201      	adds	r2, #1
 8001414:	701a      	strb	r2, [r3, #0]
 8001416:	1dfb      	adds	r3, r7, #7
 8001418:	781b      	ldrb	r3, [r3, #0]
 800141a:	2b63      	cmp	r3, #99	; 0x63
 800141c:	d9f4      	bls.n	8001408 <bGoStandby+0x24>
				}
		tmp = (MODE_MASK_STA & bSpi3Read(CMT23_MODE_STA));
 800141e:	2061      	movs	r0, #97	; 0x61
 8001420:	f7ff fe7e 	bl	8001120 <bSpi3Read>
 8001424:	0003      	movs	r3, r0
 8001426:	0019      	movs	r1, r3
 8001428:	1dbb      	adds	r3, r7, #6
 800142a:	220f      	movs	r2, #15
 800142c:	400a      	ands	r2, r1
 800142e:	701a      	strb	r2, [r3, #0]
		if(tmp==MODE_STA_STBY)
 8001430:	1dbb      	adds	r3, r7, #6
 8001432:	781b      	ldrb	r3, [r3, #0]
 8001434:	2b02      	cmp	r3, #2
 8001436:	d009      	beq.n	800144c <bGoStandby+0x68>
	for(i=0; i<100; i++){
 8001438:	1dfb      	adds	r3, r7, #7
 800143a:	781a      	ldrb	r2, [r3, #0]
 800143c:	1dfb      	adds	r3, r7, #7
 800143e:	3201      	adds	r2, #1
 8001440:	701a      	strb	r2, [r3, #0]
 8001442:	1dfb      	adds	r3, r7, #7
 8001444:	781b      	ldrb	r3, [r3, #0]
 8001446:	2b63      	cmp	r3, #99	; 0x63
 8001448:	d9da      	bls.n	8001400 <bGoStandby+0x1c>
 800144a:	e000      	b.n	800144e <bGoStandby+0x6a>
			break;
 800144c:	46c0      	nop			; (mov r8, r8)
	}
	if(i>=100)
 800144e:	1dfb      	adds	r3, r7, #7
 8001450:	781b      	ldrb	r3, [r3, #0]
 8001452:	2b63      	cmp	r3, #99	; 0x63
 8001454:	d901      	bls.n	800145a <bGoStandby+0x76>
		return(false);
 8001456:	2300      	movs	r3, #0
 8001458:	e000      	b.n	800145c <bGoStandby+0x78>
	else
		return(true);
 800145a:	2301      	movs	r3, #1
}
 800145c:	0018      	movs	r0, r3
 800145e:	46bd      	mov	sp, r7
 8001460:	b002      	add	sp, #8
 8001462:	bd80      	pop	{r7, pc}
 8001464:	200002f1 	.word	0x200002f1
 8001468:	00006002 	.word	0x00006002

0800146c <vSoftReset>:
**Function: Software reset Chipset
**Input:    none
**Output:   none
**********************************************************/
void vSoftReset(void)
{
 800146c:	b580      	push	{r7, lr}
 800146e:	af00      	add	r7, sp, #0
	vSpi3Write(((word)CMT23_SOFTRST<<8)+0xFF);
 8001470:	4b04      	ldr	r3, [pc, #16]	; (8001484 <vSoftReset+0x18>)
 8001472:	0018      	movs	r0, r3
 8001474:	f7ff fe37 	bl	80010e6 <vSpi3Write>
	HAL_Delay(1);				//enough?
 8001478:	2001      	movs	r0, #1
 800147a:	f001 fc73 	bl	8002d64 <HAL_Delay>
}
 800147e:	46c0      	nop			; (mov r8, r8)
 8001480:	46bd      	mov	sp, r7
 8001482:	bd80      	pop	{r7, pc}
 8001484:	00007fff 	.word	0x00007fff

08001488 <vGpioFuncCfg>:
**Function: GPIO Function config
**Input:    none
**Output:   none
**********************************************************/
void vGpioFuncCfg(byte io_cfg)
{
 8001488:	b580      	push	{r7, lr}
 800148a:	b082      	sub	sp, #8
 800148c:	af00      	add	r7, sp, #0
 800148e:	0002      	movs	r2, r0
 8001490:	1dfb      	adds	r3, r7, #7
 8001492:	701a      	strb	r2, [r3, #0]
	vSpi3Write(((word)CMT23_IO_SEL<<8)+io_cfg);
 8001494:	1dfb      	adds	r3, r7, #7
 8001496:	781b      	ldrb	r3, [r3, #0]
 8001498:	22ca      	movs	r2, #202	; 0xca
 800149a:	01d2      	lsls	r2, r2, #7
 800149c:	4694      	mov	ip, r2
 800149e:	4463      	add	r3, ip
 80014a0:	0018      	movs	r0, r3
 80014a2:	f7ff fe20 	bl	80010e6 <vSpi3Write>
}
 80014a6:	46c0      	nop			; (mov r8, r8)
 80014a8:	46bd      	mov	sp, r7
 80014aa:	b002      	add	sp, #8
 80014ac:	bd80      	pop	{r7, pc}

080014ae <vIntSrcCfg>:
**Function: config interrupt source  
**Input:    int_1, int_2
**Output:   none
**********************************************************/
void vIntSrcCfg(byte int_1, byte int_2)
{
 80014ae:	b590      	push	{r4, r7, lr}
 80014b0:	b085      	sub	sp, #20
 80014b2:	af00      	add	r7, sp, #0
 80014b4:	0002      	movs	r2, r0
 80014b6:	1dfb      	adds	r3, r7, #7
 80014b8:	701a      	strb	r2, [r3, #0]
 80014ba:	1dbb      	adds	r3, r7, #6
 80014bc:	1c0a      	adds	r2, r1, #0
 80014be:	701a      	strb	r2, [r3, #0]
	byte tmp;
	tmp = INT_MASK & bSpi3Read(CMT23_INT1_CTL);
 80014c0:	2066      	movs	r0, #102	; 0x66
 80014c2:	f7ff fe2d 	bl	8001120 <bSpi3Read>
 80014c6:	0003      	movs	r3, r0
 80014c8:	0019      	movs	r1, r3
 80014ca:	240f      	movs	r4, #15
 80014cc:	193b      	adds	r3, r7, r4
 80014ce:	221f      	movs	r2, #31
 80014d0:	4391      	bics	r1, r2
 80014d2:	000a      	movs	r2, r1
 80014d4:	701a      	strb	r2, [r3, #0]
	vSpi3Write(((word)CMT23_INT1_CTL<<8)+(tmp|int_1));
 80014d6:	193a      	adds	r2, r7, r4
 80014d8:	1dfb      	adds	r3, r7, #7
 80014da:	7812      	ldrb	r2, [r2, #0]
 80014dc:	781b      	ldrb	r3, [r3, #0]
 80014de:	4313      	orrs	r3, r2
 80014e0:	b2db      	uxtb	r3, r3
 80014e2:	22cc      	movs	r2, #204	; 0xcc
 80014e4:	01d2      	lsls	r2, r2, #7
 80014e6:	4694      	mov	ip, r2
 80014e8:	4463      	add	r3, ip
 80014ea:	0018      	movs	r0, r3
 80014ec:	f7ff fdfb 	bl	80010e6 <vSpi3Write>

	tmp = INT_MASK & bSpi3Read(CMT23_INT2_CTL);
 80014f0:	2067      	movs	r0, #103	; 0x67
 80014f2:	f7ff fe15 	bl	8001120 <bSpi3Read>
 80014f6:	0003      	movs	r3, r0
 80014f8:	0019      	movs	r1, r3
 80014fa:	193b      	adds	r3, r7, r4
 80014fc:	221f      	movs	r2, #31
 80014fe:	4391      	bics	r1, r2
 8001500:	000a      	movs	r2, r1
 8001502:	701a      	strb	r2, [r3, #0]
	vSpi3Write(((word)CMT23_INT2_CTL<<8)+(tmp|int_2));
 8001504:	193a      	adds	r2, r7, r4
 8001506:	1dbb      	adds	r3, r7, #6
 8001508:	7812      	ldrb	r2, [r2, #0]
 800150a:	781b      	ldrb	r3, [r3, #0]
 800150c:	4313      	orrs	r3, r2
 800150e:	b2db      	uxtb	r3, r3
 8001510:	22ce      	movs	r2, #206	; 0xce
 8001512:	01d2      	lsls	r2, r2, #7
 8001514:	4694      	mov	ip, r2
 8001516:	4463      	add	r3, ip
 8001518:	0018      	movs	r0, r3
 800151a:	f7ff fde4 	bl	80010e6 <vSpi3Write>
}
 800151e:	46c0      	nop			; (mov r8, r8)
 8001520:	46bd      	mov	sp, r7
 8001522:	b005      	add	sp, #20
 8001524:	bd90      	pop	{r4, r7, pc}

08001526 <vEnableAntSwitch>:
**Function:  
**Input:    
**Output:   none
**********************************************************/
void vEnableAntSwitch(byte mode)
{
 8001526:	b5b0      	push	{r4, r5, r7, lr}
 8001528:	b084      	sub	sp, #16
 800152a:	af00      	add	r7, sp, #0
 800152c:	0002      	movs	r2, r0
 800152e:	1dfb      	adds	r3, r7, #7
 8001530:	701a      	strb	r2, [r3, #0]
	byte tmp;
	tmp = bSpi3Read(CMT23_INT1_CTL);
 8001532:	250f      	movs	r5, #15
 8001534:	197c      	adds	r4, r7, r5
 8001536:	2066      	movs	r0, #102	; 0x66
 8001538:	f7ff fdf2 	bl	8001120 <bSpi3Read>
 800153c:	0003      	movs	r3, r0
 800153e:	7023      	strb	r3, [r4, #0]
	tmp&= 0x3F;
 8001540:	197b      	adds	r3, r7, r5
 8001542:	197a      	adds	r2, r7, r5
 8001544:	7812      	ldrb	r2, [r2, #0]
 8001546:	213f      	movs	r1, #63	; 0x3f
 8001548:	400a      	ands	r2, r1
 800154a:	701a      	strb	r2, [r3, #0]
	switch(mode)
 800154c:	1dfb      	adds	r3, r7, #7
 800154e:	781b      	ldrb	r3, [r3, #0]
 8001550:	2b01      	cmp	r3, #1
 8001552:	d002      	beq.n	800155a <vEnableAntSwitch+0x34>
 8001554:	2b02      	cmp	r3, #2
 8001556:	d009      	beq.n	800156c <vEnableAntSwitch+0x46>
			tmp |= RF_SWT1_EN; break;		//GPO1=RxActive; GPO2=TxActive
		case 2:
			tmp |= RF_SWT2_EN; break;		//GPO1=RxActive; GPO2=!RxActive
		case 0:
		default:
			break;							//Disable
 8001558:	e010      	b.n	800157c <vEnableAntSwitch+0x56>
			tmp |= RF_SWT1_EN; break;		//GPO1=RxActive; GPO2=TxActive
 800155a:	220f      	movs	r2, #15
 800155c:	18bb      	adds	r3, r7, r2
 800155e:	18ba      	adds	r2, r7, r2
 8001560:	7812      	ldrb	r2, [r2, #0]
 8001562:	2180      	movs	r1, #128	; 0x80
 8001564:	4249      	negs	r1, r1
 8001566:	430a      	orrs	r2, r1
 8001568:	701a      	strb	r2, [r3, #0]
 800156a:	e007      	b.n	800157c <vEnableAntSwitch+0x56>
			tmp |= RF_SWT2_EN; break;		//GPO1=RxActive; GPO2=!RxActive
 800156c:	220f      	movs	r2, #15
 800156e:	18bb      	adds	r3, r7, r2
 8001570:	18ba      	adds	r2, r7, r2
 8001572:	7812      	ldrb	r2, [r2, #0]
 8001574:	2140      	movs	r1, #64	; 0x40
 8001576:	430a      	orrs	r2, r1
 8001578:	701a      	strb	r2, [r3, #0]
 800157a:	46c0      	nop			; (mov r8, r8)
	}
	vSpi3Write(((word)CMT23_INT1_CTL<<8)+tmp);
 800157c:	230f      	movs	r3, #15
 800157e:	18fb      	adds	r3, r7, r3
 8001580:	781b      	ldrb	r3, [r3, #0]
 8001582:	22cc      	movs	r2, #204	; 0xcc
 8001584:	01d2      	lsls	r2, r2, #7
 8001586:	4694      	mov	ip, r2
 8001588:	4463      	add	r3, ip
 800158a:	0018      	movs	r0, r3
 800158c:	f7ff fdab 	bl	80010e6 <vSpi3Write>
}
 8001590:	46c0      	nop			; (mov r8, r8)
 8001592:	46bd      	mov	sp, r7
 8001594:	b004      	add	sp, #16
 8001596:	bdb0      	pop	{r4, r5, r7, pc}

08001598 <vIntSrcEnable>:
**Function: enable interrupt source 
**Input:    en_int
**Output:   none
**********************************************************/
void vIntSrcEnable(byte en_int)
{
 8001598:	b580      	push	{r7, lr}
 800159a:	b082      	sub	sp, #8
 800159c:	af00      	add	r7, sp, #0
 800159e:	0002      	movs	r2, r0
 80015a0:	1dfb      	adds	r3, r7, #7
 80015a2:	701a      	strb	r2, [r3, #0]
	vSpi3Write(((word)CMT23_INT_EN<<8)+en_int);
 80015a4:	1dfb      	adds	r3, r7, #7
 80015a6:	781b      	ldrb	r3, [r3, #0]
 80015a8:	22d0      	movs	r2, #208	; 0xd0
 80015aa:	01d2      	lsls	r2, r2, #7
 80015ac:	4694      	mov	ip, r2
 80015ae:	4463      	add	r3, ip
 80015b0:	0018      	movs	r0, r3
 80015b2:	f7ff fd98 	bl	80010e6 <vSpi3Write>
}
 80015b6:	46c0      	nop			; (mov r8, r8)
 80015b8:	46bd      	mov	sp, r7
 80015ba:	b002      	add	sp, #8
 80015bc:	bd80      	pop	{r7, pc}
	...

080015c0 <bIntSrcFlagClr>:
**Function: clear flag
**Input:    none
**Output:   equ CMT23_INT_EN
**********************************************************/
byte bIntSrcFlagClr(void)
{
 80015c0:	b580      	push	{r7, lr}
 80015c2:	b082      	sub	sp, #8
 80015c4:	af00      	add	r7, sp, #0
	//byte tmp;
	//byte int_clr2 = 0;
	//byte int_clr1 = 0;
	byte flg = 0;
 80015c6:	1dfb      	adds	r3, r7, #7
 80015c8:	2200      	movs	r2, #0
 80015ca:	701a      	strb	r2, [r3, #0]
		int_clr1 |= RX_TIMEOUT_CLR;
		flg |= RX_TMO_EN;
	}
	vSpi3Write(((word)CMT23_INT_CLR1<<8)+int_clr1);	//Clear flag
#endif
	vSpi3Write(((word)CMT23_INT_CLR1<<8)+0x07); //Clear flag
 80015cc:	4b06      	ldr	r3, [pc, #24]	; (80015e8 <bIntSrcFlagClr+0x28>)
 80015ce:	0018      	movs	r0, r3
 80015d0:	f7ff fd89 	bl	80010e6 <vSpi3Write>
	vSpi3Write(((word)CMT23_INT_CLR2<<8)+0xFF);	//Clear flag
 80015d4:	4b05      	ldr	r3, [pc, #20]	; (80015ec <bIntSrcFlagClr+0x2c>)
 80015d6:	0018      	movs	r0, r3
 80015d8:	f7ff fd85 	bl	80010e6 <vSpi3Write>

	return(flg);
 80015dc:	1dfb      	adds	r3, r7, #7
 80015de:	781b      	ldrb	r3, [r3, #0]
}
 80015e0:	0018      	movs	r0, r3
 80015e2:	46bd      	mov	sp, r7
 80015e4:	b002      	add	sp, #8
 80015e6:	bd80      	pop	{r7, pc}
 80015e8:	00006a07 	.word	0x00006a07
 80015ec:	00006bff 	.word	0x00006bff

080015f0 <vClearFIFO>:
**Function: clear FIFO buffer
**Input:    none
**Output:   FIFO state
**********************************************************/
byte vClearFIFO(void)
{
 80015f0:	b590      	push	{r4, r7, lr}
 80015f2:	b083      	sub	sp, #12
 80015f4:	af00      	add	r7, sp, #0
	byte tmp;
	tmp = bSpi3Read(CMT23_FIFO_FLG);
 80015f6:	1dfc      	adds	r4, r7, #7
 80015f8:	206e      	movs	r0, #110	; 0x6e
 80015fa:	f7ff fd91 	bl	8001120 <bSpi3Read>
 80015fe:	0003      	movs	r3, r0
 8001600:	7023      	strb	r3, [r4, #0]
	vSpi3Write(((word)CMT23_FIFO_CLR<<8)+FIFO_CLR_RX+FIFO_CLR_TX);
 8001602:	4b05      	ldr	r3, [pc, #20]	; (8001618 <vClearFIFO+0x28>)
 8001604:	0018      	movs	r0, r3
 8001606:	f7ff fd6e 	bl	80010e6 <vSpi3Write>
	return(tmp);
 800160a:	1dfb      	adds	r3, r7, #7
 800160c:	781b      	ldrb	r3, [r3, #0]
}
 800160e:	0018      	movs	r0, r3
 8001610:	46bd      	mov	sp, r7
 8001612:	b003      	add	sp, #12
 8001614:	bd90      	pop	{r4, r7, pc}
 8001616:	46c0      	nop			; (mov r8, r8)
 8001618:	00006c03 	.word	0x00006c03

0800161c <vEnableWrFifo>:

#if 1		//splite fifo, tx:32bytes, rx:32bytes;
void vEnableWrFifo(void)
{
 800161c:	b590      	push	{r4, r7, lr}
 800161e:	b083      	sub	sp, #12
 8001620:	af00      	add	r7, sp, #0
	byte tmp;
	tmp = bSpi3Read(CMT23_FIFO_CTL);
 8001622:	1dfc      	adds	r4, r7, #7
 8001624:	2069      	movs	r0, #105	; 0x69
 8001626:	f7ff fd7b 	bl	8001120 <bSpi3Read>
 800162a:	0003      	movs	r3, r0
 800162c:	7023      	strb	r3, [r4, #0]
	tmp |= (SPI_FIFO_RD_WR_SEL|FIFO_RX_TX_SEL);
 800162e:	1dfb      	adds	r3, r7, #7
 8001630:	1dfa      	adds	r2, r7, #7
 8001632:	7812      	ldrb	r2, [r2, #0]
 8001634:	2105      	movs	r1, #5
 8001636:	430a      	orrs	r2, r1
 8001638:	701a      	strb	r2, [r3, #0]
	vSpi3Write(((word)CMT23_FIFO_CTL<<8)+tmp);
 800163a:	1dfb      	adds	r3, r7, #7
 800163c:	781b      	ldrb	r3, [r3, #0]
 800163e:	22d2      	movs	r2, #210	; 0xd2
 8001640:	01d2      	lsls	r2, r2, #7
 8001642:	4694      	mov	ip, r2
 8001644:	4463      	add	r3, ip
 8001646:	0018      	movs	r0, r3
 8001648:	f7ff fd4d 	bl	80010e6 <vSpi3Write>
}
 800164c:	46c0      	nop			; (mov r8, r8)
 800164e:	46bd      	mov	sp, r7
 8001650:	b003      	add	sp, #12
 8001652:	bd90      	pop	{r4, r7, pc}

08001654 <vInit>:
**Function: Init. CMT2300A
**Input:    none
**Output:   none
**********************************************************/
void vInit(void)
{
 8001654:	b590      	push	{r4, r7, lr}
 8001656:	b083      	sub	sp, #12
 8001658:	af00      	add	r7, sp, #0
	byte tmp;
	vSpi3Init();
 800165a:	f7ff fc36 	bl	8000eca <vSpi3Init>
	//GPO1In();
	//GPO2In();
	GPO3In();
 800165e:	f7ff fe1f 	bl	80012a0 <GPO3In>

	//TX_ANTOut();
	//RX_ANTOut();

	vSoftReset();
 8001662:	f7ff ff03 	bl	800146c <vSoftReset>
	HAL_Delay(20);
 8001666:	2014      	movs	r0, #20
 8001668:	f001 fb7c 	bl	8002d64 <HAL_Delay>
	bGoStandby();
 800166c:	f7ff feba 	bl	80013e4 <bGoStandby>

	//
	tmp = bSpi3Read(CMT23_MODE_STA);
 8001670:	1dfc      	adds	r4, r7, #7
 8001672:	2061      	movs	r0, #97	; 0x61
 8001674:	f7ff fd54 	bl	8001120 <bSpi3Read>
 8001678:	0003      	movs	r3, r0
 800167a:	7023      	strb	r3, [r4, #0]
	tmp|= EEP_CPY_DIS;
 800167c:	1dfb      	adds	r3, r7, #7
 800167e:	1dfa      	adds	r2, r7, #7
 8001680:	7812      	ldrb	r2, [r2, #0]
 8001682:	2110      	movs	r1, #16
 8001684:	430a      	orrs	r2, r1
 8001686:	701a      	strb	r2, [r3, #0]
	tmp&= (~RSTN_IN_EN);			//Disable RstPin
 8001688:	1dfb      	adds	r3, r7, #7
 800168a:	1dfa      	adds	r2, r7, #7
 800168c:	7812      	ldrb	r2, [r2, #0]
 800168e:	2120      	movs	r1, #32
 8001690:	438a      	bics	r2, r1
 8001692:	701a      	strb	r2, [r3, #0]
	vSpi3Write(((word)CMT23_MODE_STA<<8)+tmp);
 8001694:	1dfb      	adds	r3, r7, #7
 8001696:	781b      	ldrb	r3, [r3, #0]
 8001698:	22c2      	movs	r2, #194	; 0xc2
 800169a:	01d2      	lsls	r2, r2, #7
 800169c:	4694      	mov	ip, r2
 800169e:	4463      	add	r3, ip
 80016a0:	0018      	movs	r0, r3
 80016a2:	f7ff fd20 	bl	80010e6 <vSpi3Write>

	bIntSrcFlagClr();
 80016a6:	f7ff ff8b 	bl	80015c0 <bIntSrcFlagClr>
}
 80016aa:	46c0      	nop			; (mov r8, r8)
 80016ac:	46bd      	mov	sp, r7
 80016ae:	b003      	add	sp, #12
 80016b0:	bd90      	pop	{r4, r7, pc}

080016b2 <vCfgBank>:

void vCfgBank(word cfg[], byte length)
{
 80016b2:	b590      	push	{r4, r7, lr}
 80016b4:	b085      	sub	sp, #20
 80016b6:	af00      	add	r7, sp, #0
 80016b8:	6078      	str	r0, [r7, #4]
 80016ba:	000a      	movs	r2, r1
 80016bc:	1cfb      	adds	r3, r7, #3
 80016be:	701a      	strb	r2, [r3, #0]
	byte i;

	if(length!=0){
 80016c0:	1cfb      	adds	r3, r7, #3
 80016c2:	781b      	ldrb	r3, [r3, #0]
 80016c4:	2b00      	cmp	r3, #0
 80016c6:	d01a      	beq.n	80016fe <vCfgBank+0x4c>
		for(i=0; i<length; i++)
 80016c8:	230f      	movs	r3, #15
 80016ca:	18fb      	adds	r3, r7, r3
 80016cc:	2200      	movs	r2, #0
 80016ce:	701a      	strb	r2, [r3, #0]
 80016d0:	e00e      	b.n	80016f0 <vCfgBank+0x3e>
			vSpi3Write(cfg[i]);
 80016d2:	240f      	movs	r4, #15
 80016d4:	193b      	adds	r3, r7, r4
 80016d6:	781b      	ldrb	r3, [r3, #0]
 80016d8:	009b      	lsls	r3, r3, #2
 80016da:	687a      	ldr	r2, [r7, #4]
 80016dc:	18d3      	adds	r3, r2, r3
 80016de:	681b      	ldr	r3, [r3, #0]
 80016e0:	0018      	movs	r0, r3
 80016e2:	f7ff fd00 	bl	80010e6 <vSpi3Write>
		for(i=0; i<length; i++)
 80016e6:	193b      	adds	r3, r7, r4
 80016e8:	781a      	ldrb	r2, [r3, #0]
 80016ea:	193b      	adds	r3, r7, r4
 80016ec:	3201      	adds	r2, #1
 80016ee:	701a      	strb	r2, [r3, #0]
 80016f0:	230f      	movs	r3, #15
 80016f2:	18fa      	adds	r2, r7, r3
 80016f4:	1cfb      	adds	r3, r7, #3
 80016f6:	7812      	ldrb	r2, [r2, #0]
 80016f8:	781b      	ldrb	r3, [r3, #0]
 80016fa:	429a      	cmp	r2, r3
 80016fc:	d3e9      	bcc.n	80016d2 <vCfgBank+0x20>
	}
}
 80016fe:	46c0      	nop			; (mov r8, r8)
 8001700:	46bd      	mov	sp, r7
 8001702:	b005      	add	sp, #20
 8001704:	bd90      	pop	{r4, r7, pc}

08001706 <bSendMessage>:
	rev = 0xFF;
	return(rev);
}

byte bSendMessage(byte msg[], byte length)
{
 8001706:	b580      	push	{r7, lr}
 8001708:	b082      	sub	sp, #8
 800170a:	af00      	add	r7, sp, #0
 800170c:	6078      	str	r0, [r7, #4]
 800170e:	000a      	movs	r2, r1
 8001710:	1cfb      	adds	r3, r7, #3
 8001712:	701a      	strb	r2, [r3, #0]
	bIntSrcFlagClr();
 8001714:	f7ff ff54 	bl	80015c0 <bIntSrcFlagClr>
#if 1
	//mode1
	vSetTxPayloadLength(length);
 8001718:	1cfb      	adds	r3, r7, #3
 800171a:	781b      	ldrb	r3, [r3, #0]
 800171c:	0018      	movs	r0, r3
 800171e:	f000 f813 	bl	8001748 <vSetTxPayloadLength>
	bGoStandby();
 8001722:	f7ff fe5f 	bl	80013e4 <bGoStandby>
	vEnableWrFifo();
 8001726:	f7ff ff79 	bl	800161c <vEnableWrFifo>
	vSpi3BurstWriteFIFO(msg, length);
 800172a:	1cfb      	adds	r3, r7, #3
 800172c:	781a      	ldrb	r2, [r3, #0]
 800172e:	687b      	ldr	r3, [r7, #4]
 8001730:	0011      	movs	r1, r2
 8001732:	0018      	movs	r0, r3
 8001734:	f7ff fd8a 	bl	800124c <vSpi3BurstWriteFIFO>
	bGoTx();
 8001738:	f7ff fdec 	bl	8001314 <bGoTx>
	vSetTxPayloadLength(length);
	bGoTx();
	vEnableWrFifo();
	vSpi3BurstWriteFIFO(msg, length);
#endif
	return(true);
 800173c:	2301      	movs	r3, #1
}
 800173e:	0018      	movs	r0, r3
 8001740:	46bd      	mov	sp, r7
 8001742:	b002      	add	sp, #8
 8001744:	bd80      	pop	{r7, pc}
	...

08001748 <vSetTxPayloadLength>:

void vSetTxPayloadLength(word length)
{
 8001748:	b5b0      	push	{r4, r5, r7, lr}
 800174a:	b084      	sub	sp, #16
 800174c:	af00      	add	r7, sp, #0
 800174e:	6078      	str	r0, [r7, #4]
	byte tmp;
	byte len;
	bGoStandby();
 8001750:	f7ff fe48 	bl	80013e4 <bGoStandby>
	tmp = bSpi3Read(CMT23_PKT_CTRL1);
 8001754:	250f      	movs	r5, #15
 8001756:	197c      	adds	r4, r7, r5
 8001758:	2045      	movs	r0, #69	; 0x45
 800175a:	f7ff fce1 	bl	8001120 <bSpi3Read>
 800175e:	0003      	movs	r3, r0
 8001760:	7023      	strb	r3, [r4, #0]
	tmp&= 0x8F;
 8001762:	0028      	movs	r0, r5
 8001764:	183b      	adds	r3, r7, r0
 8001766:	183a      	adds	r2, r7, r0
 8001768:	7812      	ldrb	r2, [r2, #0]
 800176a:	2170      	movs	r1, #112	; 0x70
 800176c:	438a      	bics	r2, r1
 800176e:	701a      	strb	r2, [r3, #0]

	if(length!=0){
 8001770:	687b      	ldr	r3, [r7, #4]
 8001772:	2b00      	cmp	r3, #0
 8001774:	d01c      	beq.n	80017b0 <vSetTxPayloadLength+0x68>
		if(FixedPktLength){
 8001776:	4b24      	ldr	r3, [pc, #144]	; (8001808 <vSetTxPayloadLength+0xc0>)
 8001778:	781b      	ldrb	r3, [r3, #0]
 800177a:	2b00      	cmp	r3, #0
 800177c:	d00c      	beq.n	8001798 <vSetTxPayloadLength+0x50>
		  tmp &= ~(1<<0);		//clear bit0
 800177e:	183b      	adds	r3, r7, r0
 8001780:	183a      	adds	r2, r7, r0
 8001782:	7812      	ldrb	r2, [r2, #0]
 8001784:	2101      	movs	r1, #1
 8001786:	438a      	bics	r2, r1
 8001788:	701a      	strb	r2, [r3, #0]
		  len = length - 1;
 800178a:	687b      	ldr	r3, [r7, #4]
 800178c:	b2da      	uxtb	r2, r3
 800178e:	230e      	movs	r3, #14
 8001790:	18fb      	adds	r3, r7, r3
 8001792:	3a01      	subs	r2, #1
 8001794:	701a      	strb	r2, [r3, #0]
 8001796:	e00f      	b.n	80017b8 <vSetTxPayloadLength+0x70>
		}
		else{
		  tmp |= (1<<0);	   //set bit0
 8001798:	220f      	movs	r2, #15
 800179a:	18bb      	adds	r3, r7, r2
 800179c:	18ba      	adds	r2, r7, r2
 800179e:	7812      	ldrb	r2, [r2, #0]
 80017a0:	2101      	movs	r1, #1
 80017a2:	430a      	orrs	r2, r1
 80017a4:	701a      	strb	r2, [r3, #0]
		  len = length;
 80017a6:	230e      	movs	r3, #14
 80017a8:	18fb      	adds	r3, r7, r3
 80017aa:	687a      	ldr	r2, [r7, #4]
 80017ac:	701a      	strb	r2, [r3, #0]
 80017ae:	e003      	b.n	80017b8 <vSetTxPayloadLength+0x70>
		}
	}else
		len = 0;
 80017b0:	230e      	movs	r3, #14
 80017b2:	18fb      	adds	r3, r7, r3
 80017b4:	2200      	movs	r2, #0
 80017b6:	701a      	strb	r2, [r3, #0]

	tmp|= (((byte)(len>>8)&0x07)<<4);
 80017b8:	240e      	movs	r4, #14
 80017ba:	193b      	adds	r3, r7, r4
 80017bc:	781b      	ldrb	r3, [r3, #0]
 80017be:	121b      	asrs	r3, r3, #8
 80017c0:	b2db      	uxtb	r3, r3
 80017c2:	011b      	lsls	r3, r3, #4
 80017c4:	b25b      	sxtb	r3, r3
 80017c6:	2270      	movs	r2, #112	; 0x70
 80017c8:	4013      	ands	r3, r2
 80017ca:	b25a      	sxtb	r2, r3
 80017cc:	210f      	movs	r1, #15
 80017ce:	187b      	adds	r3, r7, r1
 80017d0:	781b      	ldrb	r3, [r3, #0]
 80017d2:	b25b      	sxtb	r3, r3
 80017d4:	4313      	orrs	r3, r2
 80017d6:	b25a      	sxtb	r2, r3
 80017d8:	187b      	adds	r3, r7, r1
 80017da:	701a      	strb	r2, [r3, #0]
	vSpi3Write(((word)CMT23_PKT_CTRL1<<8)+tmp);
 80017dc:	187b      	adds	r3, r7, r1
 80017de:	781b      	ldrb	r3, [r3, #0]
 80017e0:	228a      	movs	r2, #138	; 0x8a
 80017e2:	01d2      	lsls	r2, r2, #7
 80017e4:	4694      	mov	ip, r2
 80017e6:	4463      	add	r3, ip
 80017e8:	0018      	movs	r0, r3
 80017ea:	f7ff fc7c 	bl	80010e6 <vSpi3Write>
	vSpi3Write(((word)CMT23_PKT_LEN<<8)+(byte)len);	//Payload length
 80017ee:	193b      	adds	r3, r7, r4
 80017f0:	781b      	ldrb	r3, [r3, #0]
 80017f2:	228c      	movs	r2, #140	; 0x8c
 80017f4:	01d2      	lsls	r2, r2, #7
 80017f6:	4694      	mov	ip, r2
 80017f8:	4463      	add	r3, ip
 80017fa:	0018      	movs	r0, r3
 80017fc:	f7ff fc73 	bl	80010e6 <vSpi3Write>
	//bGoSleep();
}
 8001800:	46c0      	nop			; (mov r8, r8)
 8001802:	46bd      	mov	sp, r7
 8001804:	b004      	add	sp, #16
 8001806:	bdb0      	pop	{r4, r5, r7, pc}
 8001808:	200002f2 	.word	0x200002f2

0800180c <main>:
/**
  * @brief  The application entry point.
  * @retval int
  */
int main(void)
{
 800180c:	b5f0      	push	{r4, r5, r6, r7, lr}
 800180e:	b0bb      	sub	sp, #236	; 0xec
 8001810:	af00      	add	r7, sp, #0
  /* USER CODE END 1 */

  /* MCU Configuration--------------------------------------------------------*/

  /* Reset of all peripherals, Initializes the Flash interface and the Systick. */
  HAL_Init();
 8001812:	f001 fa37 	bl	8002c84 <HAL_Init>
  /* USER CODE BEGIN Init */

  /* USER CODE END Init */

  /* Configure the system clock */
  SystemClock_Config();
 8001816:	f000 faa7 	bl	8001d68 <SystemClock_Config>
  /* USER CODE BEGIN SysInit */

  /* USER CODE END SysInit */

  /* Initialize all configured peripherals */
  MX_GPIO_Init();
 800181a:	f000 fc23 	bl	8002064 <MX_GPIO_Init>
  MX_LPUART1_UART_Init();
 800181e:	f000 fbbf 	bl	8001fa0 <MX_LPUART1_UART_Init>
  MX_I2C1_Init();
 8001822:	f000 fb7d 	bl	8001f20 <MX_I2C1_Init>
  MX_ADC_Init();
 8001826:	f000 fb15 	bl	8001e54 <MX_ADC_Init>
  MX_RTC_Init();
 800182a:	f000 fbe7 	bl	8001ffc <MX_RTC_Init>
  /* USER CODE BEGIN 2 */
	//  https://github.com/Sensirion/embedded-sht sht30 kodlar kaynak
	sensirion_i2c_init();
 800182e:	f000 fef1 	bl	8002614 <sensirion_i2c_init>
	printf("Basladi\r\n");
 8001832:	4ac0      	ldr	r2, [pc, #768]	; (8001b34 <main+0x328>)
 8001834:	4bc0      	ldr	r3, [pc, #768]	; (8001b38 <main+0x32c>)
 8001836:	0011      	movs	r1, r2
 8001838:	0018      	movs	r0, r3
 800183a:	f004 ffe7 	bl	800680c <siprintf>
 800183e:	0003      	movs	r3, r0
 8001840:	b29a      	uxth	r2, r3
 8001842:	4bbe      	ldr	r3, [pc, #760]	; (8001b3c <main+0x330>)
 8001844:	49bc      	ldr	r1, [pc, #752]	; (8001b38 <main+0x32c>)
 8001846:	48be      	ldr	r0, [pc, #760]	; (8001b40 <main+0x334>)
 8001848:	f004 fada 	bl	8005e00 <HAL_UART_Transmit>
	/*
	 * Orijinal kodda var ama biz sensr hatalysa hata mesaj gnderiyoruz
	 * while (sht3x_probe(SHT3X_I2C_ADDR_DFLT) != STATUS_OK) {
	 * printf("SHT sensor probing failed\n"); }
	 */
	printf("SHT sensor probing successful\n");
 800184c:	4abd      	ldr	r2, [pc, #756]	; (8001b44 <main+0x338>)
 800184e:	4bba      	ldr	r3, [pc, #744]	; (8001b38 <main+0x32c>)
 8001850:	0011      	movs	r1, r2
 8001852:	0018      	movs	r0, r3
 8001854:	f004 ffda 	bl	800680c <siprintf>
 8001858:	0003      	movs	r3, r0
 800185a:	b29a      	uxth	r2, r3
 800185c:	4bb7      	ldr	r3, [pc, #732]	; (8001b3c <main+0x330>)
 800185e:	49b6      	ldr	r1, [pc, #728]	; (8001b38 <main+0x32c>)
 8001860:	48b7      	ldr	r0, [pc, #732]	; (8001b40 <main+0x334>)
 8001862:	f004 facd 	bl	8005e00 <HAL_UART_Transmit>
    #define VREFINT_CAL_ADDR			0x1FF80078 //STM32L010C6Tx datasheet'inden bakld. Bu koda ve aadaki Vrefint iin yazld
    #define VREFINT_CAL 				((uint16_t*) VREFINT_CAL_ADDR)

    #define TX_NUM  25
	byte tx_buf[25] = { 'H', 'A', 'T', 'A', '1', '1', '1', '1', '1', '1', 'A', '0', '0', '0', '0', '0', '0', '0', '0', '0', '5', 'B' };
 8001866:	23c0      	movs	r3, #192	; 0xc0
 8001868:	18f9      	adds	r1, r7, r3
 800186a:	4ab7      	ldr	r2, [pc, #732]	; (8001b48 <main+0x33c>)
 800186c:	000b      	movs	r3, r1
 800186e:	ca31      	ldmia	r2!, {r0, r4, r5}
 8001870:	c331      	stmia	r3!, {r0, r4, r5}
 8001872:	ca11      	ldmia	r2!, {r0, r4}
 8001874:	c311      	stmia	r3!, {r0, r4}
 8001876:	8810      	ldrh	r0, [r2, #0]
 8001878:	8018      	strh	r0, [r3, #0]
 800187a:	7892      	ldrb	r2, [r2, #2]
 800187c:	709a      	strb	r2, [r3, #2]
 800187e:	2317      	movs	r3, #23
 8001880:	18cb      	adds	r3, r1, r3
 8001882:	2202      	movs	r2, #2
 8001884:	2100      	movs	r1, #0
 8001886:	0018      	movs	r0, r3
 8001888:	f004 ffb7 	bl	80067fa <memset>
	// Sensr bozulursa veya almazsa veya yanl veri gelirse alcya hatal mesajn gnderir (tx_buf[32]).
	char buffer[25];
	char buffer2[50];
	char buffer3[100];

	FixedPktLength = 0;
 800188c:	4baf      	ldr	r3, [pc, #700]	; (8001b4c <main+0x340>)
 800188e:	2200      	movs	r2, #0
 8001890:	701a      	strb	r2, [r3, #0]
	PayloadLength = 23;
 8001892:	4baf      	ldr	r3, [pc, #700]	; (8001b50 <main+0x344>)
 8001894:	2217      	movs	r2, #23
 8001896:	601a      	str	r2, [r3, #0]
	vInit();
 8001898:	f7ff fedc 	bl	8001654 <vInit>
	vCfgBank(CMTBank, 12);
 800189c:	4bad      	ldr	r3, [pc, #692]	; (8001b54 <main+0x348>)
 800189e:	210c      	movs	r1, #12
 80018a0:	0018      	movs	r0, r3
 80018a2:	f7ff ff06 	bl	80016b2 <vCfgBank>
	vCfgBank(SystemBank, 12);
 80018a6:	4bac      	ldr	r3, [pc, #688]	; (8001b58 <main+0x34c>)
 80018a8:	210c      	movs	r1, #12
 80018aa:	0018      	movs	r0, r3
 80018ac:	f7ff ff01 	bl	80016b2 <vCfgBank>
	vCfgBank(FrequencyBank, 8);
 80018b0:	4baa      	ldr	r3, [pc, #680]	; (8001b5c <main+0x350>)
 80018b2:	2108      	movs	r1, #8
 80018b4:	0018      	movs	r0, r3
 80018b6:	f7ff fefc 	bl	80016b2 <vCfgBank>
	vCfgBank(DataRateBank, 24);
 80018ba:	4ba9      	ldr	r3, [pc, #676]	; (8001b60 <main+0x354>)
 80018bc:	2118      	movs	r1, #24
 80018be:	0018      	movs	r0, r3
 80018c0:	f7ff fef7 	bl	80016b2 <vCfgBank>
	vCfgBank(BasebandBank, 29);
 80018c4:	4ba7      	ldr	r3, [pc, #668]	; (8001b64 <main+0x358>)
 80018c6:	211d      	movs	r1, #29
 80018c8:	0018      	movs	r0, r3
 80018ca:	f7ff fef2 	bl	80016b2 <vCfgBank>
	vCfgBank(TXBank, 11);
 80018ce:	4ba6      	ldr	r3, [pc, #664]	; (8001b68 <main+0x35c>)
 80018d0:	210b      	movs	r1, #11
 80018d2:	0018      	movs	r0, r3
 80018d4:	f7ff feed 	bl	80016b2 <vCfgBank>
	vEnableAntSwitch(0);
 80018d8:	2000      	movs	r0, #0
 80018da:	f7ff fe24 	bl	8001526 <vEnableAntSwitch>
	vGpioFuncCfg(GPIO1_DCLK + GPIO2_DCLK + GPIO3_INT2); //GPIO Maping
 80018de:	202f      	movs	r0, #47	; 0x2f
 80018e0:	f7ff fdd2 	bl	8001488 <vGpioFuncCfg>

	vIntSrcCfg(INT_FIFO_NMTY_TX, INT_TX_DONE);    //IRQ maping
 80018e4:	210a      	movs	r1, #10
 80018e6:	2010      	movs	r0, #16
 80018e8:	f7ff fde1 	bl	80014ae <vIntSrcCfg>
	vIntSrcEnable(TX_DONE_EN);
 80018ec:	2020      	movs	r0, #32
 80018ee:	f7ff fe53 	bl	8001598 <vIntSrcEnable>
	vClearFIFO();
 80018f2:	f7ff fe7d 	bl	80015f0 <vClearFIFO>
	bGoSleep();
 80018f6:	f7ff fd4d 	bl	8001394 <bGoSleep>

	//int c = 0; saya kullanmak istersen yorumu a
	HAL_ADCEx_Calibration_Start(&hadc, ADC_SINGLE_ENDED); // vrefint'ten llecek voltajn dzgn llmesi iin yaplan kalibrasyon ayar
 80018fa:	4b9c      	ldr	r3, [pc, #624]	; (8001b6c <main+0x360>)
 80018fc:	2100      	movs	r1, #0
 80018fe:	0018      	movs	r0, r3
 8001900:	f001 ff4c 	bl	800379c <HAL_ADCEx_Calibration_Start>

	int32_t temperature, humidity;
	int8_t ret = sht3x_measure_blocking_read(SHT3X_I2C_ADDR_DFLT, &temperature,&humidity);
 8001904:	1d3a      	adds	r2, r7, #4
 8001906:	2308      	movs	r3, #8
 8001908:	18fb      	adds	r3, r7, r3
 800190a:	0019      	movs	r1, r3
 800190c:	2044      	movs	r0, #68	; 0x44
 800190e:	f000 ff17 	bl	8002740 <sht3x_measure_blocking_read>
 8001912:	0003      	movs	r3, r0
 8001914:	001a      	movs	r2, r3
 8001916:	25e7      	movs	r5, #231	; 0xe7
 8001918:	197b      	adds	r3, r7, r5
 800191a:	701a      	strb	r2, [r3, #0]
	if (__HAL_PWR_GET_FLAG(PWR_FLAG_SB) != RESET) { //RTC ile saniye sayar o srede stanby moduna alr. bekleme bittikten sonra bu fonksiyonun iindekileri yapar ve tekrar uyku moduna geer.
 800191c:	4b94      	ldr	r3, [pc, #592]	; (8001b70 <main+0x364>)
 800191e:	685b      	ldr	r3, [r3, #4]
 8001920:	2202      	movs	r2, #2
 8001922:	4013      	ands	r3, r2
 8001924:	2b02      	cmp	r3, #2
 8001926:	d000      	beq.n	800192a <main+0x11e>
 8001928:	e1c3      	b.n	8001cb2 <main+0x4a6>

		HAL_GPIO_WritePin(GPIOC, GPIO_PIN_13, GPIO_PIN_SET);
 800192a:	2380      	movs	r3, #128	; 0x80
 800192c:	019b      	lsls	r3, r3, #6
 800192e:	4891      	ldr	r0, [pc, #580]	; (8001b74 <main+0x368>)
 8001930:	2201      	movs	r2, #1
 8001932:	0019      	movs	r1, r3
 8001934:	f002 fb0b 	bl	8003f4e <HAL_GPIO_WritePin>
		HAL_Delay(3000); //yukardaki ve hal delay satr kod yazarken aamay grmek iin yazlmtr sonradan silebilirsin
 8001938:	4b8f      	ldr	r3, [pc, #572]	; (8001b78 <main+0x36c>)
 800193a:	0018      	movs	r0, r3
 800193c:	f001 fa12 	bl	8002d64 <HAL_Delay>

		//ADC'deki vrefint enable ettikten sonra aadaki balayan ve biten kodlarda cihaza gelen voltu ler
		__HAL_PWR_CLEAR_FLAG(PWR_FLAG_SB);
 8001940:	4b8b      	ldr	r3, [pc, #556]	; (8001b70 <main+0x364>)
 8001942:	681a      	ldr	r2, [r3, #0]
 8001944:	4b8a      	ldr	r3, [pc, #552]	; (8001b70 <main+0x364>)
 8001946:	2108      	movs	r1, #8
 8001948:	430a      	orrs	r2, r1
 800194a:	601a      	str	r2, [r3, #0]
		HAL_ADC_Start(&hadc);
 800194c:	4b87      	ldr	r3, [pc, #540]	; (8001b6c <main+0x360>)
 800194e:	0018      	movs	r0, r3
 8001950:	f001 fc44 	bl	80031dc <HAL_ADC_Start>
		HAL_ADC_PollForConversion(&hadc, 100);
 8001954:	4b85      	ldr	r3, [pc, #532]	; (8001b6c <main+0x360>)
 8001956:	2164      	movs	r1, #100	; 0x64
 8001958:	0018      	movs	r0, r3
 800195a:	f001 fcd3 	bl	8003304 <HAL_ADC_PollForConversion>
		uint16_t VREFINTADC = HAL_ADC_GetValue(&hadc);
 800195e:	4b83      	ldr	r3, [pc, #524]	; (8001b6c <main+0x360>)
 8001960:	0018      	movs	r0, r3
 8001962:	f001 fd6b 	bl	800343c <HAL_ADC_GetValue>
 8001966:	0002      	movs	r2, r0
 8001968:	26e4      	movs	r6, #228	; 0xe4
 800196a:	19bb      	adds	r3, r7, r6
 800196c:	801a      	strh	r2, [r3, #0]
		HAL_ADC_Stop(&hadc);
 800196e:	4b7f      	ldr	r3, [pc, #508]	; (8001b6c <main+0x360>)
 8001970:	0018      	movs	r0, r3
 8001972:	f001 fc87 	bl	8003284 <HAL_ADC_Stop>
		float VDD = 3000.0 * (*VREFINT_CAL / (float) VREFINTADC);
 8001976:	4b81      	ldr	r3, [pc, #516]	; (8001b7c <main+0x370>)
 8001978:	881b      	ldrh	r3, [r3, #0]
 800197a:	0018      	movs	r0, r3
 800197c:	f7ff f8a6 	bl	8000acc <__aeabi_i2f>
 8001980:	1c04      	adds	r4, r0, #0
 8001982:	19bb      	adds	r3, r7, r6
 8001984:	881b      	ldrh	r3, [r3, #0]
 8001986:	0018      	movs	r0, r3
 8001988:	f7ff f8e6 	bl	8000b58 <__aeabi_ui2f>
 800198c:	1c03      	adds	r3, r0, #0
 800198e:	1c19      	adds	r1, r3, #0
 8001990:	1c20      	adds	r0, r4, #0
 8001992:	f7fe fe55 	bl	8000640 <__aeabi_fdiv>
 8001996:	1c03      	adds	r3, r0, #0
 8001998:	4979      	ldr	r1, [pc, #484]	; (8001b80 <main+0x374>)
 800199a:	1c18      	adds	r0, r3, #0
 800199c:	f7fe ff5c 	bl	8000858 <__aeabi_fmul>
 80019a0:	1c03      	adds	r3, r0, #0
 80019a2:	22e0      	movs	r2, #224	; 0xe0
 80019a4:	18ba      	adds	r2, r7, r2
 80019a6:	6013      	str	r3, [r2, #0]
		//buraya kadar cihaza gelen vrefint'i lt.

		temperature = temperature / 10;
 80019a8:	68bb      	ldr	r3, [r7, #8]
 80019aa:	210a      	movs	r1, #10
 80019ac:	0018      	movs	r0, r3
 80019ae:	f7fe fc47 	bl	8000240 <__divsi3>
 80019b2:	0003      	movs	r3, r0
 80019b4:	60bb      	str	r3, [r7, #8]
		humidity = humidity / 10;
 80019b6:	687b      	ldr	r3, [r7, #4]
 80019b8:	210a      	movs	r1, #10
 80019ba:	0018      	movs	r0, r3
 80019bc:	f7fe fc40 	bl	8000240 <__divsi3>
 80019c0:	0003      	movs	r3, r0
 80019c2:	607b      	str	r3, [r7, #4]
		if (ret == STATUS_OK) {
 80019c4:	197b      	adds	r3, r7, r5
 80019c6:	781b      	ldrb	r3, [r3, #0]
 80019c8:	b25b      	sxtb	r3, r3
 80019ca:	2b00      	cmp	r3, #0
 80019cc:	d000      	beq.n	80019d0 <main+0x1c4>
 80019ce:	e167      	b.n	8001ca0 <main+0x494>
			 * c++;
			 * printf("Saya: %d\r\n",c);
			 */

//Scaklk verisindne gelen veriler eer -40 ile 100 derece arasnda doru kabul edilir ve alcya gnderilmek zere aadaki fonksiyona girer.
			if (-4000 <= temperature && temperature <= 9999 && 0 <= humidity&& humidity <= 9999) {
 80019d0:	68bb      	ldr	r3, [r7, #8]
 80019d2:	4a6c      	ldr	r2, [pc, #432]	; (8001b84 <main+0x378>)
 80019d4:	4293      	cmp	r3, r2
 80019d6:	da00      	bge.n	80019da <main+0x1ce>
 80019d8:	e13e      	b.n	8001c58 <main+0x44c>
 80019da:	68bb      	ldr	r3, [r7, #8]
 80019dc:	4a6a      	ldr	r2, [pc, #424]	; (8001b88 <main+0x37c>)
 80019de:	4293      	cmp	r3, r2
 80019e0:	dd00      	ble.n	80019e4 <main+0x1d8>
 80019e2:	e139      	b.n	8001c58 <main+0x44c>
 80019e4:	687b      	ldr	r3, [r7, #4]
 80019e6:	2b00      	cmp	r3, #0
 80019e8:	da00      	bge.n	80019ec <main+0x1e0>
 80019ea:	e135      	b.n	8001c58 <main+0x44c>
 80019ec:	687b      	ldr	r3, [r7, #4]
 80019ee:	4a66      	ldr	r2, [pc, #408]	; (8001b88 <main+0x37c>)
 80019f0:	4293      	cmp	r3, r2
 80019f2:	dd00      	ble.n	80019f6 <main+0x1ea>
 80019f4:	e130      	b.n	8001c58 <main+0x44c>

				if (temperature < -1000) {
 80019f6:	68bb      	ldr	r3, [r7, #8]
 80019f8:	4a64      	ldr	r2, [pc, #400]	; (8001b8c <main+0x380>)
 80019fa:	4293      	cmp	r3, r2
 80019fc:	da0d      	bge.n	8001a1a <main+0x20e>
					//printf("-10dan kucuk\r\n");
					// -1 ile arptm nk -'li ksm olmadan ilk 4 bitini gndermek istiyorum.
					temperature = temperature * -1;
 80019fe:	68bb      	ldr	r3, [r7, #8]
 8001a00:	425b      	negs	r3, r3
 8001a02:	60bb      	str	r3, [r7, #8]
					sprintf(buffer, "%d", temperature);
 8001a04:	68ba      	ldr	r2, [r7, #8]
 8001a06:	4962      	ldr	r1, [pc, #392]	; (8001b90 <main+0x384>)
 8001a08:	23a4      	movs	r3, #164	; 0xa4
 8001a0a:	18fb      	adds	r3, r7, r3
 8001a0c:	0018      	movs	r0, r3
 8001a0e:	f004 fefd 	bl	800680c <siprintf>
					//Tekrardan -1 ile arptm nk temperature - mi + m diye kontrol ederken geek scakla ihtiyacm var
					temperature = temperature * -1;
 8001a12:	68bb      	ldr	r3, [r7, #8]
 8001a14:	425b      	negs	r3, r3
 8001a16:	60bb      	str	r3, [r7, #8]
 8001a18:	e029      	b.n	8001a6e <main+0x262>
				} else if (temperature < 0) {
 8001a1a:	68bb      	ldr	r3, [r7, #8]
 8001a1c:	2b00      	cmp	r3, #0
 8001a1e:	da0d      	bge.n	8001a3c <main+0x230>
					// -1 ile arptm nk -'li ksm olmadan ilk 4 bitini gndermek istiyorum.
					temperature = temperature * -1;
 8001a20:	68bb      	ldr	r3, [r7, #8]
 8001a22:	425b      	negs	r3, r3
 8001a24:	60bb      	str	r3, [r7, #8]
					sprintf(buffer, "%d", temperature);
 8001a26:	68ba      	ldr	r2, [r7, #8]
 8001a28:	4959      	ldr	r1, [pc, #356]	; (8001b90 <main+0x384>)
 8001a2a:	23a4      	movs	r3, #164	; 0xa4
 8001a2c:	18fb      	adds	r3, r7, r3
 8001a2e:	0018      	movs	r0, r3
 8001a30:	f004 feec 	bl	800680c <siprintf>
					//printf("0'la -10 arasnda\r\n");
					//Tekrardan -1 ile arptm nk temperature - mi + m diye kontrol ederken geek scakla ihtiyacm var
					temperature = temperature * -1;
 8001a34:	68bb      	ldr	r3, [r7, #8]
 8001a36:	425b      	negs	r3, r3
 8001a38:	60bb      	str	r3, [r7, #8]
 8001a3a:	e018      	b.n	8001a6e <main+0x262>

				} else if (temperature < 1000) {
 8001a3c:	68ba      	ldr	r2, [r7, #8]
 8001a3e:	23fa      	movs	r3, #250	; 0xfa
 8001a40:	009b      	lsls	r3, r3, #2
 8001a42:	429a      	cmp	r2, r3
 8001a44:	da07      	bge.n	8001a56 <main+0x24a>

					//printf("0 ile 10 arasinda\r\n");
					sprintf(buffer, "%d", temperature);
 8001a46:	68ba      	ldr	r2, [r7, #8]
 8001a48:	4951      	ldr	r1, [pc, #324]	; (8001b90 <main+0x384>)
 8001a4a:	23a4      	movs	r3, #164	; 0xa4
 8001a4c:	18fb      	adds	r3, r7, r3
 8001a4e:	0018      	movs	r0, r3
 8001a50:	f004 fedc 	bl	800680c <siprintf>
 8001a54:	e00b      	b.n	8001a6e <main+0x262>

				} else if (temperature >= 1000) {
 8001a56:	68ba      	ldr	r2, [r7, #8]
 8001a58:	23fa      	movs	r3, #250	; 0xfa
 8001a5a:	009b      	lsls	r3, r3, #2
 8001a5c:	429a      	cmp	r2, r3
 8001a5e:	db06      	blt.n	8001a6e <main+0x262>
					sprintf(buffer, "%d", temperature); //Temperature/100 demedik nk ilk 4 bitini de alcya gndermek istiyoruz.100e blnmesi demek ,'den sonraki 2 saynn silinmesi demek rnein sonu 255 yani 25.5 derece eer ,'den sorna 2 hanenin gzkmesini istersek 10 diyeceiz yani sonu. 25.57
 8001a60:	68ba      	ldr	r2, [r7, #8]
 8001a62:	494b      	ldr	r1, [pc, #300]	; (8001b90 <main+0x384>)
 8001a64:	23a4      	movs	r3, #164	; 0xa4
 8001a66:	18fb      	adds	r3, r7, r3
 8001a68:	0018      	movs	r0, r3
 8001a6a:	f004 fecf 	bl	800680c <siprintf>

				}

				//  printf("measured temperature: %0.2f degreeCelsius","measured humidity: %0.2f percentRH\n",temperature / 1000.0f, humidity / 1000.0f);

				sprintf(buffer2, "%d", humidity);
 8001a6e:	687a      	ldr	r2, [r7, #4]
 8001a70:	4947      	ldr	r1, [pc, #284]	; (8001b90 <main+0x384>)
 8001a72:	2470      	movs	r4, #112	; 0x70
 8001a74:	193b      	adds	r3, r7, r4
 8001a76:	0018      	movs	r0, r3
 8001a78:	f004 fec8 	bl	800680c <siprintf>

				strncat(buffer, buffer2, 4); //sondaki say eklenecek karakter says
 8001a7c:	1939      	adds	r1, r7, r4
 8001a7e:	24a4      	movs	r4, #164	; 0xa4
 8001a80:	193b      	adds	r3, r7, r4
 8001a82:	2204      	movs	r2, #4
 8001a84:	0018      	movs	r0, r3
 8001a86:	f004 fee1 	bl	800684c <strncat>
				 HAL_UART_Transmit(&hlpuart1, (uint8_t *)buffer, 10, 1000);
				 HAL_UART_Transmit( &hlpuart1, (uint8_t *)"\r\n", 2, 100);
				 }*/

				//Buffer'a pil durumunu ekliyoruz
				int vddint = (int) VDD;
 8001a8a:	23e0      	movs	r3, #224	; 0xe0
 8001a8c:	18fb      	adds	r3, r7, r3
 8001a8e:	6818      	ldr	r0, [r3, #0]
 8001a90:	f7fe fffc 	bl	8000a8c <__aeabi_f2iz>
 8001a94:	0003      	movs	r3, r0
 8001a96:	22dc      	movs	r2, #220	; 0xdc
 8001a98:	18b9      	adds	r1, r7, r2
 8001a9a:	600b      	str	r3, [r1, #0]
				sprintf(buffer3, "%d", vddint);
 8001a9c:	18bb      	adds	r3, r7, r2
 8001a9e:	681a      	ldr	r2, [r3, #0]
 8001aa0:	493b      	ldr	r1, [pc, #236]	; (8001b90 <main+0x384>)
 8001aa2:	250c      	movs	r5, #12
 8001aa4:	197b      	adds	r3, r7, r5
 8001aa6:	0018      	movs	r0, r3
 8001aa8:	f004 feb0 	bl	800680c <siprintf>
				strncat(buffer, buffer3, 4); //sondaki say eklenecek karakter says
 8001aac:	1979      	adds	r1, r7, r5
 8001aae:	193b      	adds	r3, r7, r4
 8001ab0:	2204      	movs	r2, #4
 8001ab2:	0018      	movs	r0, r3
 8001ab4:	f004 feca 	bl	800684c <strncat>


				//Buffer'a scakln - mi + m durumunu ekliyoruz
				if (temperature < -1000) {
 8001ab8:	68bb      	ldr	r3, [r7, #8]
 8001aba:	4a34      	ldr	r2, [pc, #208]	; (8001b8c <main+0x380>)
 8001abc:	4293      	cmp	r3, r2
 8001abe:	da0f      	bge.n	8001ae0 <main+0x2d4>
					strncat(buffer, "-", 1); //+ - durumu
 8001ac0:	193b      	adds	r3, r7, r4
 8001ac2:	0018      	movs	r0, r3
 8001ac4:	f7fe fb20 	bl	8000108 <strlen>
 8001ac8:	0003      	movs	r3, r0
 8001aca:	001a      	movs	r2, r3
 8001acc:	193b      	adds	r3, r7, r4
 8001ace:	189a      	adds	r2, r3, r2
 8001ad0:	4b30      	ldr	r3, [pc, #192]	; (8001b94 <main+0x388>)
 8001ad2:	0010      	movs	r0, r2
 8001ad4:	0019      	movs	r1, r3
 8001ad6:	2302      	movs	r3, #2
 8001ad8:	001a      	movs	r2, r3
 8001ada:	f004 fe85 	bl	80067e8 <memcpy>
 8001ade:	e074      	b.n	8001bca <main+0x3be>
					//printf("-10dan kucuk");

				} else if (temperature < 0) {
 8001ae0:	68bb      	ldr	r3, [r7, #8]
 8001ae2:	2b00      	cmp	r3, #0
 8001ae4:	da10      	bge.n	8001b08 <main+0x2fc>
					strncat(buffer, "e-", 2); //+ - durumu
 8001ae6:	24a4      	movs	r4, #164	; 0xa4
 8001ae8:	193b      	adds	r3, r7, r4
 8001aea:	0018      	movs	r0, r3
 8001aec:	f7fe fb0c 	bl	8000108 <strlen>
 8001af0:	0003      	movs	r3, r0
 8001af2:	001a      	movs	r2, r3
 8001af4:	193b      	adds	r3, r7, r4
 8001af6:	189a      	adds	r2, r3, r2
 8001af8:	4b27      	ldr	r3, [pc, #156]	; (8001b98 <main+0x38c>)
 8001afa:	0010      	movs	r0, r2
 8001afc:	0019      	movs	r1, r3
 8001afe:	2303      	movs	r3, #3
 8001b00:	001a      	movs	r2, r3
 8001b02:	f004 fe71 	bl	80067e8 <memcpy>
 8001b06:	e060      	b.n	8001bca <main+0x3be>
					//printf("0 ile -10 arasinda");

				} else if (temperature < 1000) {
 8001b08:	68ba      	ldr	r2, [r7, #8]
 8001b0a:	23fa      	movs	r3, #250	; 0xfa
 8001b0c:	009b      	lsls	r3, r3, #2
 8001b0e:	429a      	cmp	r2, r3
 8001b10:	da46      	bge.n	8001ba0 <main+0x394>
					strncat(buffer, "e+", 2);
 8001b12:	24a4      	movs	r4, #164	; 0xa4
 8001b14:	193b      	adds	r3, r7, r4
 8001b16:	0018      	movs	r0, r3
 8001b18:	f7fe faf6 	bl	8000108 <strlen>
 8001b1c:	0003      	movs	r3, r0
 8001b1e:	001a      	movs	r2, r3
 8001b20:	193b      	adds	r3, r7, r4
 8001b22:	189a      	adds	r2, r3, r2
 8001b24:	4b1d      	ldr	r3, [pc, #116]	; (8001b9c <main+0x390>)
 8001b26:	0010      	movs	r0, r2
 8001b28:	0019      	movs	r1, r3
 8001b2a:	2303      	movs	r3, #3
 8001b2c:	001a      	movs	r2, r3
 8001b2e:	f004 fe5b 	bl	80067e8 <memcpy>
 8001b32:	e04a      	b.n	8001bca <main+0x3be>
 8001b34:	08007088 	.word	0x08007088
 8001b38:	20000344 	.word	0x20000344
 8001b3c:	0000ffff 	.word	0x0000ffff
 8001b40:	20000268 	.word	0x20000268
 8001b44:	08007094 	.word	0x08007094
 8001b48:	08007148 	.word	0x08007148
 8001b4c:	200002f2 	.word	0x200002f2
 8001b50:	200002f4 	.word	0x200002f4
 8001b54:	20000000 	.word	0x20000000
 8001b58:	20000030 	.word	0x20000030
 8001b5c:	20000060 	.word	0x20000060
 8001b60:	20000080 	.word	0x20000080
 8001b64:	200000e0 	.word	0x200000e0
 8001b68:	20000154 	.word	0x20000154
 8001b6c:	20000468 	.word	0x20000468
 8001b70:	40007000 	.word	0x40007000
 8001b74:	50000800 	.word	0x50000800
 8001b78:	00000bb8 	.word	0x00000bb8
 8001b7c:	1ff80078 	.word	0x1ff80078
 8001b80:	453b8000 	.word	0x453b8000
 8001b84:	fffff060 	.word	0xfffff060
 8001b88:	0000270f 	.word	0x0000270f
 8001b8c:	fffffc18 	.word	0xfffffc18
 8001b90:	080070b4 	.word	0x080070b4
 8001b94:	080070b8 	.word	0x080070b8
 8001b98:	080070bc 	.word	0x080070bc
 8001b9c:	080070c0 	.word	0x080070c0
					//printf("0 ile 10 arasinda");

				} else if (temperature >= 1000) {
 8001ba0:	68ba      	ldr	r2, [r7, #8]
 8001ba2:	23fa      	movs	r3, #250	; 0xfa
 8001ba4:	009b      	lsls	r3, r3, #2
 8001ba6:	429a      	cmp	r2, r3
 8001ba8:	db0f      	blt.n	8001bca <main+0x3be>
					strncat(buffer, "+", 1); //+ - durumu
 8001baa:	24a4      	movs	r4, #164	; 0xa4
 8001bac:	193b      	adds	r3, r7, r4
 8001bae:	0018      	movs	r0, r3
 8001bb0:	f7fe faaa 	bl	8000108 <strlen>
 8001bb4:	0003      	movs	r3, r0
 8001bb6:	001a      	movs	r2, r3
 8001bb8:	193b      	adds	r3, r7, r4
 8001bba:	189a      	adds	r2, r3, r2
 8001bbc:	4b5c      	ldr	r3, [pc, #368]	; (8001d30 <main+0x524>)
 8001bbe:	0010      	movs	r0, r2
 8001bc0:	0019      	movs	r1, r3
 8001bc2:	2302      	movs	r3, #2
 8001bc4:	001a      	movs	r2, r3
 8001bc6:	f004 fe0f 	bl	80067e8 <memcpy>
					//printf("10'dan buyuk \r\n");
					//printf("buffer: %s\r\n",buffer);
				}

				//Buffer'a seri numarasn ekliyoruz
				strncat(buffer, "A0000000001B", 12); //seri numaras 10 haneli A ve B arasnda
 8001bca:	24a4      	movs	r4, #164	; 0xa4
 8001bcc:	193b      	adds	r3, r7, r4
 8001bce:	0018      	movs	r0, r3
 8001bd0:	f7fe fa9a 	bl	8000108 <strlen>
 8001bd4:	0003      	movs	r3, r0
 8001bd6:	001a      	movs	r2, r3
 8001bd8:	193b      	adds	r3, r7, r4
 8001bda:	189a      	adds	r2, r3, r2
 8001bdc:	4b55      	ldr	r3, [pc, #340]	; (8001d34 <main+0x528>)
 8001bde:	0010      	movs	r0, r2
 8001be0:	0019      	movs	r1, r3
 8001be2:	230d      	movs	r3, #13
 8001be4:	001a      	movs	r2, r3
 8001be6:	f004 fdff 	bl	80067e8 <memcpy>
				//   strncat(buffer,"Asil3000000B", 12);
				//  strncat(buffer,"Asil4000000B", 12);
				//  strncat(buffer,"Asil5000000B", 12);
				// strncat(buffer,"Asil6000000B", 12);

				printf("buffer toplam: %s\r\n", buffer);
 8001bea:	193a      	adds	r2, r7, r4
 8001bec:	4952      	ldr	r1, [pc, #328]	; (8001d38 <main+0x52c>)
 8001bee:	4b53      	ldr	r3, [pc, #332]	; (8001d3c <main+0x530>)
 8001bf0:	0018      	movs	r0, r3
 8001bf2:	f004 fe0b 	bl	800680c <siprintf>
 8001bf6:	0003      	movs	r3, r0
 8001bf8:	b29a      	uxth	r2, r3
 8001bfa:	4b51      	ldr	r3, [pc, #324]	; (8001d40 <main+0x534>)
 8001bfc:	494f      	ldr	r1, [pc, #316]	; (8001d3c <main+0x530>)
 8001bfe:	4851      	ldr	r0, [pc, #324]	; (8001d44 <main+0x538>)
 8001c00:	f004 f8fe 	bl	8005e00 <HAL_UART_Transmit>
				 else HAL_UART_Transmit( &hlpuart1, (uint8_t *)"degsmedi\r\n",11, 100);
				 strcpy(bufferkontrol,buffer);
				 */

				//Buffer gnderiyioruz sonrasnda CMT2119 B transmitter uykuya sokuyoruz
				bSendMessage(buffer, strlen(buffer));
 8001c04:	193b      	adds	r3, r7, r4
 8001c06:	0018      	movs	r0, r3
 8001c08:	f7fe fa7e 	bl	8000108 <strlen>
 8001c0c:	0003      	movs	r3, r0
 8001c0e:	b2da      	uxtb	r2, r3
 8001c10:	193b      	adds	r3, r7, r4
 8001c12:	0011      	movs	r1, r2
 8001c14:	0018      	movs	r0, r3
 8001c16:	f7ff fd76 	bl	8001706 <bSendMessage>
				while (GPO3_L());
 8001c1a:	46c0      	nop			; (mov r8, r8)
 8001c1c:	2380      	movs	r3, #128	; 0x80
 8001c1e:	015a      	lsls	r2, r3, #5
 8001c20:	23a0      	movs	r3, #160	; 0xa0
 8001c22:	05db      	lsls	r3, r3, #23
 8001c24:	0011      	movs	r1, r2
 8001c26:	0018      	movs	r0, r3
 8001c28:	f002 f974 	bl	8003f14 <HAL_GPIO_ReadPin>
 8001c2c:	1e03      	subs	r3, r0, #0
 8001c2e:	d0f5      	beq.n	8001c1c <main+0x410>
				bIntSrcFlagClr();
 8001c30:	f7ff fcc6 	bl	80015c0 <bIntSrcFlagClr>
				vClearFIFO();
 8001c34:	f7ff fcdc 	bl	80015f0 <vClearFIFO>
				bGoSleep();
 8001c38:	f7ff fbac 	bl	8001394 <bGoSleep>
				printf("gonderildi\r\n");
 8001c3c:	4a42      	ldr	r2, [pc, #264]	; (8001d48 <main+0x53c>)
 8001c3e:	4b3f      	ldr	r3, [pc, #252]	; (8001d3c <main+0x530>)
 8001c40:	0011      	movs	r1, r2
 8001c42:	0018      	movs	r0, r3
 8001c44:	f004 fde2 	bl	800680c <siprintf>
 8001c48:	0003      	movs	r3, r0
 8001c4a:	b29a      	uxth	r2, r3
 8001c4c:	4b3c      	ldr	r3, [pc, #240]	; (8001d40 <main+0x534>)
 8001c4e:	493b      	ldr	r1, [pc, #236]	; (8001d3c <main+0x530>)
 8001c50:	483c      	ldr	r0, [pc, #240]	; (8001d44 <main+0x538>)
 8001c52:	f004 f8d5 	bl	8005e00 <HAL_UART_Transmit>
			if (-4000 <= temperature && temperature <= 9999 && 0 <= humidity&& humidity <= 9999) {
 8001c56:	e023      	b.n	8001ca0 <main+0x494>
				// HAL_Delay(4000);

			} else {
				//Eger sensorden yanlis veri gelirse veya sensor bozulursa aliciya hatali mesajini gnderir
				printf("gonderilmedi\r\n");
 8001c58:	4a3c      	ldr	r2, [pc, #240]	; (8001d4c <main+0x540>)
 8001c5a:	4b38      	ldr	r3, [pc, #224]	; (8001d3c <main+0x530>)
 8001c5c:	0011      	movs	r1, r2
 8001c5e:	0018      	movs	r0, r3
 8001c60:	f004 fdd4 	bl	800680c <siprintf>
 8001c64:	0003      	movs	r3, r0
 8001c66:	b29a      	uxth	r2, r3
 8001c68:	4b35      	ldr	r3, [pc, #212]	; (8001d40 <main+0x534>)
 8001c6a:	4934      	ldr	r1, [pc, #208]	; (8001d3c <main+0x530>)
 8001c6c:	4835      	ldr	r0, [pc, #212]	; (8001d44 <main+0x538>)
 8001c6e:	f004 f8c7 	bl	8005e00 <HAL_UART_Transmit>
				bSendMessage(tx_buf, 22);
 8001c72:	23c0      	movs	r3, #192	; 0xc0
 8001c74:	18fb      	adds	r3, r7, r3
 8001c76:	2116      	movs	r1, #22
 8001c78:	0018      	movs	r0, r3
 8001c7a:	f7ff fd44 	bl	8001706 <bSendMessage>
				while (GPO3_L())
 8001c7e:	46c0      	nop			; (mov r8, r8)
 8001c80:	2380      	movs	r3, #128	; 0x80
 8001c82:	015a      	lsls	r2, r3, #5
 8001c84:	23a0      	movs	r3, #160	; 0xa0
 8001c86:	05db      	lsls	r3, r3, #23
 8001c88:	0011      	movs	r1, r2
 8001c8a:	0018      	movs	r0, r3
 8001c8c:	f002 f942 	bl	8003f14 <HAL_GPIO_ReadPin>
 8001c90:	1e03      	subs	r3, r0, #0
 8001c92:	d0f5      	beq.n	8001c80 <main+0x474>
					;
				bIntSrcFlagClr();
 8001c94:	f7ff fc94 	bl	80015c0 <bIntSrcFlagClr>
				vClearFIFO();
 8001c98:	f7ff fcaa 	bl	80015f0 <vClearFIFO>
				bGoSleep();
 8001c9c:	f7ff fb7a 	bl	8001394 <bGoSleep>

		} else {

		}

		HAL_PWR_DisableWakeUpPin(PWR_WAKEUP_PIN1);  // disable PA0
 8001ca0:	2380      	movs	r3, #128	; 0x80
 8001ca2:	005b      	lsls	r3, r3, #1
 8001ca4:	0018      	movs	r0, r3
 8001ca6:	f002 fee5 	bl	8004a74 <HAL_PWR_DisableWakeUpPin>
		/** Deactivate the RTC wakeup  **/
		HAL_RTCEx_DeactivateWakeUpTimer(&hrtc);
 8001caa:	4b29      	ldr	r3, [pc, #164]	; (8001d50 <main+0x544>)
 8001cac:	0018      	movs	r0, r3
 8001cae:	f003 ff85 	bl	8005bbc <HAL_RTCEx_DeactivateWakeUpTimer>
	}

	__HAL_PWR_CLEAR_FLAG(PWR_FLAG_WU);
 8001cb2:	4b28      	ldr	r3, [pc, #160]	; (8001d54 <main+0x548>)
 8001cb4:	681a      	ldr	r2, [r3, #0]
 8001cb6:	4b27      	ldr	r3, [pc, #156]	; (8001d54 <main+0x548>)
 8001cb8:	2104      	movs	r1, #4
 8001cba:	430a      	orrs	r2, r1
 8001cbc:	601a      	str	r2, [r3, #0]
	__HAL_RTC_WAKEUPTIMER_CLEAR_FLAG(&hrtc, RTC_FLAG_WUTF);
 8001cbe:	4b24      	ldr	r3, [pc, #144]	; (8001d50 <main+0x544>)
 8001cc0:	681b      	ldr	r3, [r3, #0]
 8001cc2:	68db      	ldr	r3, [r3, #12]
 8001cc4:	22ff      	movs	r2, #255	; 0xff
 8001cc6:	401a      	ands	r2, r3
 8001cc8:	4b21      	ldr	r3, [pc, #132]	; (8001d50 <main+0x544>)
 8001cca:	681b      	ldr	r3, [r3, #0]
 8001ccc:	4922      	ldr	r1, [pc, #136]	; (8001d58 <main+0x54c>)
 8001cce:	430a      	orrs	r2, r1
 8001cd0:	60da      	str	r2, [r3, #12]
	printf("About to enter the STANDBY MODE\r\n");
 8001cd2:	4a22      	ldr	r2, [pc, #136]	; (8001d5c <main+0x550>)
 8001cd4:	4b19      	ldr	r3, [pc, #100]	; (8001d3c <main+0x530>)
 8001cd6:	0011      	movs	r1, r2
 8001cd8:	0018      	movs	r0, r3
 8001cda:	f004 fd97 	bl	800680c <siprintf>
 8001cde:	0003      	movs	r3, r0
 8001ce0:	b29a      	uxth	r2, r3
 8001ce2:	4b17      	ldr	r3, [pc, #92]	; (8001d40 <main+0x534>)
 8001ce4:	4915      	ldr	r1, [pc, #84]	; (8001d3c <main+0x530>)
 8001ce6:	4817      	ldr	r0, [pc, #92]	; (8001d44 <main+0x538>)
 8001ce8:	f004 f88a 	bl	8005e00 <HAL_UART_Transmit>

	HAL_PWR_EnableWakeUpPin(PWR_WAKEUP_PIN1);
 8001cec:	2380      	movs	r3, #128	; 0x80
 8001cee:	005b      	lsls	r3, r3, #1
 8001cf0:	0018      	movs	r0, r3
 8001cf2:	f002 feaf 	bl	8004a54 <HAL_PWR_EnableWakeUpPin>
	if (HAL_RTCEx_SetWakeUpTimer_IT(&hrtc, 0x5A55, RTC_WAKEUPCLOCK_RTCCLK_DIV16)
 8001cf6:	491a      	ldr	r1, [pc, #104]	; (8001d60 <main+0x554>)
 8001cf8:	4b15      	ldr	r3, [pc, #84]	; (8001d50 <main+0x544>)
 8001cfa:	2200      	movs	r2, #0
 8001cfc:	0018      	movs	r0, r3
 8001cfe:	f003 fe97 	bl	8005a30 <HAL_RTCEx_SetWakeUpTimer_IT>
 8001d02:	1e03      	subs	r3, r0, #0
 8001d04:	d001      	beq.n	8001d0a <main+0x4fe>
			!= HAL_OK) {
		Error_Handler();
 8001d06:	f000 fa91 	bl	800222c <Error_Handler>
	}
	printf("STANDBY MODE is ON\r\n");
 8001d0a:	4a16      	ldr	r2, [pc, #88]	; (8001d64 <main+0x558>)
 8001d0c:	4b0b      	ldr	r3, [pc, #44]	; (8001d3c <main+0x530>)
 8001d0e:	0011      	movs	r1, r2
 8001d10:	0018      	movs	r0, r3
 8001d12:	f004 fd7b 	bl	800680c <siprintf>
 8001d16:	0003      	movs	r3, r0
 8001d18:	b29a      	uxth	r2, r3
 8001d1a:	4b09      	ldr	r3, [pc, #36]	; (8001d40 <main+0x534>)
 8001d1c:	4907      	ldr	r1, [pc, #28]	; (8001d3c <main+0x530>)
 8001d1e:	4809      	ldr	r0, [pc, #36]	; (8001d44 <main+0x538>)
 8001d20:	f004 f86e 	bl	8005e00 <HAL_UART_Transmit>
	GPIO_ALL_DisEnable(); //G harcamamas iin btn evre birimlerini kapatyoruz
 8001d24:	f000 fa1e 	bl	8002164 <GPIO_ALL_DisEnable>

	HAL_PWR_EnterSTANDBYMode(); //uyku moduna alyoruz
 8001d28:	f002 feb6 	bl	8004a98 <HAL_PWR_EnterSTANDBYMode>

  /* USER CODE END 2 */

  /* Infinite loop */
  /* USER CODE BEGIN WHILE */
	while (1) {
 8001d2c:	e7fe      	b.n	8001d2c <main+0x520>
 8001d2e:	46c0      	nop			; (mov r8, r8)
 8001d30:	080070c4 	.word	0x080070c4
 8001d34:	080070c8 	.word	0x080070c8
 8001d38:	080070d8 	.word	0x080070d8
 8001d3c:	20000344 	.word	0x20000344
 8001d40:	0000ffff 	.word	0x0000ffff
 8001d44:	20000268 	.word	0x20000268
 8001d48:	080070ec 	.word	0x080070ec
 8001d4c:	080070fc 	.word	0x080070fc
 8001d50:	20000444 	.word	0x20000444
 8001d54:	40007000 	.word	0x40007000
 8001d58:	fffffb7f 	.word	0xfffffb7f
 8001d5c:	0800710c 	.word	0x0800710c
 8001d60:	00005a55 	.word	0x00005a55
 8001d64:	08007130 	.word	0x08007130

08001d68 <SystemClock_Config>:
/**
  * @brief System Clock Configuration
  * @retval None
  */
void SystemClock_Config(void)
{
 8001d68:	b590      	push	{r4, r7, lr}
 8001d6a:	b099      	sub	sp, #100	; 0x64
 8001d6c:	af00      	add	r7, sp, #0
  RCC_OscInitTypeDef RCC_OscInitStruct = {0};
 8001d6e:	242c      	movs	r4, #44	; 0x2c
 8001d70:	193b      	adds	r3, r7, r4
 8001d72:	0018      	movs	r0, r3
 8001d74:	2334      	movs	r3, #52	; 0x34
 8001d76:	001a      	movs	r2, r3
 8001d78:	2100      	movs	r1, #0
 8001d7a:	f004 fd3e 	bl	80067fa <memset>
  RCC_ClkInitTypeDef RCC_ClkInitStruct = {0};
 8001d7e:	2318      	movs	r3, #24
 8001d80:	18fb      	adds	r3, r7, r3
 8001d82:	0018      	movs	r0, r3
 8001d84:	2314      	movs	r3, #20
 8001d86:	001a      	movs	r2, r3
 8001d88:	2100      	movs	r1, #0
 8001d8a:	f004 fd36 	bl	80067fa <memset>
  RCC_PeriphCLKInitTypeDef PeriphClkInit = {0};
 8001d8e:	003b      	movs	r3, r7
 8001d90:	0018      	movs	r0, r3
 8001d92:	2318      	movs	r3, #24
 8001d94:	001a      	movs	r2, r3
 8001d96:	2100      	movs	r1, #0
 8001d98:	f004 fd2f 	bl	80067fa <memset>

  /** Configure the main internal regulator output voltage
  */
  __HAL_PWR_VOLTAGESCALING_CONFIG(PWR_REGULATOR_VOLTAGE_SCALE1);
 8001d9c:	4b2b      	ldr	r3, [pc, #172]	; (8001e4c <SystemClock_Config+0xe4>)
 8001d9e:	681b      	ldr	r3, [r3, #0]
 8001da0:	4a2b      	ldr	r2, [pc, #172]	; (8001e50 <SystemClock_Config+0xe8>)
 8001da2:	401a      	ands	r2, r3
 8001da4:	4b29      	ldr	r3, [pc, #164]	; (8001e4c <SystemClock_Config+0xe4>)
 8001da6:	2180      	movs	r1, #128	; 0x80
 8001da8:	0109      	lsls	r1, r1, #4
 8001daa:	430a      	orrs	r2, r1
 8001dac:	601a      	str	r2, [r3, #0]
  /** Initializes the RCC Oscillators according to the specified parameters
  * in the RCC_OscInitTypeDef structure.
  */
  RCC_OscInitStruct.OscillatorType = RCC_OSCILLATORTYPE_LSI|RCC_OSCILLATORTYPE_MSI;
 8001dae:	0021      	movs	r1, r4
 8001db0:	187b      	adds	r3, r7, r1
 8001db2:	2218      	movs	r2, #24
 8001db4:	601a      	str	r2, [r3, #0]
  RCC_OscInitStruct.LSIState = RCC_LSI_ON;
 8001db6:	187b      	adds	r3, r7, r1
 8001db8:	2201      	movs	r2, #1
 8001dba:	615a      	str	r2, [r3, #20]
  RCC_OscInitStruct.MSIState = RCC_MSI_ON;
 8001dbc:	187b      	adds	r3, r7, r1
 8001dbe:	2201      	movs	r2, #1
 8001dc0:	619a      	str	r2, [r3, #24]
  RCC_OscInitStruct.MSICalibrationValue = 0;
 8001dc2:	187b      	adds	r3, r7, r1
 8001dc4:	2200      	movs	r2, #0
 8001dc6:	61da      	str	r2, [r3, #28]
  RCC_OscInitStruct.MSIClockRange = RCC_MSIRANGE_5;
 8001dc8:	187b      	adds	r3, r7, r1
 8001dca:	22a0      	movs	r2, #160	; 0xa0
 8001dcc:	0212      	lsls	r2, r2, #8
 8001dce:	621a      	str	r2, [r3, #32]
  RCC_OscInitStruct.PLL.PLLState = RCC_PLL_NONE;
 8001dd0:	187b      	adds	r3, r7, r1
 8001dd2:	2200      	movs	r2, #0
 8001dd4:	625a      	str	r2, [r3, #36]	; 0x24
  if (HAL_RCC_OscConfig(&RCC_OscInitStruct) != HAL_OK)
 8001dd6:	187b      	adds	r3, r7, r1
 8001dd8:	0018      	movs	r0, r3
 8001dda:	f002 fe73 	bl	8004ac4 <HAL_RCC_OscConfig>
 8001dde:	1e03      	subs	r3, r0, #0
 8001de0:	d001      	beq.n	8001de6 <SystemClock_Config+0x7e>
  {
    Error_Handler();
 8001de2:	f000 fa23 	bl	800222c <Error_Handler>
  }
  /** Initializes the CPU, AHB and APB buses clocks
  */
  RCC_ClkInitStruct.ClockType = RCC_CLOCKTYPE_HCLK|RCC_CLOCKTYPE_SYSCLK
 8001de6:	2118      	movs	r1, #24
 8001de8:	187b      	adds	r3, r7, r1
 8001dea:	220f      	movs	r2, #15
 8001dec:	601a      	str	r2, [r3, #0]
                              |RCC_CLOCKTYPE_PCLK1|RCC_CLOCKTYPE_PCLK2;
  RCC_ClkInitStruct.SYSCLKSource = RCC_SYSCLKSOURCE_MSI;
 8001dee:	187b      	adds	r3, r7, r1
 8001df0:	2200      	movs	r2, #0
 8001df2:	605a      	str	r2, [r3, #4]
  RCC_ClkInitStruct.AHBCLKDivider = RCC_SYSCLK_DIV1;
 8001df4:	187b      	adds	r3, r7, r1
 8001df6:	2200      	movs	r2, #0
 8001df8:	609a      	str	r2, [r3, #8]
  RCC_ClkInitStruct.APB1CLKDivider = RCC_HCLK_DIV1;
 8001dfa:	187b      	adds	r3, r7, r1
 8001dfc:	2200      	movs	r2, #0
 8001dfe:	60da      	str	r2, [r3, #12]
  RCC_ClkInitStruct.APB2CLKDivider = RCC_HCLK_DIV1;
 8001e00:	187b      	adds	r3, r7, r1
 8001e02:	2200      	movs	r2, #0
 8001e04:	611a      	str	r2, [r3, #16]

  if (HAL_RCC_ClockConfig(&RCC_ClkInitStruct, FLASH_LATENCY_0) != HAL_OK)
 8001e06:	187b      	adds	r3, r7, r1
 8001e08:	2100      	movs	r1, #0
 8001e0a:	0018      	movs	r0, r3
 8001e0c:	f003 f9d6 	bl	80051bc <HAL_RCC_ClockConfig>
 8001e10:	1e03      	subs	r3, r0, #0
 8001e12:	d001      	beq.n	8001e18 <SystemClock_Config+0xb0>
  {
    Error_Handler();
 8001e14:	f000 fa0a 	bl	800222c <Error_Handler>
  }
  PeriphClkInit.PeriphClockSelection = RCC_PERIPHCLK_LPUART1|RCC_PERIPHCLK_I2C1
 8001e18:	003b      	movs	r3, r7
 8001e1a:	222c      	movs	r2, #44	; 0x2c
 8001e1c:	601a      	str	r2, [r3, #0]
                              |RCC_PERIPHCLK_RTC;
  PeriphClkInit.Lpuart1ClockSelection = RCC_LPUART1CLKSOURCE_PCLK1;
 8001e1e:	003b      	movs	r3, r7
 8001e20:	2200      	movs	r2, #0
 8001e22:	60da      	str	r2, [r3, #12]
  PeriphClkInit.I2c1ClockSelection = RCC_I2C1CLKSOURCE_PCLK1;
 8001e24:	003b      	movs	r3, r7
 8001e26:	2200      	movs	r2, #0
 8001e28:	611a      	str	r2, [r3, #16]
  PeriphClkInit.RTCClockSelection = RCC_RTCCLKSOURCE_LSI;
 8001e2a:	003b      	movs	r3, r7
 8001e2c:	2280      	movs	r2, #128	; 0x80
 8001e2e:	0292      	lsls	r2, r2, #10
 8001e30:	605a      	str	r2, [r3, #4]
  if (HAL_RCCEx_PeriphCLKConfig(&PeriphClkInit) != HAL_OK)
 8001e32:	003b      	movs	r3, r7
 8001e34:	0018      	movs	r0, r3
 8001e36:	f003 fbe5 	bl	8005604 <HAL_RCCEx_PeriphCLKConfig>
 8001e3a:	1e03      	subs	r3, r0, #0
 8001e3c:	d001      	beq.n	8001e42 <SystemClock_Config+0xda>
  {
    Error_Handler();
 8001e3e:	f000 f9f5 	bl	800222c <Error_Handler>
  }
}
 8001e42:	46c0      	nop			; (mov r8, r8)
 8001e44:	46bd      	mov	sp, r7
 8001e46:	b019      	add	sp, #100	; 0x64
 8001e48:	bd90      	pop	{r4, r7, pc}
 8001e4a:	46c0      	nop			; (mov r8, r8)
 8001e4c:	40007000 	.word	0x40007000
 8001e50:	ffffe7ff 	.word	0xffffe7ff

08001e54 <MX_ADC_Init>:
  * @brief ADC Initialization Function
  * @param None
  * @retval None
  */
static void MX_ADC_Init(void)
{
 8001e54:	b580      	push	{r7, lr}
 8001e56:	b082      	sub	sp, #8
 8001e58:	af00      	add	r7, sp, #0

  /* USER CODE BEGIN ADC_Init 0 */

  /* USER CODE END ADC_Init 0 */

  ADC_ChannelConfTypeDef sConfig = {0};
 8001e5a:	003b      	movs	r3, r7
 8001e5c:	0018      	movs	r0, r3
 8001e5e:	2308      	movs	r3, #8
 8001e60:	001a      	movs	r2, r3
 8001e62:	2100      	movs	r1, #0
 8001e64:	f004 fcc9 	bl	80067fa <memset>
  /* USER CODE BEGIN ADC_Init 1 */

  /* USER CODE END ADC_Init 1 */
  /** Configure the global features of the ADC (Clock, Resolution, Data Alignment and number of conversion)
  */
  hadc.Instance = ADC1;
 8001e68:	4b2a      	ldr	r3, [pc, #168]	; (8001f14 <MX_ADC_Init+0xc0>)
 8001e6a:	4a2b      	ldr	r2, [pc, #172]	; (8001f18 <MX_ADC_Init+0xc4>)
 8001e6c:	601a      	str	r2, [r3, #0]
  hadc.Init.OversamplingMode = DISABLE;
 8001e6e:	4b29      	ldr	r3, [pc, #164]	; (8001f14 <MX_ADC_Init+0xc0>)
 8001e70:	2200      	movs	r2, #0
 8001e72:	63da      	str	r2, [r3, #60]	; 0x3c
  hadc.Init.ClockPrescaler = ADC_CLOCK_SYNC_PCLK_DIV1;
 8001e74:	4b27      	ldr	r3, [pc, #156]	; (8001f14 <MX_ADC_Init+0xc0>)
 8001e76:	22c0      	movs	r2, #192	; 0xc0
 8001e78:	0612      	lsls	r2, r2, #24
 8001e7a:	605a      	str	r2, [r3, #4]
  hadc.Init.Resolution = ADC_RESOLUTION_12B;
 8001e7c:	4b25      	ldr	r3, [pc, #148]	; (8001f14 <MX_ADC_Init+0xc0>)
 8001e7e:	2200      	movs	r2, #0
 8001e80:	609a      	str	r2, [r3, #8]
  hadc.Init.SamplingTime = ADC_SAMPLETIME_1CYCLE_5;
 8001e82:	4b24      	ldr	r3, [pc, #144]	; (8001f14 <MX_ADC_Init+0xc0>)
 8001e84:	2200      	movs	r2, #0
 8001e86:	639a      	str	r2, [r3, #56]	; 0x38
  hadc.Init.ScanConvMode = ADC_SCAN_DIRECTION_FORWARD;
 8001e88:	4b22      	ldr	r3, [pc, #136]	; (8001f14 <MX_ADC_Init+0xc0>)
 8001e8a:	2201      	movs	r2, #1
 8001e8c:	611a      	str	r2, [r3, #16]
  hadc.Init.DataAlign = ADC_DATAALIGN_RIGHT;
 8001e8e:	4b21      	ldr	r3, [pc, #132]	; (8001f14 <MX_ADC_Init+0xc0>)
 8001e90:	2200      	movs	r2, #0
 8001e92:	60da      	str	r2, [r3, #12]
  hadc.Init.ContinuousConvMode = DISABLE;
 8001e94:	4b1f      	ldr	r3, [pc, #124]	; (8001f14 <MX_ADC_Init+0xc0>)
 8001e96:	2220      	movs	r2, #32
 8001e98:	2100      	movs	r1, #0
 8001e9a:	5499      	strb	r1, [r3, r2]
  hadc.Init.DiscontinuousConvMode = DISABLE;
 8001e9c:	4b1d      	ldr	r3, [pc, #116]	; (8001f14 <MX_ADC_Init+0xc0>)
 8001e9e:	2221      	movs	r2, #33	; 0x21
 8001ea0:	2100      	movs	r1, #0
 8001ea2:	5499      	strb	r1, [r3, r2]
  hadc.Init.ExternalTrigConvEdge = ADC_EXTERNALTRIGCONVEDGE_NONE;
 8001ea4:	4b1b      	ldr	r3, [pc, #108]	; (8001f14 <MX_ADC_Init+0xc0>)
 8001ea6:	2200      	movs	r2, #0
 8001ea8:	629a      	str	r2, [r3, #40]	; 0x28
  hadc.Init.ExternalTrigConv = ADC_SOFTWARE_START;
 8001eaa:	4b1a      	ldr	r3, [pc, #104]	; (8001f14 <MX_ADC_Init+0xc0>)
 8001eac:	22c2      	movs	r2, #194	; 0xc2
 8001eae:	32ff      	adds	r2, #255	; 0xff
 8001eb0:	625a      	str	r2, [r3, #36]	; 0x24
  hadc.Init.DMAContinuousRequests = DISABLE;
 8001eb2:	4b18      	ldr	r3, [pc, #96]	; (8001f14 <MX_ADC_Init+0xc0>)
 8001eb4:	222c      	movs	r2, #44	; 0x2c
 8001eb6:	2100      	movs	r1, #0
 8001eb8:	5499      	strb	r1, [r3, r2]
  hadc.Init.EOCSelection = ADC_EOC_SINGLE_CONV;
 8001eba:	4b16      	ldr	r3, [pc, #88]	; (8001f14 <MX_ADC_Init+0xc0>)
 8001ebc:	2204      	movs	r2, #4
 8001ebe:	615a      	str	r2, [r3, #20]
  hadc.Init.Overrun = ADC_OVR_DATA_PRESERVED;
 8001ec0:	4b14      	ldr	r3, [pc, #80]	; (8001f14 <MX_ADC_Init+0xc0>)
 8001ec2:	2200      	movs	r2, #0
 8001ec4:	631a      	str	r2, [r3, #48]	; 0x30
  hadc.Init.LowPowerAutoWait = DISABLE;
 8001ec6:	4b13      	ldr	r3, [pc, #76]	; (8001f14 <MX_ADC_Init+0xc0>)
 8001ec8:	2200      	movs	r2, #0
 8001eca:	619a      	str	r2, [r3, #24]
  hadc.Init.LowPowerFrequencyMode = ENABLE;
 8001ecc:	4b11      	ldr	r3, [pc, #68]	; (8001f14 <MX_ADC_Init+0xc0>)
 8001ece:	2201      	movs	r2, #1
 8001ed0:	635a      	str	r2, [r3, #52]	; 0x34
  hadc.Init.LowPowerAutoPowerOff = DISABLE;
 8001ed2:	4b10      	ldr	r3, [pc, #64]	; (8001f14 <MX_ADC_Init+0xc0>)
 8001ed4:	2200      	movs	r2, #0
 8001ed6:	61da      	str	r2, [r3, #28]
  if (HAL_ADC_Init(&hadc) != HAL_OK)
 8001ed8:	4b0e      	ldr	r3, [pc, #56]	; (8001f14 <MX_ADC_Init+0xc0>)
 8001eda:	0018      	movs	r0, r3
 8001edc:	f000 ff6e 	bl	8002dbc <HAL_ADC_Init>
 8001ee0:	1e03      	subs	r3, r0, #0
 8001ee2:	d001      	beq.n	8001ee8 <MX_ADC_Init+0x94>
  {
    Error_Handler();
 8001ee4:	f000 f9a2 	bl	800222c <Error_Handler>
  }
  /** Configure for the selected ADC regular channel to be converted.
  */
  sConfig.Channel = ADC_CHANNEL_VREFINT;
 8001ee8:	003b      	movs	r3, r7
 8001eea:	4a0c      	ldr	r2, [pc, #48]	; (8001f1c <MX_ADC_Init+0xc8>)
 8001eec:	601a      	str	r2, [r3, #0]
  sConfig.Rank = ADC_RANK_CHANNEL_NUMBER;
 8001eee:	003b      	movs	r3, r7
 8001ef0:	2280      	movs	r2, #128	; 0x80
 8001ef2:	0152      	lsls	r2, r2, #5
 8001ef4:	605a      	str	r2, [r3, #4]
  if (HAL_ADC_ConfigChannel(&hadc, &sConfig) != HAL_OK)
 8001ef6:	003a      	movs	r2, r7
 8001ef8:	4b06      	ldr	r3, [pc, #24]	; (8001f14 <MX_ADC_Init+0xc0>)
 8001efa:	0011      	movs	r1, r2
 8001efc:	0018      	movs	r0, r3
 8001efe:	f001 faa9 	bl	8003454 <HAL_ADC_ConfigChannel>
 8001f02:	1e03      	subs	r3, r0, #0
 8001f04:	d001      	beq.n	8001f0a <MX_ADC_Init+0xb6>
  {
    Error_Handler();
 8001f06:	f000 f991 	bl	800222c <Error_Handler>
  }
  /* USER CODE BEGIN ADC_Init 2 */

  /* USER CODE END ADC_Init 2 */

}
 8001f0a:	46c0      	nop			; (mov r8, r8)
 8001f0c:	46bd      	mov	sp, r7
 8001f0e:	b002      	add	sp, #8
 8001f10:	bd80      	pop	{r7, pc}
 8001f12:	46c0      	nop			; (mov r8, r8)
 8001f14:	20000468 	.word	0x20000468
 8001f18:	40012400 	.word	0x40012400
 8001f1c:	44020000 	.word	0x44020000

08001f20 <MX_I2C1_Init>:
  * @brief I2C1 Initialization Function
  * @param None
  * @retval None
  */
static void MX_I2C1_Init(void)
{
 8001f20:	b580      	push	{r7, lr}
 8001f22:	af00      	add	r7, sp, #0
  /* USER CODE END I2C1_Init 0 */

  /* USER CODE BEGIN I2C1_Init 1 */

  /* USER CODE END I2C1_Init 1 */
  hi2c1.Instance = I2C1;
 8001f24:	4b1c      	ldr	r3, [pc, #112]	; (8001f98 <MX_I2C1_Init+0x78>)
 8001f26:	4a1d      	ldr	r2, [pc, #116]	; (8001f9c <MX_I2C1_Init+0x7c>)
 8001f28:	601a      	str	r2, [r3, #0]
  hi2c1.Init.Timing = 0x00000708;
 8001f2a:	4b1b      	ldr	r3, [pc, #108]	; (8001f98 <MX_I2C1_Init+0x78>)
 8001f2c:	22e1      	movs	r2, #225	; 0xe1
 8001f2e:	00d2      	lsls	r2, r2, #3
 8001f30:	605a      	str	r2, [r3, #4]
  hi2c1.Init.OwnAddress1 = 0;
 8001f32:	4b19      	ldr	r3, [pc, #100]	; (8001f98 <MX_I2C1_Init+0x78>)
 8001f34:	2200      	movs	r2, #0
 8001f36:	609a      	str	r2, [r3, #8]
  hi2c1.Init.AddressingMode = I2C_ADDRESSINGMODE_7BIT;
 8001f38:	4b17      	ldr	r3, [pc, #92]	; (8001f98 <MX_I2C1_Init+0x78>)
 8001f3a:	2201      	movs	r2, #1
 8001f3c:	60da      	str	r2, [r3, #12]
  hi2c1.Init.DualAddressMode = I2C_DUALADDRESS_DISABLE;
 8001f3e:	4b16      	ldr	r3, [pc, #88]	; (8001f98 <MX_I2C1_Init+0x78>)
 8001f40:	2200      	movs	r2, #0
 8001f42:	611a      	str	r2, [r3, #16]
  hi2c1.Init.OwnAddress2 = 0;
 8001f44:	4b14      	ldr	r3, [pc, #80]	; (8001f98 <MX_I2C1_Init+0x78>)
 8001f46:	2200      	movs	r2, #0
 8001f48:	615a      	str	r2, [r3, #20]
  hi2c1.Init.OwnAddress2Masks = I2C_OA2_NOMASK;
 8001f4a:	4b13      	ldr	r3, [pc, #76]	; (8001f98 <MX_I2C1_Init+0x78>)
 8001f4c:	2200      	movs	r2, #0
 8001f4e:	619a      	str	r2, [r3, #24]
  hi2c1.Init.GeneralCallMode = I2C_GENERALCALL_DISABLE;
 8001f50:	4b11      	ldr	r3, [pc, #68]	; (8001f98 <MX_I2C1_Init+0x78>)
 8001f52:	2200      	movs	r2, #0
 8001f54:	61da      	str	r2, [r3, #28]
  hi2c1.Init.NoStretchMode = I2C_NOSTRETCH_DISABLE;
 8001f56:	4b10      	ldr	r3, [pc, #64]	; (8001f98 <MX_I2C1_Init+0x78>)
 8001f58:	2200      	movs	r2, #0
 8001f5a:	621a      	str	r2, [r3, #32]
  if (HAL_I2C_Init(&hi2c1) != HAL_OK)
 8001f5c:	4b0e      	ldr	r3, [pc, #56]	; (8001f98 <MX_I2C1_Init+0x78>)
 8001f5e:	0018      	movs	r0, r3
 8001f60:	f002 f812 	bl	8003f88 <HAL_I2C_Init>
 8001f64:	1e03      	subs	r3, r0, #0
 8001f66:	d001      	beq.n	8001f6c <MX_I2C1_Init+0x4c>
  {
    Error_Handler();
 8001f68:	f000 f960 	bl	800222c <Error_Handler>
  }
  /** Configure Analogue filter
  */
  if (HAL_I2CEx_ConfigAnalogFilter(&hi2c1, I2C_ANALOGFILTER_ENABLE) != HAL_OK)
 8001f6c:	4b0a      	ldr	r3, [pc, #40]	; (8001f98 <MX_I2C1_Init+0x78>)
 8001f6e:	2100      	movs	r1, #0
 8001f70:	0018      	movs	r0, r3
 8001f72:	f002 fcd7 	bl	8004924 <HAL_I2CEx_ConfigAnalogFilter>
 8001f76:	1e03      	subs	r3, r0, #0
 8001f78:	d001      	beq.n	8001f7e <MX_I2C1_Init+0x5e>
  {
    Error_Handler();
 8001f7a:	f000 f957 	bl	800222c <Error_Handler>
  }
  /** Configure Digital filter
  */
  if (HAL_I2CEx_ConfigDigitalFilter(&hi2c1, 0) != HAL_OK)
 8001f7e:	4b06      	ldr	r3, [pc, #24]	; (8001f98 <MX_I2C1_Init+0x78>)
 8001f80:	2100      	movs	r1, #0
 8001f82:	0018      	movs	r0, r3
 8001f84:	f002 fd1a 	bl	80049bc <HAL_I2CEx_ConfigDigitalFilter>
 8001f88:	1e03      	subs	r3, r0, #0
 8001f8a:	d001      	beq.n	8001f90 <MX_I2C1_Init+0x70>
  {
    Error_Handler();
 8001f8c:	f000 f94e 	bl	800222c <Error_Handler>
  }
  /* USER CODE BEGIN I2C1_Init 2 */

  /* USER CODE END I2C1_Init 2 */

}
 8001f90:	46c0      	nop			; (mov r8, r8)
 8001f92:	46bd      	mov	sp, r7
 8001f94:	bd80      	pop	{r7, pc}
 8001f96:	46c0      	nop			; (mov r8, r8)
 8001f98:	200002f8 	.word	0x200002f8
 8001f9c:	40005400 	.word	0x40005400

08001fa0 <MX_LPUART1_UART_Init>:
  * @brief LPUART1 Initialization Function
  * @param None
  * @retval None
  */
static void MX_LPUART1_UART_Init(void)
{
 8001fa0:	b580      	push	{r7, lr}
 8001fa2:	af00      	add	r7, sp, #0
  /* USER CODE END LPUART1_Init 0 */

  /* USER CODE BEGIN LPUART1_Init 1 */

  /* USER CODE END LPUART1_Init 1 */
  hlpuart1.Instance = LPUART1;
 8001fa4:	4b13      	ldr	r3, [pc, #76]	; (8001ff4 <MX_LPUART1_UART_Init+0x54>)
 8001fa6:	4a14      	ldr	r2, [pc, #80]	; (8001ff8 <MX_LPUART1_UART_Init+0x58>)
 8001fa8:	601a      	str	r2, [r3, #0]
  hlpuart1.Init.BaudRate = 115200;
 8001faa:	4b12      	ldr	r3, [pc, #72]	; (8001ff4 <MX_LPUART1_UART_Init+0x54>)
 8001fac:	22e1      	movs	r2, #225	; 0xe1
 8001fae:	0252      	lsls	r2, r2, #9
 8001fb0:	605a      	str	r2, [r3, #4]
  hlpuart1.Init.WordLength = UART_WORDLENGTH_8B;
 8001fb2:	4b10      	ldr	r3, [pc, #64]	; (8001ff4 <MX_LPUART1_UART_Init+0x54>)
 8001fb4:	2200      	movs	r2, #0
 8001fb6:	609a      	str	r2, [r3, #8]
  hlpuart1.Init.StopBits = UART_STOPBITS_1;
 8001fb8:	4b0e      	ldr	r3, [pc, #56]	; (8001ff4 <MX_LPUART1_UART_Init+0x54>)
 8001fba:	2200      	movs	r2, #0
 8001fbc:	60da      	str	r2, [r3, #12]
  hlpuart1.Init.Parity = UART_PARITY_NONE;
 8001fbe:	4b0d      	ldr	r3, [pc, #52]	; (8001ff4 <MX_LPUART1_UART_Init+0x54>)
 8001fc0:	2200      	movs	r2, #0
 8001fc2:	611a      	str	r2, [r3, #16]
  hlpuart1.Init.Mode = UART_MODE_TX_RX;
 8001fc4:	4b0b      	ldr	r3, [pc, #44]	; (8001ff4 <MX_LPUART1_UART_Init+0x54>)
 8001fc6:	220c      	movs	r2, #12
 8001fc8:	615a      	str	r2, [r3, #20]
  hlpuart1.Init.HwFlowCtl = UART_HWCONTROL_NONE;
 8001fca:	4b0a      	ldr	r3, [pc, #40]	; (8001ff4 <MX_LPUART1_UART_Init+0x54>)
 8001fcc:	2200      	movs	r2, #0
 8001fce:	619a      	str	r2, [r3, #24]
  hlpuart1.Init.OneBitSampling = UART_ONE_BIT_SAMPLE_DISABLE;
 8001fd0:	4b08      	ldr	r3, [pc, #32]	; (8001ff4 <MX_LPUART1_UART_Init+0x54>)
 8001fd2:	2200      	movs	r2, #0
 8001fd4:	621a      	str	r2, [r3, #32]
  hlpuart1.AdvancedInit.AdvFeatureInit = UART_ADVFEATURE_NO_INIT;
 8001fd6:	4b07      	ldr	r3, [pc, #28]	; (8001ff4 <MX_LPUART1_UART_Init+0x54>)
 8001fd8:	2200      	movs	r2, #0
 8001fda:	625a      	str	r2, [r3, #36]	; 0x24
  if (HAL_UART_Init(&hlpuart1) != HAL_OK)
 8001fdc:	4b05      	ldr	r3, [pc, #20]	; (8001ff4 <MX_LPUART1_UART_Init+0x54>)
 8001fde:	0018      	movs	r0, r3
 8001fe0:	f003 fe80 	bl	8005ce4 <HAL_UART_Init>
 8001fe4:	1e03      	subs	r3, r0, #0
 8001fe6:	d001      	beq.n	8001fec <MX_LPUART1_UART_Init+0x4c>
  {
    Error_Handler();
 8001fe8:	f000 f920 	bl	800222c <Error_Handler>
  }
  /* USER CODE BEGIN LPUART1_Init 2 */

  /* USER CODE END LPUART1_Init 2 */

}
 8001fec:	46c0      	nop			; (mov r8, r8)
 8001fee:	46bd      	mov	sp, r7
 8001ff0:	bd80      	pop	{r7, pc}
 8001ff2:	46c0      	nop			; (mov r8, r8)
 8001ff4:	20000268 	.word	0x20000268
 8001ff8:	40004800 	.word	0x40004800

08001ffc <MX_RTC_Init>:
  * @brief RTC Initialization Function
  * @param None
  * @retval None
  */
static void MX_RTC_Init(void)
{
 8001ffc:	b580      	push	{r7, lr}
 8001ffe:	af00      	add	r7, sp, #0
  /* USER CODE BEGIN RTC_Init 1 */

  /* USER CODE END RTC_Init 1 */
  /** Initialize RTC Only
  */
  hrtc.Instance = RTC;
 8002000:	4b16      	ldr	r3, [pc, #88]	; (800205c <MX_RTC_Init+0x60>)
 8002002:	4a17      	ldr	r2, [pc, #92]	; (8002060 <MX_RTC_Init+0x64>)
 8002004:	601a      	str	r2, [r3, #0]
  hrtc.Init.HourFormat = RTC_HOURFORMAT_24;
 8002006:	4b15      	ldr	r3, [pc, #84]	; (800205c <MX_RTC_Init+0x60>)
 8002008:	2200      	movs	r2, #0
 800200a:	605a      	str	r2, [r3, #4]
  hrtc.Init.AsynchPrediv = 124;
 800200c:	4b13      	ldr	r3, [pc, #76]	; (800205c <MX_RTC_Init+0x60>)
 800200e:	227c      	movs	r2, #124	; 0x7c
 8002010:	609a      	str	r2, [r3, #8]
  hrtc.Init.SynchPrediv = 295;
 8002012:	4b12      	ldr	r3, [pc, #72]	; (800205c <MX_RTC_Init+0x60>)
 8002014:	2228      	movs	r2, #40	; 0x28
 8002016:	32ff      	adds	r2, #255	; 0xff
 8002018:	60da      	str	r2, [r3, #12]
  hrtc.Init.OutPut = RTC_OUTPUT_DISABLE;
 800201a:	4b10      	ldr	r3, [pc, #64]	; (800205c <MX_RTC_Init+0x60>)
 800201c:	2200      	movs	r2, #0
 800201e:	611a      	str	r2, [r3, #16]
  hrtc.Init.OutPutRemap = RTC_OUTPUT_REMAP_NONE;
 8002020:	4b0e      	ldr	r3, [pc, #56]	; (800205c <MX_RTC_Init+0x60>)
 8002022:	2200      	movs	r2, #0
 8002024:	615a      	str	r2, [r3, #20]
  hrtc.Init.OutPutPolarity = RTC_OUTPUT_POLARITY_HIGH;
 8002026:	4b0d      	ldr	r3, [pc, #52]	; (800205c <MX_RTC_Init+0x60>)
 8002028:	2200      	movs	r2, #0
 800202a:	619a      	str	r2, [r3, #24]
  hrtc.Init.OutPutType = RTC_OUTPUT_TYPE_OPENDRAIN;
 800202c:	4b0b      	ldr	r3, [pc, #44]	; (800205c <MX_RTC_Init+0x60>)
 800202e:	2200      	movs	r2, #0
 8002030:	61da      	str	r2, [r3, #28]
  if (HAL_RTC_Init(&hrtc) != HAL_OK)
 8002032:	4b0a      	ldr	r3, [pc, #40]	; (800205c <MX_RTC_Init+0x60>)
 8002034:	0018      	movs	r0, r3
 8002036:	f003 fc0b 	bl	8005850 <HAL_RTC_Init>
 800203a:	1e03      	subs	r3, r0, #0
 800203c:	d001      	beq.n	8002042 <MX_RTC_Init+0x46>
  {
    Error_Handler();
 800203e:	f000 f8f5 	bl	800222c <Error_Handler>
  }
  /** Enable the WakeUp
  */
  if (HAL_RTCEx_SetWakeUpTimer_IT(&hrtc, 10, RTC_WAKEUPCLOCK_RTCCLK_DIV16) != HAL_OK)
 8002042:	4b06      	ldr	r3, [pc, #24]	; (800205c <MX_RTC_Init+0x60>)
 8002044:	2200      	movs	r2, #0
 8002046:	210a      	movs	r1, #10
 8002048:	0018      	movs	r0, r3
 800204a:	f003 fcf1 	bl	8005a30 <HAL_RTCEx_SetWakeUpTimer_IT>
 800204e:	1e03      	subs	r3, r0, #0
 8002050:	d001      	beq.n	8002056 <MX_RTC_Init+0x5a>
  {
    Error_Handler();
 8002052:	f000 f8eb 	bl	800222c <Error_Handler>
  }
  /* USER CODE BEGIN RTC_Init 2 */

  /* USER CODE END RTC_Init 2 */

}
 8002056:	46c0      	nop			; (mov r8, r8)
 8002058:	46bd      	mov	sp, r7
 800205a:	bd80      	pop	{r7, pc}
 800205c:	20000444 	.word	0x20000444
 8002060:	40002800 	.word	0x40002800

08002064 <MX_GPIO_Init>:
  * @brief GPIO Initialization Function
  * @param None
  * @retval None
  */
static void MX_GPIO_Init(void)
{
 8002064:	b590      	push	{r4, r7, lr}
 8002066:	b089      	sub	sp, #36	; 0x24
 8002068:	af00      	add	r7, sp, #0
  GPIO_InitTypeDef GPIO_InitStruct = {0};
 800206a:	240c      	movs	r4, #12
 800206c:	193b      	adds	r3, r7, r4
 800206e:	0018      	movs	r0, r3
 8002070:	2314      	movs	r3, #20
 8002072:	001a      	movs	r2, r3
 8002074:	2100      	movs	r1, #0
 8002076:	f004 fbc0 	bl	80067fa <memset>

  /* GPIO Ports Clock Enable */
  __HAL_RCC_GPIOC_CLK_ENABLE();
 800207a:	4b36      	ldr	r3, [pc, #216]	; (8002154 <MX_GPIO_Init+0xf0>)
 800207c:	6ada      	ldr	r2, [r3, #44]	; 0x2c
 800207e:	4b35      	ldr	r3, [pc, #212]	; (8002154 <MX_GPIO_Init+0xf0>)
 8002080:	2104      	movs	r1, #4
 8002082:	430a      	orrs	r2, r1
 8002084:	62da      	str	r2, [r3, #44]	; 0x2c
 8002086:	4b33      	ldr	r3, [pc, #204]	; (8002154 <MX_GPIO_Init+0xf0>)
 8002088:	6adb      	ldr	r3, [r3, #44]	; 0x2c
 800208a:	2204      	movs	r2, #4
 800208c:	4013      	ands	r3, r2
 800208e:	60bb      	str	r3, [r7, #8]
 8002090:	68bb      	ldr	r3, [r7, #8]
  __HAL_RCC_GPIOA_CLK_ENABLE();
 8002092:	4b30      	ldr	r3, [pc, #192]	; (8002154 <MX_GPIO_Init+0xf0>)
 8002094:	6ada      	ldr	r2, [r3, #44]	; 0x2c
 8002096:	4b2f      	ldr	r3, [pc, #188]	; (8002154 <MX_GPIO_Init+0xf0>)
 8002098:	2101      	movs	r1, #1
 800209a:	430a      	orrs	r2, r1
 800209c:	62da      	str	r2, [r3, #44]	; 0x2c
 800209e:	4b2d      	ldr	r3, [pc, #180]	; (8002154 <MX_GPIO_Init+0xf0>)
 80020a0:	6adb      	ldr	r3, [r3, #44]	; 0x2c
 80020a2:	2201      	movs	r2, #1
 80020a4:	4013      	ands	r3, r2
 80020a6:	607b      	str	r3, [r7, #4]
 80020a8:	687b      	ldr	r3, [r7, #4]
  __HAL_RCC_GPIOB_CLK_ENABLE();
 80020aa:	4b2a      	ldr	r3, [pc, #168]	; (8002154 <MX_GPIO_Init+0xf0>)
 80020ac:	6ada      	ldr	r2, [r3, #44]	; 0x2c
 80020ae:	4b29      	ldr	r3, [pc, #164]	; (8002154 <MX_GPIO_Init+0xf0>)
 80020b0:	2102      	movs	r1, #2
 80020b2:	430a      	orrs	r2, r1
 80020b4:	62da      	str	r2, [r3, #44]	; 0x2c
 80020b6:	4b27      	ldr	r3, [pc, #156]	; (8002154 <MX_GPIO_Init+0xf0>)
 80020b8:	6adb      	ldr	r3, [r3, #44]	; 0x2c
 80020ba:	2202      	movs	r2, #2
 80020bc:	4013      	ands	r3, r2
 80020be:	603b      	str	r3, [r7, #0]
 80020c0:	683b      	ldr	r3, [r7, #0]

  /*Configure GPIO pin Output Level */
  HAL_GPIO_WritePin(LED_GPIO_Port, LED_Pin, GPIO_PIN_RESET);
 80020c2:	2380      	movs	r3, #128	; 0x80
 80020c4:	019b      	lsls	r3, r3, #6
 80020c6:	4824      	ldr	r0, [pc, #144]	; (8002158 <MX_GPIO_Init+0xf4>)
 80020c8:	2200      	movs	r2, #0
 80020ca:	0019      	movs	r1, r3
 80020cc:	f001 ff3f 	bl	8003f4e <HAL_GPIO_WritePin>

  /*Configure GPIO pin Output Level */
  HAL_GPIO_WritePin(GPIOA, CSB_Pin|FCSB_Pin|SCLK_Pin|SDIO_Pin, GPIO_PIN_RESET);
 80020d0:	4922      	ldr	r1, [pc, #136]	; (800215c <MX_GPIO_Init+0xf8>)
 80020d2:	23a0      	movs	r3, #160	; 0xa0
 80020d4:	05db      	lsls	r3, r3, #23
 80020d6:	2200      	movs	r2, #0
 80020d8:	0018      	movs	r0, r3
 80020da:	f001 ff38 	bl	8003f4e <HAL_GPIO_WritePin>

  /*Configure GPIO pin : LED_Pin */
  GPIO_InitStruct.Pin = LED_Pin;
 80020de:	193b      	adds	r3, r7, r4
 80020e0:	2280      	movs	r2, #128	; 0x80
 80020e2:	0192      	lsls	r2, r2, #6
 80020e4:	601a      	str	r2, [r3, #0]
  GPIO_InitStruct.Mode = GPIO_MODE_OUTPUT_PP;
 80020e6:	193b      	adds	r3, r7, r4
 80020e8:	2201      	movs	r2, #1
 80020ea:	605a      	str	r2, [r3, #4]
  GPIO_InitStruct.Pull = GPIO_NOPULL;
 80020ec:	193b      	adds	r3, r7, r4
 80020ee:	2200      	movs	r2, #0
 80020f0:	609a      	str	r2, [r3, #8]
  GPIO_InitStruct.Speed = GPIO_SPEED_FREQ_LOW;
 80020f2:	193b      	adds	r3, r7, r4
 80020f4:	2200      	movs	r2, #0
 80020f6:	60da      	str	r2, [r3, #12]
  HAL_GPIO_Init(LED_GPIO_Port, &GPIO_InitStruct);
 80020f8:	193b      	adds	r3, r7, r4
 80020fa:	4a17      	ldr	r2, [pc, #92]	; (8002158 <MX_GPIO_Init+0xf4>)
 80020fc:	0019      	movs	r1, r3
 80020fe:	0010      	movs	r0, r2
 8002100:	f001 fcc8 	bl	8003a94 <HAL_GPIO_Init>

  /*Configure GPIO pins : CSB_Pin FCSB_Pin SCLK_Pin SDIO_Pin */
  GPIO_InitStruct.Pin = CSB_Pin|FCSB_Pin|SCLK_Pin|SDIO_Pin;
 8002104:	193b      	adds	r3, r7, r4
 8002106:	4a15      	ldr	r2, [pc, #84]	; (800215c <MX_GPIO_Init+0xf8>)
 8002108:	601a      	str	r2, [r3, #0]
  GPIO_InitStruct.Mode = GPIO_MODE_OUTPUT_PP;
 800210a:	193b      	adds	r3, r7, r4
 800210c:	2201      	movs	r2, #1
 800210e:	605a      	str	r2, [r3, #4]
  GPIO_InitStruct.Pull = GPIO_NOPULL;
 8002110:	193b      	adds	r3, r7, r4
 8002112:	2200      	movs	r2, #0
 8002114:	609a      	str	r2, [r3, #8]
  GPIO_InitStruct.Speed = GPIO_SPEED_FREQ_LOW;
 8002116:	193b      	adds	r3, r7, r4
 8002118:	2200      	movs	r2, #0
 800211a:	60da      	str	r2, [r3, #12]
  HAL_GPIO_Init(GPIOA, &GPIO_InitStruct);
 800211c:	193a      	adds	r2, r7, r4
 800211e:	23a0      	movs	r3, #160	; 0xa0
 8002120:	05db      	lsls	r3, r3, #23
 8002122:	0011      	movs	r1, r2
 8002124:	0018      	movs	r0, r3
 8002126:	f001 fcb5 	bl	8003a94 <HAL_GPIO_Init>

  /*Configure GPIO pins : BUZZER_Pin GPO3_Pin */
  GPIO_InitStruct.Pin = BUZZER_Pin|GPO3_Pin;
 800212a:	193b      	adds	r3, r7, r4
 800212c:	4a0c      	ldr	r2, [pc, #48]	; (8002160 <MX_GPIO_Init+0xfc>)
 800212e:	601a      	str	r2, [r3, #0]
  GPIO_InitStruct.Mode = GPIO_MODE_INPUT;
 8002130:	193b      	adds	r3, r7, r4
 8002132:	2200      	movs	r2, #0
 8002134:	605a      	str	r2, [r3, #4]
  GPIO_InitStruct.Pull = GPIO_NOPULL;
 8002136:	193b      	adds	r3, r7, r4
 8002138:	2200      	movs	r2, #0
 800213a:	609a      	str	r2, [r3, #8]
  HAL_GPIO_Init(GPIOA, &GPIO_InitStruct);
 800213c:	193a      	adds	r2, r7, r4
 800213e:	23a0      	movs	r3, #160	; 0xa0
 8002140:	05db      	lsls	r3, r3, #23
 8002142:	0011      	movs	r1, r2
 8002144:	0018      	movs	r0, r3
 8002146:	f001 fca5 	bl	8003a94 <HAL_GPIO_Init>

}
 800214a:	46c0      	nop			; (mov r8, r8)
 800214c:	46bd      	mov	sp, r7
 800214e:	b009      	add	sp, #36	; 0x24
 8002150:	bd90      	pop	{r4, r7, pc}
 8002152:	46c0      	nop			; (mov r8, r8)
 8002154:	40021000 	.word	0x40021000
 8002158:	50000800 	.word	0x50000800
 800215c:	00000606 	.word	0x00000606
 8002160:	00001010 	.word	0x00001010

08002164 <GPIO_ALL_DisEnable>:

/* USER CODE BEGIN 4 */
void GPIO_ALL_DisEnable(void) {
 8002164:	b580      	push	{r7, lr}
 8002166:	af00      	add	r7, sp, #0
	 HAL_GPIO_Init(GPIOA, &GPIO_InitStruct);
	 HAL_GPIO_Init(GPIOB, &GPIO_InitStruct);
	 HAL_GPIO_Init(GPIOC, &GPIO_InitStruct);
	 HAL_GPIO_Init(GPIOH, &GPIO_InitStruct);
	 */
	__HAL_RCC_GPIOA_CLK_DISABLE();
 8002168:	4b2b      	ldr	r3, [pc, #172]	; (8002218 <GPIO_ALL_DisEnable+0xb4>)
 800216a:	6ada      	ldr	r2, [r3, #44]	; 0x2c
 800216c:	4b2a      	ldr	r3, [pc, #168]	; (8002218 <GPIO_ALL_DisEnable+0xb4>)
 800216e:	2101      	movs	r1, #1
 8002170:	438a      	bics	r2, r1
 8002172:	62da      	str	r2, [r3, #44]	; 0x2c
	__HAL_RCC_GPIOB_CLK_DISABLE();
 8002174:	4b28      	ldr	r3, [pc, #160]	; (8002218 <GPIO_ALL_DisEnable+0xb4>)
 8002176:	6ada      	ldr	r2, [r3, #44]	; 0x2c
 8002178:	4b27      	ldr	r3, [pc, #156]	; (8002218 <GPIO_ALL_DisEnable+0xb4>)
 800217a:	2102      	movs	r1, #2
 800217c:	438a      	bics	r2, r1
 800217e:	62da      	str	r2, [r3, #44]	; 0x2c
	__HAL_RCC_GPIOC_CLK_DISABLE();
 8002180:	4b25      	ldr	r3, [pc, #148]	; (8002218 <GPIO_ALL_DisEnable+0xb4>)
 8002182:	6ada      	ldr	r2, [r3, #44]	; 0x2c
 8002184:	4b24      	ldr	r3, [pc, #144]	; (8002218 <GPIO_ALL_DisEnable+0xb4>)
 8002186:	2104      	movs	r1, #4
 8002188:	438a      	bics	r2, r1
 800218a:	62da      	str	r2, [r3, #44]	; 0x2c
	__HAL_RCC_GPIOH_CLK_DISABLE();
 800218c:	4b22      	ldr	r3, [pc, #136]	; (8002218 <GPIO_ALL_DisEnable+0xb4>)
 800218e:	6ada      	ldr	r2, [r3, #44]	; 0x2c
 8002190:	4b21      	ldr	r3, [pc, #132]	; (8002218 <GPIO_ALL_DisEnable+0xb4>)
 8002192:	2180      	movs	r1, #128	; 0x80
 8002194:	438a      	bics	r2, r1
 8002196:	62da      	str	r2, [r3, #44]	; 0x2c
	HAL_GPIO_DeInit(GPIOC, GPIO_PIN_13);
 8002198:	2380      	movs	r3, #128	; 0x80
 800219a:	019b      	lsls	r3, r3, #6
 800219c:	4a1f      	ldr	r2, [pc, #124]	; (800221c <GPIO_ALL_DisEnable+0xb8>)
 800219e:	0019      	movs	r1, r3
 80021a0:	0010      	movs	r0, r2
 80021a2:	f001 fde5 	bl	8003d70 <HAL_GPIO_DeInit>
	HAL_GPIO_DeInit(GPIOA, SDIO_Pin);
 80021a6:	2380      	movs	r3, #128	; 0x80
 80021a8:	00da      	lsls	r2, r3, #3
 80021aa:	23a0      	movs	r3, #160	; 0xa0
 80021ac:	05db      	lsls	r3, r3, #23
 80021ae:	0011      	movs	r1, r2
 80021b0:	0018      	movs	r0, r3
 80021b2:	f001 fddd 	bl	8003d70 <HAL_GPIO_DeInit>
	HAL_GPIO_DeInit(GPIOA, GPO3_Pin);
 80021b6:	2380      	movs	r3, #128	; 0x80
 80021b8:	015a      	lsls	r2, r3, #5
 80021ba:	23a0      	movs	r3, #160	; 0xa0
 80021bc:	05db      	lsls	r3, r3, #23
 80021be:	0011      	movs	r1, r2
 80021c0:	0018      	movs	r0, r3
 80021c2:	f001 fdd5 	bl	8003d70 <HAL_GPIO_DeInit>
	HAL_GPIO_DeInit(GPIOA, BUZZER_Pin);
 80021c6:	23a0      	movs	r3, #160	; 0xa0
 80021c8:	05db      	lsls	r3, r3, #23
 80021ca:	2110      	movs	r1, #16
 80021cc:	0018      	movs	r0, r3
 80021ce:	f001 fdcf 	bl	8003d70 <HAL_GPIO_DeInit>
	HAL_GPIO_DeInit(GPIOA, CSB_Pin);
 80021d2:	23a0      	movs	r3, #160	; 0xa0
 80021d4:	05db      	lsls	r3, r3, #23
 80021d6:	2102      	movs	r1, #2
 80021d8:	0018      	movs	r0, r3
 80021da:	f001 fdc9 	bl	8003d70 <HAL_GPIO_DeInit>
	HAL_GPIO_DeInit(GPIOA, FCSB_Pin);
 80021de:	23a0      	movs	r3, #160	; 0xa0
 80021e0:	05db      	lsls	r3, r3, #23
 80021e2:	2104      	movs	r1, #4
 80021e4:	0018      	movs	r0, r3
 80021e6:	f001 fdc3 	bl	8003d70 <HAL_GPIO_DeInit>
	HAL_GPIO_DeInit(GPIOA, SCLK_Pin);
 80021ea:	2380      	movs	r3, #128	; 0x80
 80021ec:	009a      	lsls	r2, r3, #2
 80021ee:	23a0      	movs	r3, #160	; 0xa0
 80021f0:	05db      	lsls	r3, r3, #23
 80021f2:	0011      	movs	r1, r2
 80021f4:	0018      	movs	r0, r3
 80021f6:	f001 fdbb 	bl	8003d70 <HAL_GPIO_DeInit>
	//HAL_RTC_DeInit(&hrtc);
	HAL_UART_DeInit(&hlpuart1);
 80021fa:	4b09      	ldr	r3, [pc, #36]	; (8002220 <GPIO_ALL_DisEnable+0xbc>)
 80021fc:	0018      	movs	r0, r3
 80021fe:	f003 fdc5 	bl	8005d8c <HAL_UART_DeInit>
	HAL_I2C_DeInit(&hi2c1);
 8002202:	4b08      	ldr	r3, [pc, #32]	; (8002224 <GPIO_ALL_DisEnable+0xc0>)
 8002204:	0018      	movs	r0, r3
 8002206:	f001 ff55 	bl	80040b4 <HAL_I2C_DeInit>
	HAL_ADC_DeInit(&hadc);
 800220a:	4b07      	ldr	r3, [pc, #28]	; (8002228 <GPIO_ALL_DisEnable+0xc4>)
 800220c:	0018      	movs	r0, r3
 800220e:	f000 ff49 	bl	80030a4 <HAL_ADC_DeInit>
}
 8002212:	46c0      	nop			; (mov r8, r8)
 8002214:	46bd      	mov	sp, r7
 8002216:	bd80      	pop	{r7, pc}
 8002218:	40021000 	.word	0x40021000
 800221c:	50000800 	.word	0x50000800
 8002220:	20000268 	.word	0x20000268
 8002224:	200002f8 	.word	0x200002f8
 8002228:	20000468 	.word	0x20000468

0800222c <Error_Handler>:
/**
  * @brief  This function is executed in case of error occurrence.
  * @retval None
  */
void Error_Handler(void)
{
 800222c:	b580      	push	{r7, lr}
 800222e:	af00      	add	r7, sp, #0
  \details Disables IRQ interrupts by setting the I-bit in the CPSR.
           Can only be executed in Privileged modes.
 */
__STATIC_FORCEINLINE void __disable_irq(void)
{
  __ASM volatile ("cpsid i" : : : "memory");
 8002230:	b672      	cpsid	i
}
 8002232:	46c0      	nop			; (mov r8, r8)
  /* USER CODE BEGIN Error_Handler_Debug */
	/* User can add his own implementation to report the HAL error return state */
	__disable_irq();
	while (1) {
 8002234:	e7fe      	b.n	8002234 <Error_Handler+0x8>

08002236 <sensirion_common_generate_crc>:

    tmp.u32_value = sensirion_bytes_to_uint32_t(bytes);
    return tmp.float32;
}

uint8_t sensirion_common_generate_crc(const uint8_t* data, uint16_t count) {
 8002236:	b580      	push	{r7, lr}
 8002238:	b084      	sub	sp, #16
 800223a:	af00      	add	r7, sp, #0
 800223c:	6078      	str	r0, [r7, #4]
 800223e:	000a      	movs	r2, r1
 8002240:	1cbb      	adds	r3, r7, #2
 8002242:	801a      	strh	r2, [r3, #0]
    uint16_t current_byte;
    uint8_t crc = CRC8_INIT;
 8002244:	230d      	movs	r3, #13
 8002246:	18fb      	adds	r3, r7, r3
 8002248:	22ff      	movs	r2, #255	; 0xff
 800224a:	701a      	strb	r2, [r3, #0]
    uint8_t crc_bit;

    /* calculates 8-Bit checksum with given polynomial */
    for (current_byte = 0; current_byte < count; ++current_byte) {
 800224c:	230e      	movs	r3, #14
 800224e:	18fb      	adds	r3, r7, r3
 8002250:	2200      	movs	r2, #0
 8002252:	801a      	strh	r2, [r3, #0]
 8002254:	e037      	b.n	80022c6 <sensirion_common_generate_crc+0x90>
        crc ^= (data[current_byte]);
 8002256:	230e      	movs	r3, #14
 8002258:	18fb      	adds	r3, r7, r3
 800225a:	881b      	ldrh	r3, [r3, #0]
 800225c:	687a      	ldr	r2, [r7, #4]
 800225e:	18d3      	adds	r3, r2, r3
 8002260:	7819      	ldrb	r1, [r3, #0]
 8002262:	220d      	movs	r2, #13
 8002264:	18bb      	adds	r3, r7, r2
 8002266:	18ba      	adds	r2, r7, r2
 8002268:	7812      	ldrb	r2, [r2, #0]
 800226a:	404a      	eors	r2, r1
 800226c:	701a      	strb	r2, [r3, #0]
        for (crc_bit = 8; crc_bit > 0; --crc_bit) {
 800226e:	230c      	movs	r3, #12
 8002270:	18fb      	adds	r3, r7, r3
 8002272:	2208      	movs	r2, #8
 8002274:	701a      	strb	r2, [r3, #0]
 8002276:	e01b      	b.n	80022b0 <sensirion_common_generate_crc+0x7a>
            if (crc & 0x80)
 8002278:	210d      	movs	r1, #13
 800227a:	187b      	adds	r3, r7, r1
 800227c:	781b      	ldrb	r3, [r3, #0]
 800227e:	b25b      	sxtb	r3, r3
 8002280:	2b00      	cmp	r3, #0
 8002282:	da09      	bge.n	8002298 <sensirion_common_generate_crc+0x62>
                crc = (crc << 1) ^ CRC8_POLYNOMIAL;
 8002284:	187b      	adds	r3, r7, r1
 8002286:	781b      	ldrb	r3, [r3, #0]
 8002288:	005b      	lsls	r3, r3, #1
 800228a:	b25b      	sxtb	r3, r3
 800228c:	2231      	movs	r2, #49	; 0x31
 800228e:	4053      	eors	r3, r2
 8002290:	b25a      	sxtb	r2, r3
 8002292:	187b      	adds	r3, r7, r1
 8002294:	701a      	strb	r2, [r3, #0]
 8002296:	e005      	b.n	80022a4 <sensirion_common_generate_crc+0x6e>
            else
                crc = (crc << 1);
 8002298:	230d      	movs	r3, #13
 800229a:	18fa      	adds	r2, r7, r3
 800229c:	18fb      	adds	r3, r7, r3
 800229e:	781b      	ldrb	r3, [r3, #0]
 80022a0:	18db      	adds	r3, r3, r3
 80022a2:	7013      	strb	r3, [r2, #0]
        for (crc_bit = 8; crc_bit > 0; --crc_bit) {
 80022a4:	220c      	movs	r2, #12
 80022a6:	18bb      	adds	r3, r7, r2
 80022a8:	18ba      	adds	r2, r7, r2
 80022aa:	7812      	ldrb	r2, [r2, #0]
 80022ac:	3a01      	subs	r2, #1
 80022ae:	701a      	strb	r2, [r3, #0]
 80022b0:	230c      	movs	r3, #12
 80022b2:	18fb      	adds	r3, r7, r3
 80022b4:	781b      	ldrb	r3, [r3, #0]
 80022b6:	2b00      	cmp	r3, #0
 80022b8:	d1de      	bne.n	8002278 <sensirion_common_generate_crc+0x42>
    for (current_byte = 0; current_byte < count; ++current_byte) {
 80022ba:	220e      	movs	r2, #14
 80022bc:	18bb      	adds	r3, r7, r2
 80022be:	18ba      	adds	r2, r7, r2
 80022c0:	8812      	ldrh	r2, [r2, #0]
 80022c2:	3201      	adds	r2, #1
 80022c4:	801a      	strh	r2, [r3, #0]
 80022c6:	230e      	movs	r3, #14
 80022c8:	18fa      	adds	r2, r7, r3
 80022ca:	1cbb      	adds	r3, r7, #2
 80022cc:	8812      	ldrh	r2, [r2, #0]
 80022ce:	881b      	ldrh	r3, [r3, #0]
 80022d0:	429a      	cmp	r2, r3
 80022d2:	d3c0      	bcc.n	8002256 <sensirion_common_generate_crc+0x20>
        }
    }
    return crc;
 80022d4:	230d      	movs	r3, #13
 80022d6:	18fb      	adds	r3, r7, r3
 80022d8:	781b      	ldrb	r3, [r3, #0]
}
 80022da:	0018      	movs	r0, r3
 80022dc:	46bd      	mov	sp, r7
 80022de:	b004      	add	sp, #16
 80022e0:	bd80      	pop	{r7, pc}

080022e2 <sensirion_common_check_crc>:

int8_t sensirion_common_check_crc(const uint8_t* data, uint16_t count,
                                  uint8_t checksum) {
 80022e2:	b580      	push	{r7, lr}
 80022e4:	b082      	sub	sp, #8
 80022e6:	af00      	add	r7, sp, #0
 80022e8:	6078      	str	r0, [r7, #4]
 80022ea:	0008      	movs	r0, r1
 80022ec:	0011      	movs	r1, r2
 80022ee:	1cbb      	adds	r3, r7, #2
 80022f0:	1c02      	adds	r2, r0, #0
 80022f2:	801a      	strh	r2, [r3, #0]
 80022f4:	1c7b      	adds	r3, r7, #1
 80022f6:	1c0a      	adds	r2, r1, #0
 80022f8:	701a      	strb	r2, [r3, #0]
    if (sensirion_common_generate_crc(data, count) != checksum)
 80022fa:	1cbb      	adds	r3, r7, #2
 80022fc:	881a      	ldrh	r2, [r3, #0]
 80022fe:	687b      	ldr	r3, [r7, #4]
 8002300:	0011      	movs	r1, r2
 8002302:	0018      	movs	r0, r3
 8002304:	f7ff ff97 	bl	8002236 <sensirion_common_generate_crc>
 8002308:	0003      	movs	r3, r0
 800230a:	001a      	movs	r2, r3
 800230c:	1c7b      	adds	r3, r7, #1
 800230e:	781b      	ldrb	r3, [r3, #0]
 8002310:	4293      	cmp	r3, r2
 8002312:	d002      	beq.n	800231a <sensirion_common_check_crc+0x38>
        return STATUS_FAIL;
 8002314:	2301      	movs	r3, #1
 8002316:	425b      	negs	r3, r3
 8002318:	e000      	b.n	800231c <sensirion_common_check_crc+0x3a>
    return NO_ERROR;
 800231a:	2300      	movs	r3, #0
}
 800231c:	0018      	movs	r0, r3
 800231e:	46bd      	mov	sp, r7
 8002320:	b002      	add	sp, #8
 8002322:	bd80      	pop	{r7, pc}

08002324 <sensirion_fill_cmd_send_buf>:
    const uint8_t data = 0x06;
    return sensirion_i2c_write(0, &data, (uint16_t)sizeof(data));
}

uint16_t sensirion_fill_cmd_send_buf(uint8_t* buf, uint16_t cmd,
                                     const uint16_t* args, uint8_t num_args) {
 8002324:	b5f0      	push	{r4, r5, r6, r7, lr}
 8002326:	b087      	sub	sp, #28
 8002328:	af00      	add	r7, sp, #0
 800232a:	60f8      	str	r0, [r7, #12]
 800232c:	0008      	movs	r0, r1
 800232e:	607a      	str	r2, [r7, #4]
 8002330:	0019      	movs	r1, r3
 8002332:	250a      	movs	r5, #10
 8002334:	197b      	adds	r3, r7, r5
 8002336:	1c02      	adds	r2, r0, #0
 8002338:	801a      	strh	r2, [r3, #0]
 800233a:	2309      	movs	r3, #9
 800233c:	18fb      	adds	r3, r7, r3
 800233e:	1c0a      	adds	r2, r1, #0
 8002340:	701a      	strb	r2, [r3, #0]
    uint8_t crc;
    uint8_t i;
    uint16_t idx = 0;
 8002342:	2014      	movs	r0, #20
 8002344:	183b      	adds	r3, r7, r0
 8002346:	2200      	movs	r2, #0
 8002348:	801a      	strh	r2, [r3, #0]

    buf[idx++] = (uint8_t)((cmd & 0xFF00) >> 8);
 800234a:	197b      	adds	r3, r7, r5
 800234c:	881b      	ldrh	r3, [r3, #0]
 800234e:	0a1b      	lsrs	r3, r3, #8
 8002350:	b299      	uxth	r1, r3
 8002352:	183b      	adds	r3, r7, r0
 8002354:	881b      	ldrh	r3, [r3, #0]
 8002356:	0004      	movs	r4, r0
 8002358:	183a      	adds	r2, r7, r0
 800235a:	1c58      	adds	r0, r3, #1
 800235c:	8010      	strh	r0, [r2, #0]
 800235e:	001a      	movs	r2, r3
 8002360:	68fb      	ldr	r3, [r7, #12]
 8002362:	189b      	adds	r3, r3, r2
 8002364:	b2ca      	uxtb	r2, r1
 8002366:	701a      	strb	r2, [r3, #0]
    buf[idx++] = (uint8_t)((cmd & 0x00FF) >> 0);
 8002368:	193b      	adds	r3, r7, r4
 800236a:	881b      	ldrh	r3, [r3, #0]
 800236c:	193a      	adds	r2, r7, r4
 800236e:	1c59      	adds	r1, r3, #1
 8002370:	8011      	strh	r1, [r2, #0]
 8002372:	001a      	movs	r2, r3
 8002374:	68fb      	ldr	r3, [r7, #12]
 8002376:	189b      	adds	r3, r3, r2
 8002378:	197a      	adds	r2, r7, r5
 800237a:	8812      	ldrh	r2, [r2, #0]
 800237c:	b2d2      	uxtb	r2, r2
 800237e:	701a      	strb	r2, [r3, #0]

    for (i = 0; i < num_args; ++i) {
 8002380:	2317      	movs	r3, #23
 8002382:	18fb      	adds	r3, r7, r3
 8002384:	2200      	movs	r2, #0
 8002386:	701a      	strb	r2, [r3, #0]
 8002388:	e042      	b.n	8002410 <sensirion_fill_cmd_send_buf+0xec>
        buf[idx++] = (uint8_t)((args[i] & 0xFF00) >> 8);
 800238a:	2617      	movs	r6, #23
 800238c:	19bb      	adds	r3, r7, r6
 800238e:	781b      	ldrb	r3, [r3, #0]
 8002390:	005b      	lsls	r3, r3, #1
 8002392:	687a      	ldr	r2, [r7, #4]
 8002394:	18d3      	adds	r3, r2, r3
 8002396:	881b      	ldrh	r3, [r3, #0]
 8002398:	0a1b      	lsrs	r3, r3, #8
 800239a:	b299      	uxth	r1, r3
 800239c:	2414      	movs	r4, #20
 800239e:	193b      	adds	r3, r7, r4
 80023a0:	881b      	ldrh	r3, [r3, #0]
 80023a2:	193a      	adds	r2, r7, r4
 80023a4:	1c58      	adds	r0, r3, #1
 80023a6:	8010      	strh	r0, [r2, #0]
 80023a8:	001a      	movs	r2, r3
 80023aa:	68fb      	ldr	r3, [r7, #12]
 80023ac:	189b      	adds	r3, r3, r2
 80023ae:	b2ca      	uxtb	r2, r1
 80023b0:	701a      	strb	r2, [r3, #0]
        buf[idx++] = (uint8_t)((args[i] & 0x00FF) >> 0);
 80023b2:	19bb      	adds	r3, r7, r6
 80023b4:	781b      	ldrb	r3, [r3, #0]
 80023b6:	005b      	lsls	r3, r3, #1
 80023b8:	687a      	ldr	r2, [r7, #4]
 80023ba:	18d3      	adds	r3, r2, r3
 80023bc:	8819      	ldrh	r1, [r3, #0]
 80023be:	0025      	movs	r5, r4
 80023c0:	197b      	adds	r3, r7, r5
 80023c2:	881b      	ldrh	r3, [r3, #0]
 80023c4:	197a      	adds	r2, r7, r5
 80023c6:	1c58      	adds	r0, r3, #1
 80023c8:	8010      	strh	r0, [r2, #0]
 80023ca:	001a      	movs	r2, r3
 80023cc:	68fb      	ldr	r3, [r7, #12]
 80023ce:	189b      	adds	r3, r3, r2
 80023d0:	b2ca      	uxtb	r2, r1
 80023d2:	701a      	strb	r2, [r3, #0]

        crc = sensirion_common_generate_crc((uint8_t*)&buf[idx - 2],
 80023d4:	197b      	adds	r3, r7, r5
 80023d6:	881b      	ldrh	r3, [r3, #0]
 80023d8:	3b02      	subs	r3, #2
 80023da:	68fa      	ldr	r2, [r7, #12]
 80023dc:	18d3      	adds	r3, r2, r3
 80023de:	2213      	movs	r2, #19
 80023e0:	18bc      	adds	r4, r7, r2
 80023e2:	2102      	movs	r1, #2
 80023e4:	0018      	movs	r0, r3
 80023e6:	f7ff ff26 	bl	8002236 <sensirion_common_generate_crc>
 80023ea:	0003      	movs	r3, r0
 80023ec:	7023      	strb	r3, [r4, #0]
                                            SENSIRION_WORD_SIZE);
        buf[idx++] = crc;
 80023ee:	197b      	adds	r3, r7, r5
 80023f0:	881b      	ldrh	r3, [r3, #0]
 80023f2:	197a      	adds	r2, r7, r5
 80023f4:	1c59      	adds	r1, r3, #1
 80023f6:	8011      	strh	r1, [r2, #0]
 80023f8:	001a      	movs	r2, r3
 80023fa:	68fb      	ldr	r3, [r7, #12]
 80023fc:	189b      	adds	r3, r3, r2
 80023fe:	2213      	movs	r2, #19
 8002400:	18ba      	adds	r2, r7, r2
 8002402:	7812      	ldrb	r2, [r2, #0]
 8002404:	701a      	strb	r2, [r3, #0]
    for (i = 0; i < num_args; ++i) {
 8002406:	19bb      	adds	r3, r7, r6
 8002408:	19ba      	adds	r2, r7, r6
 800240a:	7812      	ldrb	r2, [r2, #0]
 800240c:	3201      	adds	r2, #1
 800240e:	701a      	strb	r2, [r3, #0]
 8002410:	2317      	movs	r3, #23
 8002412:	18fa      	adds	r2, r7, r3
 8002414:	2309      	movs	r3, #9
 8002416:	18fb      	adds	r3, r7, r3
 8002418:	7812      	ldrb	r2, [r2, #0]
 800241a:	781b      	ldrb	r3, [r3, #0]
 800241c:	429a      	cmp	r2, r3
 800241e:	d3b4      	bcc.n	800238a <sensirion_fill_cmd_send_buf+0x66>
    }
    return idx;
 8002420:	2314      	movs	r3, #20
 8002422:	18fb      	adds	r3, r7, r3
 8002424:	881b      	ldrh	r3, [r3, #0]
}
 8002426:	0018      	movs	r0, r3
 8002428:	46bd      	mov	sp, r7
 800242a:	b007      	add	sp, #28
 800242c:	bdf0      	pop	{r4, r5, r6, r7, pc}

0800242e <sensirion_i2c_read_words_as_bytes>:

int16_t sensirion_i2c_read_words_as_bytes(uint8_t address, uint8_t* data,
                                          uint16_t num_words) {
 800242e:	b5b0      	push	{r4, r5, r7, lr}
 8002430:	b096      	sub	sp, #88	; 0x58
 8002432:	af00      	add	r7, sp, #0
 8002434:	6039      	str	r1, [r7, #0]
 8002436:	0011      	movs	r1, r2
 8002438:	1dfb      	adds	r3, r7, #7
 800243a:	1c02      	adds	r2, r0, #0
 800243c:	701a      	strb	r2, [r3, #0]
 800243e:	1d3b      	adds	r3, r7, #4
 8002440:	1c0a      	adds	r2, r1, #0
 8002442:	801a      	strh	r2, [r3, #0]
    int16_t ret;
    uint16_t i, j;
    uint16_t size = num_words * (SENSIRION_WORD_SIZE + CRC8_LEN);
 8002444:	2052      	movs	r0, #82	; 0x52
 8002446:	1839      	adds	r1, r7, r0
 8002448:	1d3b      	adds	r3, r7, #4
 800244a:	881b      	ldrh	r3, [r3, #0]
 800244c:	1c1a      	adds	r2, r3, #0
 800244e:	1892      	adds	r2, r2, r2
 8002450:	18d3      	adds	r3, r2, r3
 8002452:	800b      	strh	r3, [r1, #0]
    uint16_t word_buf[SENSIRION_MAX_BUFFER_WORDS];
    uint8_t* const buf8 = (uint8_t*)word_buf;
 8002454:	2308      	movs	r3, #8
 8002456:	18fb      	adds	r3, r7, r3
 8002458:	64fb      	str	r3, [r7, #76]	; 0x4c

    ret = sensirion_i2c_read(address, buf8, size);
 800245a:	183b      	adds	r3, r7, r0
 800245c:	881a      	ldrh	r2, [r3, #0]
 800245e:	6cf9      	ldr	r1, [r7, #76]	; 0x4c
 8002460:	1dfb      	adds	r3, r7, #7
 8002462:	781b      	ldrb	r3, [r3, #0]
 8002464:	0018      	movs	r0, r3
 8002466:	f000 f901 	bl	800266c <sensirion_i2c_read>
 800246a:	0003      	movs	r3, r0
 800246c:	001a      	movs	r2, r3
 800246e:	214a      	movs	r1, #74	; 0x4a
 8002470:	187b      	adds	r3, r7, r1
 8002472:	801a      	strh	r2, [r3, #0]
    if (ret != NO_ERROR)
 8002474:	000a      	movs	r2, r1
 8002476:	18bb      	adds	r3, r7, r2
 8002478:	2100      	movs	r1, #0
 800247a:	5e5b      	ldrsh	r3, [r3, r1]
 800247c:	2b00      	cmp	r3, #0
 800247e:	d003      	beq.n	8002488 <sensirion_i2c_read_words_as_bytes+0x5a>
        return ret;
 8002480:	18bb      	adds	r3, r7, r2
 8002482:	2200      	movs	r2, #0
 8002484:	5e9b      	ldrsh	r3, [r3, r2]
 8002486:	e053      	b.n	8002530 <sensirion_i2c_read_words_as_bytes+0x102>

    /* check the CRC for each word */
    for (i = 0, j = 0; i < size; i += SENSIRION_WORD_SIZE + CRC8_LEN) {
 8002488:	2356      	movs	r3, #86	; 0x56
 800248a:	18fb      	adds	r3, r7, r3
 800248c:	2200      	movs	r2, #0
 800248e:	801a      	strh	r2, [r3, #0]
 8002490:	2354      	movs	r3, #84	; 0x54
 8002492:	18fb      	adds	r3, r7, r3
 8002494:	2200      	movs	r2, #0
 8002496:	801a      	strh	r2, [r3, #0]
 8002498:	e041      	b.n	800251e <sensirion_i2c_read_words_as_bytes+0xf0>

        ret = sensirion_common_check_crc(&buf8[i], SENSIRION_WORD_SIZE,
 800249a:	2156      	movs	r1, #86	; 0x56
 800249c:	187b      	adds	r3, r7, r1
 800249e:	881b      	ldrh	r3, [r3, #0]
 80024a0:	6cfa      	ldr	r2, [r7, #76]	; 0x4c
 80024a2:	18d0      	adds	r0, r2, r3
                                         buf8[i + SENSIRION_WORD_SIZE]);
 80024a4:	187b      	adds	r3, r7, r1
 80024a6:	881b      	ldrh	r3, [r3, #0]
 80024a8:	3302      	adds	r3, #2
 80024aa:	6cfa      	ldr	r2, [r7, #76]	; 0x4c
 80024ac:	18d3      	adds	r3, r2, r3
        ret = sensirion_common_check_crc(&buf8[i], SENSIRION_WORD_SIZE,
 80024ae:	781b      	ldrb	r3, [r3, #0]
 80024b0:	001a      	movs	r2, r3
 80024b2:	2102      	movs	r1, #2
 80024b4:	f7ff ff15 	bl	80022e2 <sensirion_common_check_crc>
 80024b8:	0003      	movs	r3, r0
 80024ba:	001a      	movs	r2, r3
 80024bc:	214a      	movs	r1, #74	; 0x4a
 80024be:	187b      	adds	r3, r7, r1
 80024c0:	801a      	strh	r2, [r3, #0]
        if (ret != NO_ERROR)
 80024c2:	000a      	movs	r2, r1
 80024c4:	18bb      	adds	r3, r7, r2
 80024c6:	2100      	movs	r1, #0
 80024c8:	5e5b      	ldrsh	r3, [r3, r1]
 80024ca:	2b00      	cmp	r3, #0
 80024cc:	d003      	beq.n	80024d6 <sensirion_i2c_read_words_as_bytes+0xa8>
            return ret;
 80024ce:	18bb      	adds	r3, r7, r2
 80024d0:	2200      	movs	r2, #0
 80024d2:	5e9b      	ldrsh	r3, [r3, r2]
 80024d4:	e02c      	b.n	8002530 <sensirion_i2c_read_words_as_bytes+0x102>

        data[j++] = buf8[i];
 80024d6:	2456      	movs	r4, #86	; 0x56
 80024d8:	193b      	adds	r3, r7, r4
 80024da:	881b      	ldrh	r3, [r3, #0]
 80024dc:	6cfa      	ldr	r2, [r7, #76]	; 0x4c
 80024de:	18d2      	adds	r2, r2, r3
 80024e0:	2554      	movs	r5, #84	; 0x54
 80024e2:	197b      	adds	r3, r7, r5
 80024e4:	881b      	ldrh	r3, [r3, #0]
 80024e6:	1979      	adds	r1, r7, r5
 80024e8:	1c58      	adds	r0, r3, #1
 80024ea:	8008      	strh	r0, [r1, #0]
 80024ec:	0019      	movs	r1, r3
 80024ee:	683b      	ldr	r3, [r7, #0]
 80024f0:	185b      	adds	r3, r3, r1
 80024f2:	7812      	ldrb	r2, [r2, #0]
 80024f4:	701a      	strb	r2, [r3, #0]
        data[j++] = buf8[i + 1];
 80024f6:	193b      	adds	r3, r7, r4
 80024f8:	881b      	ldrh	r3, [r3, #0]
 80024fa:	3301      	adds	r3, #1
 80024fc:	6cfa      	ldr	r2, [r7, #76]	; 0x4c
 80024fe:	18d2      	adds	r2, r2, r3
 8002500:	197b      	adds	r3, r7, r5
 8002502:	881b      	ldrh	r3, [r3, #0]
 8002504:	1979      	adds	r1, r7, r5
 8002506:	1c58      	adds	r0, r3, #1
 8002508:	8008      	strh	r0, [r1, #0]
 800250a:	0019      	movs	r1, r3
 800250c:	683b      	ldr	r3, [r7, #0]
 800250e:	185b      	adds	r3, r3, r1
 8002510:	7812      	ldrb	r2, [r2, #0]
 8002512:	701a      	strb	r2, [r3, #0]
    for (i = 0, j = 0; i < size; i += SENSIRION_WORD_SIZE + CRC8_LEN) {
 8002514:	193b      	adds	r3, r7, r4
 8002516:	193a      	adds	r2, r7, r4
 8002518:	8812      	ldrh	r2, [r2, #0]
 800251a:	3203      	adds	r2, #3
 800251c:	801a      	strh	r2, [r3, #0]
 800251e:	2356      	movs	r3, #86	; 0x56
 8002520:	18fa      	adds	r2, r7, r3
 8002522:	2352      	movs	r3, #82	; 0x52
 8002524:	18fb      	adds	r3, r7, r3
 8002526:	8812      	ldrh	r2, [r2, #0]
 8002528:	881b      	ldrh	r3, [r3, #0]
 800252a:	429a      	cmp	r2, r3
 800252c:	d3b5      	bcc.n	800249a <sensirion_i2c_read_words_as_bytes+0x6c>
    }

    return NO_ERROR;
 800252e:	2300      	movs	r3, #0
}
 8002530:	0018      	movs	r0, r3
 8002532:	46bd      	mov	sp, r7
 8002534:	b016      	add	sp, #88	; 0x58
 8002536:	bdb0      	pop	{r4, r5, r7, pc}

08002538 <sensirion_i2c_read_words>:

int16_t sensirion_i2c_read_words(uint8_t address, uint16_t* data_words,
                                 uint16_t num_words) {
 8002538:	b5b0      	push	{r4, r5, r7, lr}
 800253a:	b084      	sub	sp, #16
 800253c:	af00      	add	r7, sp, #0
 800253e:	6039      	str	r1, [r7, #0]
 8002540:	0011      	movs	r1, r2
 8002542:	1dfb      	adds	r3, r7, #7
 8002544:	1c02      	adds	r2, r0, #0
 8002546:	701a      	strb	r2, [r3, #0]
 8002548:	1d3b      	adds	r3, r7, #4
 800254a:	1c0a      	adds	r2, r1, #0
 800254c:	801a      	strh	r2, [r3, #0]
    int16_t ret;
    uint8_t i;
    const uint8_t* word_bytes;

    ret = sensirion_i2c_read_words_as_bytes(address, (uint8_t*)data_words,
 800254e:	250c      	movs	r5, #12
 8002550:	197c      	adds	r4, r7, r5
 8002552:	1d3b      	adds	r3, r7, #4
 8002554:	881a      	ldrh	r2, [r3, #0]
 8002556:	6839      	ldr	r1, [r7, #0]
 8002558:	1dfb      	adds	r3, r7, #7
 800255a:	781b      	ldrb	r3, [r3, #0]
 800255c:	0018      	movs	r0, r3
 800255e:	f7ff ff66 	bl	800242e <sensirion_i2c_read_words_as_bytes>
 8002562:	0003      	movs	r3, r0
 8002564:	8023      	strh	r3, [r4, #0]
                                            num_words);
    if (ret != NO_ERROR)
 8002566:	197b      	adds	r3, r7, r5
 8002568:	2200      	movs	r2, #0
 800256a:	5e9b      	ldrsh	r3, [r3, r2]
 800256c:	2b00      	cmp	r3, #0
 800256e:	d003      	beq.n	8002578 <sensirion_i2c_read_words+0x40>
        return ret;
 8002570:	197b      	adds	r3, r7, r5
 8002572:	2200      	movs	r2, #0
 8002574:	5e9b      	ldrsh	r3, [r3, r2]
 8002576:	e02a      	b.n	80025ce <sensirion_i2c_read_words+0x96>

    for (i = 0; i < num_words; ++i) {
 8002578:	230f      	movs	r3, #15
 800257a:	18fb      	adds	r3, r7, r3
 800257c:	2200      	movs	r2, #0
 800257e:	701a      	strb	r2, [r3, #0]
 8002580:	e01c      	b.n	80025bc <sensirion_i2c_read_words+0x84>
        word_bytes = (uint8_t*)&data_words[i];
 8002582:	200f      	movs	r0, #15
 8002584:	183b      	adds	r3, r7, r0
 8002586:	781b      	ldrb	r3, [r3, #0]
 8002588:	005b      	lsls	r3, r3, #1
 800258a:	683a      	ldr	r2, [r7, #0]
 800258c:	18d3      	adds	r3, r2, r3
 800258e:	60bb      	str	r3, [r7, #8]
        data_words[i] = ((uint16_t)word_bytes[0] << 8) | word_bytes[1];
 8002590:	68bb      	ldr	r3, [r7, #8]
 8002592:	781b      	ldrb	r3, [r3, #0]
 8002594:	021b      	lsls	r3, r3, #8
 8002596:	b21a      	sxth	r2, r3
 8002598:	68bb      	ldr	r3, [r7, #8]
 800259a:	3301      	adds	r3, #1
 800259c:	781b      	ldrb	r3, [r3, #0]
 800259e:	b21b      	sxth	r3, r3
 80025a0:	4313      	orrs	r3, r2
 80025a2:	b219      	sxth	r1, r3
 80025a4:	183b      	adds	r3, r7, r0
 80025a6:	781b      	ldrb	r3, [r3, #0]
 80025a8:	005b      	lsls	r3, r3, #1
 80025aa:	683a      	ldr	r2, [r7, #0]
 80025ac:	18d3      	adds	r3, r2, r3
 80025ae:	b28a      	uxth	r2, r1
 80025b0:	801a      	strh	r2, [r3, #0]
    for (i = 0; i < num_words; ++i) {
 80025b2:	183b      	adds	r3, r7, r0
 80025b4:	183a      	adds	r2, r7, r0
 80025b6:	7812      	ldrb	r2, [r2, #0]
 80025b8:	3201      	adds	r2, #1
 80025ba:	701a      	strb	r2, [r3, #0]
 80025bc:	230f      	movs	r3, #15
 80025be:	18fb      	adds	r3, r7, r3
 80025c0:	781b      	ldrb	r3, [r3, #0]
 80025c2:	b29b      	uxth	r3, r3
 80025c4:	1d3a      	adds	r2, r7, #4
 80025c6:	8812      	ldrh	r2, [r2, #0]
 80025c8:	429a      	cmp	r2, r3
 80025ca:	d8da      	bhi.n	8002582 <sensirion_i2c_read_words+0x4a>
    }

    return NO_ERROR;
 80025cc:	2300      	movs	r3, #0
}
 80025ce:	0018      	movs	r0, r3
 80025d0:	46bd      	mov	sp, r7
 80025d2:	b004      	add	sp, #16
 80025d4:	bdb0      	pop	{r4, r5, r7, pc}

080025d6 <sensirion_i2c_write_cmd>:

int16_t sensirion_i2c_write_cmd(uint8_t address, uint16_t command) {
 80025d6:	b590      	push	{r4, r7, lr}
 80025d8:	b085      	sub	sp, #20
 80025da:	af00      	add	r7, sp, #0
 80025dc:	0002      	movs	r2, r0
 80025de:	1dfb      	adds	r3, r7, #7
 80025e0:	701a      	strb	r2, [r3, #0]
 80025e2:	1d3b      	adds	r3, r7, #4
 80025e4:	1c0a      	adds	r2, r1, #0
 80025e6:	801a      	strh	r2, [r3, #0]
    uint8_t buf[SENSIRION_COMMAND_SIZE];

    sensirion_fill_cmd_send_buf(buf, command, NULL, 0);
 80025e8:	1d3b      	adds	r3, r7, #4
 80025ea:	8819      	ldrh	r1, [r3, #0]
 80025ec:	240c      	movs	r4, #12
 80025ee:	1938      	adds	r0, r7, r4
 80025f0:	2300      	movs	r3, #0
 80025f2:	2200      	movs	r2, #0
 80025f4:	f7ff fe96 	bl	8002324 <sensirion_fill_cmd_send_buf>
    return sensirion_i2c_write(address, buf, SENSIRION_COMMAND_SIZE);
 80025f8:	1939      	adds	r1, r7, r4
 80025fa:	1dfb      	adds	r3, r7, #7
 80025fc:	781b      	ldrb	r3, [r3, #0]
 80025fe:	2202      	movs	r2, #2
 8002600:	0018      	movs	r0, r3
 8002602:	f000 f853 	bl	80026ac <sensirion_i2c_write>
 8002606:	0003      	movs	r3, r0
 8002608:	b21b      	sxth	r3, r3
}
 800260a:	0018      	movs	r0, r3
 800260c:	46bd      	mov	sp, r7
 800260e:	b005      	add	sp, #20
 8002610:	bd90      	pop	{r4, r7, pc}
	...

08002614 <sensirion_i2c_init>:

/**
 * Initialize all hard- and software components that are needed for the I2C
 * communication.
 */
void sensirion_i2c_init(void) {
 8002614:	b580      	push	{r7, lr}
 8002616:	af00      	add	r7, sp, #0
    hi2c1.Instance = I2C1;
 8002618:	4b11      	ldr	r3, [pc, #68]	; (8002660 <sensirion_i2c_init+0x4c>)
 800261a:	4a12      	ldr	r2, [pc, #72]	; (8002664 <sensirion_i2c_init+0x50>)
 800261c:	601a      	str	r2, [r3, #0]
   // hi2c1.Init.ClockSpeed = 100000;
   // hi2c1.Init.DutyCycle = I2C_DUTYCYCLE_2;
    hi2c1.Init.OwnAddress1 = 0;
 800261e:	4b10      	ldr	r3, [pc, #64]	; (8002660 <sensirion_i2c_init+0x4c>)
 8002620:	2200      	movs	r2, #0
 8002622:	609a      	str	r2, [r3, #8]
    hi2c1.Init.AddressingMode = I2C_ADDRESSINGMODE_7BIT;
 8002624:	4b0e      	ldr	r3, [pc, #56]	; (8002660 <sensirion_i2c_init+0x4c>)
 8002626:	2201      	movs	r2, #1
 8002628:	60da      	str	r2, [r3, #12]
    hi2c1.Init.DualAddressMode = I2C_DUALADDRESS_DISABLE;
 800262a:	4b0d      	ldr	r3, [pc, #52]	; (8002660 <sensirion_i2c_init+0x4c>)
 800262c:	2200      	movs	r2, #0
 800262e:	611a      	str	r2, [r3, #16]
    hi2c1.Init.OwnAddress2 = 0;
 8002630:	4b0b      	ldr	r3, [pc, #44]	; (8002660 <sensirion_i2c_init+0x4c>)
 8002632:	2200      	movs	r2, #0
 8002634:	615a      	str	r2, [r3, #20]
    hi2c1.Init.GeneralCallMode = I2C_GENERALCALL_DISABLE;
 8002636:	4b0a      	ldr	r3, [pc, #40]	; (8002660 <sensirion_i2c_init+0x4c>)
 8002638:	2200      	movs	r2, #0
 800263a:	61da      	str	r2, [r3, #28]
    hi2c1.Init.NoStretchMode = I2C_NOSTRETCH_DISABLE;
 800263c:	4b08      	ldr	r3, [pc, #32]	; (8002660 <sensirion_i2c_init+0x4c>)
 800263e:	2200      	movs	r2, #0
 8002640:	621a      	str	r2, [r3, #32]
    /* Enable the remapping of Pins 6/7 to 8/9 and the I2C clock before the
     * initialization of the GPIO Pins in HAL_I2C_Init(). This is a fix of the
     * code generated by CubeMX v4.16.0 */
   // __HAL_AFIO_REMAP_I2C1_ENABLE();
    __HAL_RCC_I2C1_CLK_ENABLE();
 8002642:	4b09      	ldr	r3, [pc, #36]	; (8002668 <sensirion_i2c_init+0x54>)
 8002644:	6b9a      	ldr	r2, [r3, #56]	; 0x38
 8002646:	4b08      	ldr	r3, [pc, #32]	; (8002668 <sensirion_i2c_init+0x54>)
 8002648:	2180      	movs	r1, #128	; 0x80
 800264a:	0389      	lsls	r1, r1, #14
 800264c:	430a      	orrs	r2, r1
 800264e:	639a      	str	r2, [r3, #56]	; 0x38
    HAL_I2C_Init(&hi2c1);
 8002650:	4b03      	ldr	r3, [pc, #12]	; (8002660 <sensirion_i2c_init+0x4c>)
 8002652:	0018      	movs	r0, r3
 8002654:	f001 fc98 	bl	8003f88 <HAL_I2C_Init>
}
 8002658:	46c0      	nop			; (mov r8, r8)
 800265a:	46bd      	mov	sp, r7
 800265c:	bd80      	pop	{r7, pc}
 800265e:	46c0      	nop			; (mov r8, r8)
 8002660:	20000210 	.word	0x20000210
 8002664:	40005400 	.word	0x40005400
 8002668:	40021000 	.word	0x40021000

0800266c <sensirion_i2c_read>:
 * @param address 7-bit I2C address to read from
 * @param data    pointer to the buffer where the data is to be stored
 * @param count   number of bytes to read from I2C and store in the buffer
 * @returns 0 on success, error code otherwise
 */
int8_t sensirion_i2c_read(uint8_t address, uint8_t* data, uint16_t count) {
 800266c:	b590      	push	{r4, r7, lr}
 800266e:	b085      	sub	sp, #20
 8002670:	af02      	add	r7, sp, #8
 8002672:	6039      	str	r1, [r7, #0]
 8002674:	0011      	movs	r1, r2
 8002676:	1dfb      	adds	r3, r7, #7
 8002678:	1c02      	adds	r2, r0, #0
 800267a:	701a      	strb	r2, [r3, #0]
 800267c:	1d3b      	adds	r3, r7, #4
 800267e:	1c0a      	adds	r2, r1, #0
 8002680:	801a      	strh	r2, [r3, #0]
    return (int8_t)HAL_I2C_Master_Receive(&hi2c1, (uint16_t)(address << 1),
 8002682:	1dfb      	adds	r3, r7, #7
 8002684:	781b      	ldrb	r3, [r3, #0]
 8002686:	b29b      	uxth	r3, r3
 8002688:	18db      	adds	r3, r3, r3
 800268a:	b299      	uxth	r1, r3
 800268c:	1d3b      	adds	r3, r7, #4
 800268e:	881b      	ldrh	r3, [r3, #0]
 8002690:	683a      	ldr	r2, [r7, #0]
 8002692:	4805      	ldr	r0, [pc, #20]	; (80026a8 <sensirion_i2c_read+0x3c>)
 8002694:	2464      	movs	r4, #100	; 0x64
 8002696:	9400      	str	r4, [sp, #0]
 8002698:	f001 fe44 	bl	8004324 <HAL_I2C_Master_Receive>
 800269c:	0003      	movs	r3, r0
 800269e:	b25b      	sxtb	r3, r3
                                          data, count, 100);
}
 80026a0:	0018      	movs	r0, r3
 80026a2:	46bd      	mov	sp, r7
 80026a4:	b003      	add	sp, #12
 80026a6:	bd90      	pop	{r4, r7, pc}
 80026a8:	20000210 	.word	0x20000210

080026ac <sensirion_i2c_write>:
 * @param data    pointer to the buffer containing the data to write
 * @param count   number of bytes to read from the buffer and send over I2C
 * @returns 0 on success, error code otherwise
 */
int8_t sensirion_i2c_write(uint8_t address, const uint8_t* data,
                           uint16_t count) {
 80026ac:	b590      	push	{r4, r7, lr}
 80026ae:	b085      	sub	sp, #20
 80026b0:	af02      	add	r7, sp, #8
 80026b2:	6039      	str	r1, [r7, #0]
 80026b4:	0011      	movs	r1, r2
 80026b6:	1dfb      	adds	r3, r7, #7
 80026b8:	1c02      	adds	r2, r0, #0
 80026ba:	701a      	strb	r2, [r3, #0]
 80026bc:	1d3b      	adds	r3, r7, #4
 80026be:	1c0a      	adds	r2, r1, #0
 80026c0:	801a      	strh	r2, [r3, #0]
    return (int8_t)HAL_I2C_Master_Transmit(&hi2c1, (uint16_t)(address << 1),
 80026c2:	1dfb      	adds	r3, r7, #7
 80026c4:	781b      	ldrb	r3, [r3, #0]
 80026c6:	b29b      	uxth	r3, r3
 80026c8:	18db      	adds	r3, r3, r3
 80026ca:	b299      	uxth	r1, r3
 80026cc:	1d3b      	adds	r3, r7, #4
 80026ce:	881b      	ldrh	r3, [r3, #0]
 80026d0:	683a      	ldr	r2, [r7, #0]
 80026d2:	4805      	ldr	r0, [pc, #20]	; (80026e8 <sensirion_i2c_write+0x3c>)
 80026d4:	2464      	movs	r4, #100	; 0x64
 80026d6:	9400      	str	r4, [sp, #0]
 80026d8:	f001 fd1c 	bl	8004114 <HAL_I2C_Master_Transmit>
 80026dc:	0003      	movs	r3, r0
 80026de:	b25b      	sxtb	r3, r3
                                           (uint8_t*)data, count, 100);
}
 80026e0:	0018      	movs	r0, r3
 80026e2:	46bd      	mov	sp, r7
 80026e4:	b003      	add	sp, #12
 80026e6:	bd90      	pop	{r4, r7, pc}
 80026e8:	20000210 	.word	0x20000210

080026ec <sensirion_sleep_usec>:
 * Sleep for a given number of microseconds. The function should delay the
 * execution for at least the given time, but may also sleep longer.
 *
 * @param useconds the sleep time in microseconds
 */
void sensirion_sleep_usec(uint32_t useconds) {
 80026ec:	b580      	push	{r7, lr}
 80026ee:	b084      	sub	sp, #16
 80026f0:	af00      	add	r7, sp, #0
 80026f2:	6078      	str	r0, [r7, #4]
    uint32_t msec = useconds / 1000;
 80026f4:	687b      	ldr	r3, [r7, #4]
 80026f6:	22fa      	movs	r2, #250	; 0xfa
 80026f8:	0091      	lsls	r1, r2, #2
 80026fa:	0018      	movs	r0, r3
 80026fc:	f7fd fd16 	bl	800012c <__udivsi3>
 8002700:	0003      	movs	r3, r0
 8002702:	60fb      	str	r3, [r7, #12]
    if (useconds % 1000 > 0) {
 8002704:	687b      	ldr	r3, [r7, #4]
 8002706:	22fa      	movs	r2, #250	; 0xfa
 8002708:	0091      	lsls	r1, r2, #2
 800270a:	0018      	movs	r0, r3
 800270c:	f7fd fd94 	bl	8000238 <__aeabi_uidivmod>
 8002710:	1e0b      	subs	r3, r1, #0
 8002712:	d002      	beq.n	800271a <sensirion_sleep_usec+0x2e>
        msec++;
 8002714:	68fb      	ldr	r3, [r7, #12]
 8002716:	3301      	adds	r3, #1
 8002718:	60fb      	str	r3, [r7, #12]
     * Increment by 1 if STM32F1 driver version less than 1.1.1
     * Old firmwares of STM32F1 sleep 1ms shorter than specified in HAL_Delay.
     * This was fixed with firmware 1.6 (driver version 1.1.1), so we have to
     * fix it ourselves for older firmwares
     */
    if (HAL_GetHalVersion() < 0x01010100) {
 800271a:	f000 fb47 	bl	8002dac <HAL_GetHalVersion>
 800271e:	0003      	movs	r3, r0
 8002720:	4a06      	ldr	r2, [pc, #24]	; (800273c <sensirion_sleep_usec+0x50>)
 8002722:	4293      	cmp	r3, r2
 8002724:	d802      	bhi.n	800272c <sensirion_sleep_usec+0x40>
        msec++;
 8002726:	68fb      	ldr	r3, [r7, #12]
 8002728:	3301      	adds	r3, #1
 800272a:	60fb      	str	r3, [r7, #12]
    }

    HAL_Delay(msec);
 800272c:	68fb      	ldr	r3, [r7, #12]
 800272e:	0018      	movs	r0, r3
 8002730:	f000 fb18 	bl	8002d64 <HAL_Delay>
}
 8002734:	46c0      	nop			; (mov r8, r8)
 8002736:	46bd      	mov	sp, r7
 8002738:	b004      	add	sp, #16
 800273a:	bd80      	pop	{r7, pc}
 800273c:	010100ff 	.word	0x010100ff

08002740 <sht3x_measure_blocking_read>:
static const uint16_t SHT3X_CMD_WRITE_LOALRT_LIM_SET = 0x6100;

static uint16_t sht3x_cmd_measure = SHT3X_CMD_MEASURE_HPM;

int16_t sht3x_measure_blocking_read(sht3x_i2c_addr_t addr, int32_t* temperature,
                                    int32_t* humidity) {
 8002740:	b5f0      	push	{r4, r5, r6, r7, lr}
 8002742:	b087      	sub	sp, #28
 8002744:	af00      	add	r7, sp, #0
 8002746:	60b9      	str	r1, [r7, #8]
 8002748:	607a      	str	r2, [r7, #4]
 800274a:	250f      	movs	r5, #15
 800274c:	197b      	adds	r3, r7, r5
 800274e:	1c02      	adds	r2, r0, #0
 8002750:	701a      	strb	r2, [r3, #0]
    int16_t ret = sht3x_measure(addr);
 8002752:	2616      	movs	r6, #22
 8002754:	19bc      	adds	r4, r7, r6
 8002756:	197b      	adds	r3, r7, r5
 8002758:	781b      	ldrb	r3, [r3, #0]
 800275a:	0018      	movs	r0, r3
 800275c:	f000 f820 	bl	80027a0 <sht3x_measure>
 8002760:	0003      	movs	r3, r0
 8002762:	8023      	strh	r3, [r4, #0]
    if (ret == STATUS_OK) {
 8002764:	19bb      	adds	r3, r7, r6
 8002766:	2200      	movs	r2, #0
 8002768:	5e9b      	ldrsh	r3, [r3, r2]
 800276a:	2b00      	cmp	r3, #0
 800276c:	d10d      	bne.n	800278a <sht3x_measure_blocking_read+0x4a>
#if !defined(USE_SENSIRION_CLOCK_STRETCHING) || !USE_SENSIRION_CLOCK_STRETCHING
        sensirion_sleep_usec(SHT3X_MEASUREMENT_DURATION_USEC);
 800276e:	4b0b      	ldr	r3, [pc, #44]	; (800279c <sht3x_measure_blocking_read+0x5c>)
 8002770:	0018      	movs	r0, r3
 8002772:	f7ff ffbb 	bl	80026ec <sensirion_sleep_usec>
#endif /* USE_SENSIRION_CLOCK_STRETCHING */
        ret = sht3x_read(addr, temperature, humidity);
 8002776:	19bc      	adds	r4, r7, r6
 8002778:	687a      	ldr	r2, [r7, #4]
 800277a:	68b9      	ldr	r1, [r7, #8]
 800277c:	197b      	adds	r3, r7, r5
 800277e:	781b      	ldrb	r3, [r3, #0]
 8002780:	0018      	movs	r0, r3
 8002782:	f000 f823 	bl	80027cc <sht3x_read>
 8002786:	0003      	movs	r3, r0
 8002788:	8023      	strh	r3, [r4, #0]
    }
    return ret;
 800278a:	2316      	movs	r3, #22
 800278c:	18fb      	adds	r3, r7, r3
 800278e:	2200      	movs	r2, #0
 8002790:	5e9b      	ldrsh	r3, [r3, r2]
}
 8002792:	0018      	movs	r0, r3
 8002794:	46bd      	mov	sp, r7
 8002796:	b007      	add	sp, #28
 8002798:	bdf0      	pop	{r4, r5, r6, r7, pc}
 800279a:	46c0      	nop			; (mov r8, r8)
 800279c:	00003a98 	.word	0x00003a98

080027a0 <sht3x_measure>:

int16_t sht3x_measure(sht3x_i2c_addr_t addr) {
 80027a0:	b580      	push	{r7, lr}
 80027a2:	b082      	sub	sp, #8
 80027a4:	af00      	add	r7, sp, #0
 80027a6:	0002      	movs	r2, r0
 80027a8:	1dfb      	adds	r3, r7, #7
 80027aa:	701a      	strb	r2, [r3, #0]
    return sensirion_i2c_write_cmd(addr, sht3x_cmd_measure);
 80027ac:	4b06      	ldr	r3, [pc, #24]	; (80027c8 <sht3x_measure+0x28>)
 80027ae:	881a      	ldrh	r2, [r3, #0]
 80027b0:	1dfb      	adds	r3, r7, #7
 80027b2:	781b      	ldrb	r3, [r3, #0]
 80027b4:	0011      	movs	r1, r2
 80027b6:	0018      	movs	r0, r3
 80027b8:	f7ff ff0d 	bl	80025d6 <sensirion_i2c_write_cmd>
 80027bc:	0003      	movs	r3, r0
}
 80027be:	0018      	movs	r0, r3
 80027c0:	46bd      	mov	sp, r7
 80027c2:	b002      	add	sp, #8
 80027c4:	bd80      	pop	{r7, pc}
 80027c6:	46c0      	nop			; (mov r8, r8)
 80027c8:	20000180 	.word	0x20000180

080027cc <sht3x_read>:

int16_t sht3x_read(sht3x_i2c_addr_t addr, int32_t* temperature,
                   int32_t* humidity) {
 80027cc:	b5f0      	push	{r4, r5, r6, r7, lr}
 80027ce:	b087      	sub	sp, #28
 80027d0:	af00      	add	r7, sp, #0
 80027d2:	60b9      	str	r1, [r7, #8]
 80027d4:	607a      	str	r2, [r7, #4]
 80027d6:	260f      	movs	r6, #15
 80027d8:	19bb      	adds	r3, r7, r6
 80027da:	1c02      	adds	r2, r0, #0
 80027dc:	701a      	strb	r2, [r3, #0]
    uint16_t words[2];
    int16_t ret =
        sensirion_i2c_read_words(addr, words, SENSIRION_NUM_WORDS(words));
 80027de:	2316      	movs	r3, #22
 80027e0:	18fc      	adds	r4, r7, r3
 80027e2:	2510      	movs	r5, #16
 80027e4:	1979      	adds	r1, r7, r5
 80027e6:	19bb      	adds	r3, r7, r6
 80027e8:	781b      	ldrb	r3, [r3, #0]
 80027ea:	2202      	movs	r2, #2
 80027ec:	0018      	movs	r0, r3
 80027ee:	f7ff fea3 	bl	8002538 <sensirion_i2c_read_words>
 80027f2:	0003      	movs	r3, r0
 80027f4:	8023      	strh	r3, [r4, #0]
    /**
     * formulas for conversion of the sensor signals, optimized for fixed point
     * algebra: Temperature = 175 * S_T / 2^16 - 45
     * Relative Humidity = * 100 * S_RH / 2^16
     */
    tick_to_temperature(words[0], temperature);
 80027f6:	197b      	adds	r3, r7, r5
 80027f8:	881b      	ldrh	r3, [r3, #0]
 80027fa:	68ba      	ldr	r2, [r7, #8]
 80027fc:	0011      	movs	r1, r2
 80027fe:	0018      	movs	r0, r3
 8002800:	f000 f810 	bl	8002824 <tick_to_temperature>
    tick_to_humidity(words[1], humidity);
 8002804:	197b      	adds	r3, r7, r5
 8002806:	885b      	ldrh	r3, [r3, #2]
 8002808:	687a      	ldr	r2, [r7, #4]
 800280a:	0011      	movs	r1, r2
 800280c:	0018      	movs	r0, r3
 800280e:	f000 f821 	bl	8002854 <tick_to_humidity>

    return ret;
 8002812:	2316      	movs	r3, #22
 8002814:	18fb      	adds	r3, r7, r3
 8002816:	2200      	movs	r2, #0
 8002818:	5e9b      	ldrsh	r3, [r3, r2]
}
 800281a:	0018      	movs	r0, r3
 800281c:	46bd      	mov	sp, r7
 800281e:	b007      	add	sp, #28
 8002820:	bdf0      	pop	{r4, r5, r6, r7, pc}
	...

08002824 <tick_to_temperature>:
    tick_to_temperature(rawT, temperature);

    return ret;
}

void tick_to_temperature(uint16_t tick, int32_t* temperature) {
 8002824:	b580      	push	{r7, lr}
 8002826:	b082      	sub	sp, #8
 8002828:	af00      	add	r7, sp, #0
 800282a:	0002      	movs	r2, r0
 800282c:	6039      	str	r1, [r7, #0]
 800282e:	1dbb      	adds	r3, r7, #6
 8002830:	801a      	strh	r2, [r3, #0]
    *temperature = ((21875 * (int32_t)tick) >> 13) - 45000;
 8002832:	1dbb      	adds	r3, r7, #6
 8002834:	881b      	ldrh	r3, [r3, #0]
 8002836:	4a05      	ldr	r2, [pc, #20]	; (800284c <tick_to_temperature+0x28>)
 8002838:	4353      	muls	r3, r2
 800283a:	135b      	asrs	r3, r3, #13
 800283c:	4a04      	ldr	r2, [pc, #16]	; (8002850 <tick_to_temperature+0x2c>)
 800283e:	189a      	adds	r2, r3, r2
 8002840:	683b      	ldr	r3, [r7, #0]
 8002842:	601a      	str	r2, [r3, #0]
}
 8002844:	46c0      	nop			; (mov r8, r8)
 8002846:	46bd      	mov	sp, r7
 8002848:	b002      	add	sp, #8
 800284a:	bd80      	pop	{r7, pc}
 800284c:	00005573 	.word	0x00005573
 8002850:	ffff5038 	.word	0xffff5038

08002854 <tick_to_humidity>:

void tick_to_humidity(uint16_t tick, int32_t* humidity) {
 8002854:	b580      	push	{r7, lr}
 8002856:	b082      	sub	sp, #8
 8002858:	af00      	add	r7, sp, #0
 800285a:	0002      	movs	r2, r0
 800285c:	6039      	str	r1, [r7, #0]
 800285e:	1dbb      	adds	r3, r7, #6
 8002860:	801a      	strh	r2, [r3, #0]
    *humidity = ((12500 * (int32_t)tick) >> 13);
 8002862:	1dbb      	adds	r3, r7, #6
 8002864:	881b      	ldrh	r3, [r3, #0]
 8002866:	4a04      	ldr	r2, [pc, #16]	; (8002878 <tick_to_humidity+0x24>)
 8002868:	4353      	muls	r3, r2
 800286a:	135a      	asrs	r2, r3, #13
 800286c:	683b      	ldr	r3, [r7, #0]
 800286e:	601a      	str	r2, [r3, #0]
}
 8002870:	46c0      	nop			; (mov r8, r8)
 8002872:	46bd      	mov	sp, r7
 8002874:	b002      	add	sp, #8
 8002876:	bd80      	pop	{r7, pc}
 8002878:	000030d4 	.word	0x000030d4

0800287c <HAL_MspInit>:
/* USER CODE END 0 */
/**
  * Initializes the Global MSP.
  */
void HAL_MspInit(void)
{
 800287c:	b580      	push	{r7, lr}
 800287e:	af00      	add	r7, sp, #0
  /* USER CODE BEGIN MspInit 0 */

  /* USER CODE END MspInit 0 */

  __HAL_RCC_SYSCFG_CLK_ENABLE();
 8002880:	4b07      	ldr	r3, [pc, #28]	; (80028a0 <HAL_MspInit+0x24>)
 8002882:	6b5a      	ldr	r2, [r3, #52]	; 0x34
 8002884:	4b06      	ldr	r3, [pc, #24]	; (80028a0 <HAL_MspInit+0x24>)
 8002886:	2101      	movs	r1, #1
 8002888:	430a      	orrs	r2, r1
 800288a:	635a      	str	r2, [r3, #52]	; 0x34
  __HAL_RCC_PWR_CLK_ENABLE();
 800288c:	4b04      	ldr	r3, [pc, #16]	; (80028a0 <HAL_MspInit+0x24>)
 800288e:	6b9a      	ldr	r2, [r3, #56]	; 0x38
 8002890:	4b03      	ldr	r3, [pc, #12]	; (80028a0 <HAL_MspInit+0x24>)
 8002892:	2180      	movs	r1, #128	; 0x80
 8002894:	0549      	lsls	r1, r1, #21
 8002896:	430a      	orrs	r2, r1
 8002898:	639a      	str	r2, [r3, #56]	; 0x38
  /* System interrupt init*/

  /* USER CODE BEGIN MspInit 1 */

  /* USER CODE END MspInit 1 */
}
 800289a:	46c0      	nop			; (mov r8, r8)
 800289c:	46bd      	mov	sp, r7
 800289e:	bd80      	pop	{r7, pc}
 80028a0:	40021000 	.word	0x40021000

080028a4 <HAL_ADC_MspInit>:
* This function configures the hardware resources used in this example
* @param hadc: ADC handle pointer
* @retval None
*/
void HAL_ADC_MspInit(ADC_HandleTypeDef* hadc)
{
 80028a4:	b580      	push	{r7, lr}
 80028a6:	b082      	sub	sp, #8
 80028a8:	af00      	add	r7, sp, #0
 80028aa:	6078      	str	r0, [r7, #4]
  if(hadc->Instance==ADC1)
 80028ac:	687b      	ldr	r3, [r7, #4]
 80028ae:	681b      	ldr	r3, [r3, #0]
 80028b0:	4a06      	ldr	r2, [pc, #24]	; (80028cc <HAL_ADC_MspInit+0x28>)
 80028b2:	4293      	cmp	r3, r2
 80028b4:	d106      	bne.n	80028c4 <HAL_ADC_MspInit+0x20>
  {
  /* USER CODE BEGIN ADC1_MspInit 0 */

  /* USER CODE END ADC1_MspInit 0 */
    /* Peripheral clock enable */
    __HAL_RCC_ADC1_CLK_ENABLE();
 80028b6:	4b06      	ldr	r3, [pc, #24]	; (80028d0 <HAL_ADC_MspInit+0x2c>)
 80028b8:	6b5a      	ldr	r2, [r3, #52]	; 0x34
 80028ba:	4b05      	ldr	r3, [pc, #20]	; (80028d0 <HAL_ADC_MspInit+0x2c>)
 80028bc:	2180      	movs	r1, #128	; 0x80
 80028be:	0089      	lsls	r1, r1, #2
 80028c0:	430a      	orrs	r2, r1
 80028c2:	635a      	str	r2, [r3, #52]	; 0x34
  /* USER CODE BEGIN ADC1_MspInit 1 */

  /* USER CODE END ADC1_MspInit 1 */
  }

}
 80028c4:	46c0      	nop			; (mov r8, r8)
 80028c6:	46bd      	mov	sp, r7
 80028c8:	b002      	add	sp, #8
 80028ca:	bd80      	pop	{r7, pc}
 80028cc:	40012400 	.word	0x40012400
 80028d0:	40021000 	.word	0x40021000

080028d4 <HAL_ADC_MspDeInit>:
* This function freeze the hardware resources used in this example
* @param hadc: ADC handle pointer
* @retval None
*/
void HAL_ADC_MspDeInit(ADC_HandleTypeDef* hadc)
{
 80028d4:	b580      	push	{r7, lr}
 80028d6:	b082      	sub	sp, #8
 80028d8:	af00      	add	r7, sp, #0
 80028da:	6078      	str	r0, [r7, #4]
  if(hadc->Instance==ADC1)
 80028dc:	687b      	ldr	r3, [r7, #4]
 80028de:	681b      	ldr	r3, [r3, #0]
 80028e0:	4a06      	ldr	r2, [pc, #24]	; (80028fc <HAL_ADC_MspDeInit+0x28>)
 80028e2:	4293      	cmp	r3, r2
 80028e4:	d105      	bne.n	80028f2 <HAL_ADC_MspDeInit+0x1e>
  {
  /* USER CODE BEGIN ADC1_MspDeInit 0 */

  /* USER CODE END ADC1_MspDeInit 0 */
    /* Peripheral clock disable */
    __HAL_RCC_ADC1_CLK_DISABLE();
 80028e6:	4b06      	ldr	r3, [pc, #24]	; (8002900 <HAL_ADC_MspDeInit+0x2c>)
 80028e8:	6b5a      	ldr	r2, [r3, #52]	; 0x34
 80028ea:	4b05      	ldr	r3, [pc, #20]	; (8002900 <HAL_ADC_MspDeInit+0x2c>)
 80028ec:	4905      	ldr	r1, [pc, #20]	; (8002904 <HAL_ADC_MspDeInit+0x30>)
 80028ee:	400a      	ands	r2, r1
 80028f0:	635a      	str	r2, [r3, #52]	; 0x34
  /* USER CODE BEGIN ADC1_MspDeInit 1 */

  /* USER CODE END ADC1_MspDeInit 1 */
  }

}
 80028f2:	46c0      	nop			; (mov r8, r8)
 80028f4:	46bd      	mov	sp, r7
 80028f6:	b002      	add	sp, #8
 80028f8:	bd80      	pop	{r7, pc}
 80028fa:	46c0      	nop			; (mov r8, r8)
 80028fc:	40012400 	.word	0x40012400
 8002900:	40021000 	.word	0x40021000
 8002904:	fffffdff 	.word	0xfffffdff

08002908 <HAL_I2C_MspInit>:
* This function configures the hardware resources used in this example
* @param hi2c: I2C handle pointer
* @retval None
*/
void HAL_I2C_MspInit(I2C_HandleTypeDef* hi2c)
{
 8002908:	b590      	push	{r4, r7, lr}
 800290a:	b089      	sub	sp, #36	; 0x24
 800290c:	af00      	add	r7, sp, #0
 800290e:	6078      	str	r0, [r7, #4]
  GPIO_InitTypeDef GPIO_InitStruct = {0};
 8002910:	240c      	movs	r4, #12
 8002912:	193b      	adds	r3, r7, r4
 8002914:	0018      	movs	r0, r3
 8002916:	2314      	movs	r3, #20
 8002918:	001a      	movs	r2, r3
 800291a:	2100      	movs	r1, #0
 800291c:	f003 ff6d 	bl	80067fa <memset>
  if(hi2c->Instance==I2C1)
 8002920:	687b      	ldr	r3, [r7, #4]
 8002922:	681b      	ldr	r3, [r3, #0]
 8002924:	4a17      	ldr	r2, [pc, #92]	; (8002984 <HAL_I2C_MspInit+0x7c>)
 8002926:	4293      	cmp	r3, r2
 8002928:	d128      	bne.n	800297c <HAL_I2C_MspInit+0x74>
  {
  /* USER CODE BEGIN I2C1_MspInit 0 */

  /* USER CODE END I2C1_MspInit 0 */

    __HAL_RCC_GPIOB_CLK_ENABLE();
 800292a:	4b17      	ldr	r3, [pc, #92]	; (8002988 <HAL_I2C_MspInit+0x80>)
 800292c:	6ada      	ldr	r2, [r3, #44]	; 0x2c
 800292e:	4b16      	ldr	r3, [pc, #88]	; (8002988 <HAL_I2C_MspInit+0x80>)
 8002930:	2102      	movs	r1, #2
 8002932:	430a      	orrs	r2, r1
 8002934:	62da      	str	r2, [r3, #44]	; 0x2c
 8002936:	4b14      	ldr	r3, [pc, #80]	; (8002988 <HAL_I2C_MspInit+0x80>)
 8002938:	6adb      	ldr	r3, [r3, #44]	; 0x2c
 800293a:	2202      	movs	r2, #2
 800293c:	4013      	ands	r3, r2
 800293e:	60bb      	str	r3, [r7, #8]
 8002940:	68bb      	ldr	r3, [r7, #8]
    /**I2C1 GPIO Configuration
    PB6     ------> I2C1_SCL
    PB7     ------> I2C1_SDA
    */
    GPIO_InitStruct.Pin = GPIO_PIN_6|GPIO_PIN_7;
 8002942:	0021      	movs	r1, r4
 8002944:	187b      	adds	r3, r7, r1
 8002946:	22c0      	movs	r2, #192	; 0xc0
 8002948:	601a      	str	r2, [r3, #0]
    GPIO_InitStruct.Mode = GPIO_MODE_AF_OD;
 800294a:	187b      	adds	r3, r7, r1
 800294c:	2212      	movs	r2, #18
 800294e:	605a      	str	r2, [r3, #4]
    GPIO_InitStruct.Pull = GPIO_NOPULL;
 8002950:	187b      	adds	r3, r7, r1
 8002952:	2200      	movs	r2, #0
 8002954:	609a      	str	r2, [r3, #8]
    GPIO_InitStruct.Speed = GPIO_SPEED_FREQ_VERY_HIGH;
 8002956:	187b      	adds	r3, r7, r1
 8002958:	2203      	movs	r2, #3
 800295a:	60da      	str	r2, [r3, #12]
    GPIO_InitStruct.Alternate = GPIO_AF1_I2C1;
 800295c:	187b      	adds	r3, r7, r1
 800295e:	2201      	movs	r2, #1
 8002960:	611a      	str	r2, [r3, #16]
    HAL_GPIO_Init(GPIOB, &GPIO_InitStruct);
 8002962:	187b      	adds	r3, r7, r1
 8002964:	4a09      	ldr	r2, [pc, #36]	; (800298c <HAL_I2C_MspInit+0x84>)
 8002966:	0019      	movs	r1, r3
 8002968:	0010      	movs	r0, r2
 800296a:	f001 f893 	bl	8003a94 <HAL_GPIO_Init>

    /* Peripheral clock enable */
    __HAL_RCC_I2C1_CLK_ENABLE();
 800296e:	4b06      	ldr	r3, [pc, #24]	; (8002988 <HAL_I2C_MspInit+0x80>)
 8002970:	6b9a      	ldr	r2, [r3, #56]	; 0x38
 8002972:	4b05      	ldr	r3, [pc, #20]	; (8002988 <HAL_I2C_MspInit+0x80>)
 8002974:	2180      	movs	r1, #128	; 0x80
 8002976:	0389      	lsls	r1, r1, #14
 8002978:	430a      	orrs	r2, r1
 800297a:	639a      	str	r2, [r3, #56]	; 0x38
  /* USER CODE BEGIN I2C1_MspInit 1 */

  /* USER CODE END I2C1_MspInit 1 */
  }

}
 800297c:	46c0      	nop			; (mov r8, r8)
 800297e:	46bd      	mov	sp, r7
 8002980:	b009      	add	sp, #36	; 0x24
 8002982:	bd90      	pop	{r4, r7, pc}
 8002984:	40005400 	.word	0x40005400
 8002988:	40021000 	.word	0x40021000
 800298c:	50000400 	.word	0x50000400

08002990 <HAL_I2C_MspDeInit>:
* This function freeze the hardware resources used in this example
* @param hi2c: I2C handle pointer
* @retval None
*/
void HAL_I2C_MspDeInit(I2C_HandleTypeDef* hi2c)
{
 8002990:	b580      	push	{r7, lr}
 8002992:	b082      	sub	sp, #8
 8002994:	af00      	add	r7, sp, #0
 8002996:	6078      	str	r0, [r7, #4]
  if(hi2c->Instance==I2C1)
 8002998:	687b      	ldr	r3, [r7, #4]
 800299a:	681b      	ldr	r3, [r3, #0]
 800299c:	4a0b      	ldr	r2, [pc, #44]	; (80029cc <HAL_I2C_MspDeInit+0x3c>)
 800299e:	4293      	cmp	r3, r2
 80029a0:	d10f      	bne.n	80029c2 <HAL_I2C_MspDeInit+0x32>
  {
  /* USER CODE BEGIN I2C1_MspDeInit 0 */

  /* USER CODE END I2C1_MspDeInit 0 */
    /* Peripheral clock disable */
    __HAL_RCC_I2C1_CLK_DISABLE();
 80029a2:	4b0b      	ldr	r3, [pc, #44]	; (80029d0 <HAL_I2C_MspDeInit+0x40>)
 80029a4:	6b9a      	ldr	r2, [r3, #56]	; 0x38
 80029a6:	4b0a      	ldr	r3, [pc, #40]	; (80029d0 <HAL_I2C_MspDeInit+0x40>)
 80029a8:	490a      	ldr	r1, [pc, #40]	; (80029d4 <HAL_I2C_MspDeInit+0x44>)
 80029aa:	400a      	ands	r2, r1
 80029ac:	639a      	str	r2, [r3, #56]	; 0x38

    /**I2C1 GPIO Configuration
    PB6     ------> I2C1_SCL
    PB7     ------> I2C1_SDA
    */
    HAL_GPIO_DeInit(GPIOB, GPIO_PIN_6);
 80029ae:	4b0a      	ldr	r3, [pc, #40]	; (80029d8 <HAL_I2C_MspDeInit+0x48>)
 80029b0:	2140      	movs	r1, #64	; 0x40
 80029b2:	0018      	movs	r0, r3
 80029b4:	f001 f9dc 	bl	8003d70 <HAL_GPIO_DeInit>

    HAL_GPIO_DeInit(GPIOB, GPIO_PIN_7);
 80029b8:	4b07      	ldr	r3, [pc, #28]	; (80029d8 <HAL_I2C_MspDeInit+0x48>)
 80029ba:	2180      	movs	r1, #128	; 0x80
 80029bc:	0018      	movs	r0, r3
 80029be:	f001 f9d7 	bl	8003d70 <HAL_GPIO_DeInit>
  /* USER CODE BEGIN I2C1_MspDeInit 1 */

  /* USER CODE END I2C1_MspDeInit 1 */
  }

}
 80029c2:	46c0      	nop			; (mov r8, r8)
 80029c4:	46bd      	mov	sp, r7
 80029c6:	b002      	add	sp, #8
 80029c8:	bd80      	pop	{r7, pc}
 80029ca:	46c0      	nop			; (mov r8, r8)
 80029cc:	40005400 	.word	0x40005400
 80029d0:	40021000 	.word	0x40021000
 80029d4:	ffdfffff 	.word	0xffdfffff
 80029d8:	50000400 	.word	0x50000400

080029dc <HAL_UART_MspInit>:
* This function configures the hardware resources used in this example
* @param huart: UART handle pointer
* @retval None
*/
void HAL_UART_MspInit(UART_HandleTypeDef* huart)
{
 80029dc:	b590      	push	{r4, r7, lr}
 80029de:	b08b      	sub	sp, #44	; 0x2c
 80029e0:	af00      	add	r7, sp, #0
 80029e2:	6078      	str	r0, [r7, #4]
  GPIO_InitTypeDef GPIO_InitStruct = {0};
 80029e4:	2414      	movs	r4, #20
 80029e6:	193b      	adds	r3, r7, r4
 80029e8:	0018      	movs	r0, r3
 80029ea:	2314      	movs	r3, #20
 80029ec:	001a      	movs	r2, r3
 80029ee:	2100      	movs	r1, #0
 80029f0:	f003 ff03 	bl	80067fa <memset>
  if(huart->Instance==LPUART1)
 80029f4:	687b      	ldr	r3, [r7, #4]
 80029f6:	681b      	ldr	r3, [r3, #0]
 80029f8:	4a28      	ldr	r2, [pc, #160]	; (8002a9c <HAL_UART_MspInit+0xc0>)
 80029fa:	4293      	cmp	r3, r2
 80029fc:	d14a      	bne.n	8002a94 <HAL_UART_MspInit+0xb8>
  {
  /* USER CODE BEGIN LPUART1_MspInit 0 */

  /* USER CODE END LPUART1_MspInit 0 */
    /* Peripheral clock enable */
    __HAL_RCC_LPUART1_CLK_ENABLE();
 80029fe:	4b28      	ldr	r3, [pc, #160]	; (8002aa0 <HAL_UART_MspInit+0xc4>)
 8002a00:	6b9a      	ldr	r2, [r3, #56]	; 0x38
 8002a02:	4b27      	ldr	r3, [pc, #156]	; (8002aa0 <HAL_UART_MspInit+0xc4>)
 8002a04:	2180      	movs	r1, #128	; 0x80
 8002a06:	02c9      	lsls	r1, r1, #11
 8002a08:	430a      	orrs	r2, r1
 8002a0a:	639a      	str	r2, [r3, #56]	; 0x38

    __HAL_RCC_GPIOC_CLK_ENABLE();
 8002a0c:	4b24      	ldr	r3, [pc, #144]	; (8002aa0 <HAL_UART_MspInit+0xc4>)
 8002a0e:	6ada      	ldr	r2, [r3, #44]	; 0x2c
 8002a10:	4b23      	ldr	r3, [pc, #140]	; (8002aa0 <HAL_UART_MspInit+0xc4>)
 8002a12:	2104      	movs	r1, #4
 8002a14:	430a      	orrs	r2, r1
 8002a16:	62da      	str	r2, [r3, #44]	; 0x2c
 8002a18:	4b21      	ldr	r3, [pc, #132]	; (8002aa0 <HAL_UART_MspInit+0xc4>)
 8002a1a:	6adb      	ldr	r3, [r3, #44]	; 0x2c
 8002a1c:	2204      	movs	r2, #4
 8002a1e:	4013      	ands	r3, r2
 8002a20:	613b      	str	r3, [r7, #16]
 8002a22:	693b      	ldr	r3, [r7, #16]
    __HAL_RCC_GPIOB_CLK_ENABLE();
 8002a24:	4b1e      	ldr	r3, [pc, #120]	; (8002aa0 <HAL_UART_MspInit+0xc4>)
 8002a26:	6ada      	ldr	r2, [r3, #44]	; 0x2c
 8002a28:	4b1d      	ldr	r3, [pc, #116]	; (8002aa0 <HAL_UART_MspInit+0xc4>)
 8002a2a:	2102      	movs	r1, #2
 8002a2c:	430a      	orrs	r2, r1
 8002a2e:	62da      	str	r2, [r3, #44]	; 0x2c
 8002a30:	4b1b      	ldr	r3, [pc, #108]	; (8002aa0 <HAL_UART_MspInit+0xc4>)
 8002a32:	6adb      	ldr	r3, [r3, #44]	; 0x2c
 8002a34:	2202      	movs	r2, #2
 8002a36:	4013      	ands	r3, r2
 8002a38:	60fb      	str	r3, [r7, #12]
 8002a3a:	68fb      	ldr	r3, [r7, #12]
    /**LPUART1 GPIO Configuration
    PC0     ------> LPUART1_RX
    PB10     ------> LPUART1_TX
    */
    GPIO_InitStruct.Pin = GPIO_PIN_0;
 8002a3c:	193b      	adds	r3, r7, r4
 8002a3e:	2201      	movs	r2, #1
 8002a40:	601a      	str	r2, [r3, #0]
    GPIO_InitStruct.Mode = GPIO_MODE_AF_PP;
 8002a42:	193b      	adds	r3, r7, r4
 8002a44:	2202      	movs	r2, #2
 8002a46:	605a      	str	r2, [r3, #4]
    GPIO_InitStruct.Pull = GPIO_NOPULL;
 8002a48:	193b      	adds	r3, r7, r4
 8002a4a:	2200      	movs	r2, #0
 8002a4c:	609a      	str	r2, [r3, #8]
    GPIO_InitStruct.Speed = GPIO_SPEED_FREQ_VERY_HIGH;
 8002a4e:	193b      	adds	r3, r7, r4
 8002a50:	2203      	movs	r2, #3
 8002a52:	60da      	str	r2, [r3, #12]
    GPIO_InitStruct.Alternate = GPIO_AF6_LPUART1;
 8002a54:	193b      	adds	r3, r7, r4
 8002a56:	2206      	movs	r2, #6
 8002a58:	611a      	str	r2, [r3, #16]
    HAL_GPIO_Init(GPIOC, &GPIO_InitStruct);
 8002a5a:	193b      	adds	r3, r7, r4
 8002a5c:	4a11      	ldr	r2, [pc, #68]	; (8002aa4 <HAL_UART_MspInit+0xc8>)
 8002a5e:	0019      	movs	r1, r3
 8002a60:	0010      	movs	r0, r2
 8002a62:	f001 f817 	bl	8003a94 <HAL_GPIO_Init>

    GPIO_InitStruct.Pin = GPIO_PIN_10;
 8002a66:	0021      	movs	r1, r4
 8002a68:	187b      	adds	r3, r7, r1
 8002a6a:	2280      	movs	r2, #128	; 0x80
 8002a6c:	00d2      	lsls	r2, r2, #3
 8002a6e:	601a      	str	r2, [r3, #0]
    GPIO_InitStruct.Mode = GPIO_MODE_AF_PP;
 8002a70:	187b      	adds	r3, r7, r1
 8002a72:	2202      	movs	r2, #2
 8002a74:	605a      	str	r2, [r3, #4]
    GPIO_InitStruct.Pull = GPIO_NOPULL;
 8002a76:	187b      	adds	r3, r7, r1
 8002a78:	2200      	movs	r2, #0
 8002a7a:	609a      	str	r2, [r3, #8]
    GPIO_InitStruct.Speed = GPIO_SPEED_FREQ_VERY_HIGH;
 8002a7c:	187b      	adds	r3, r7, r1
 8002a7e:	2203      	movs	r2, #3
 8002a80:	60da      	str	r2, [r3, #12]
    GPIO_InitStruct.Alternate = GPIO_AF6_LPUART1;
 8002a82:	187b      	adds	r3, r7, r1
 8002a84:	2206      	movs	r2, #6
 8002a86:	611a      	str	r2, [r3, #16]
    HAL_GPIO_Init(GPIOB, &GPIO_InitStruct);
 8002a88:	187b      	adds	r3, r7, r1
 8002a8a:	4a07      	ldr	r2, [pc, #28]	; (8002aa8 <HAL_UART_MspInit+0xcc>)
 8002a8c:	0019      	movs	r1, r3
 8002a8e:	0010      	movs	r0, r2
 8002a90:	f001 f800 	bl	8003a94 <HAL_GPIO_Init>
  /* USER CODE BEGIN LPUART1_MspInit 1 */

  /* USER CODE END LPUART1_MspInit 1 */
  }

}
 8002a94:	46c0      	nop			; (mov r8, r8)
 8002a96:	46bd      	mov	sp, r7
 8002a98:	b00b      	add	sp, #44	; 0x2c
 8002a9a:	bd90      	pop	{r4, r7, pc}
 8002a9c:	40004800 	.word	0x40004800
 8002aa0:	40021000 	.word	0x40021000
 8002aa4:	50000800 	.word	0x50000800
 8002aa8:	50000400 	.word	0x50000400

08002aac <HAL_UART_MspDeInit>:
* This function freeze the hardware resources used in this example
* @param huart: UART handle pointer
* @retval None
*/
void HAL_UART_MspDeInit(UART_HandleTypeDef* huart)
{
 8002aac:	b580      	push	{r7, lr}
 8002aae:	b082      	sub	sp, #8
 8002ab0:	af00      	add	r7, sp, #0
 8002ab2:	6078      	str	r0, [r7, #4]
  if(huart->Instance==LPUART1)
 8002ab4:	687b      	ldr	r3, [r7, #4]
 8002ab6:	681b      	ldr	r3, [r3, #0]
 8002ab8:	4a0c      	ldr	r2, [pc, #48]	; (8002aec <HAL_UART_MspDeInit+0x40>)
 8002aba:	4293      	cmp	r3, r2
 8002abc:	d111      	bne.n	8002ae2 <HAL_UART_MspDeInit+0x36>
  {
  /* USER CODE BEGIN LPUART1_MspDeInit 0 */

  /* USER CODE END LPUART1_MspDeInit 0 */
    /* Peripheral clock disable */
    __HAL_RCC_LPUART1_CLK_DISABLE();
 8002abe:	4b0c      	ldr	r3, [pc, #48]	; (8002af0 <HAL_UART_MspDeInit+0x44>)
 8002ac0:	6b9a      	ldr	r2, [r3, #56]	; 0x38
 8002ac2:	4b0b      	ldr	r3, [pc, #44]	; (8002af0 <HAL_UART_MspDeInit+0x44>)
 8002ac4:	490b      	ldr	r1, [pc, #44]	; (8002af4 <HAL_UART_MspDeInit+0x48>)
 8002ac6:	400a      	ands	r2, r1
 8002ac8:	639a      	str	r2, [r3, #56]	; 0x38

    /**LPUART1 GPIO Configuration
    PC0     ------> LPUART1_RX
    PB10     ------> LPUART1_TX
    */
    HAL_GPIO_DeInit(GPIOC, GPIO_PIN_0);
 8002aca:	4b0b      	ldr	r3, [pc, #44]	; (8002af8 <HAL_UART_MspDeInit+0x4c>)
 8002acc:	2101      	movs	r1, #1
 8002ace:	0018      	movs	r0, r3
 8002ad0:	f001 f94e 	bl	8003d70 <HAL_GPIO_DeInit>

    HAL_GPIO_DeInit(GPIOB, GPIO_PIN_10);
 8002ad4:	2380      	movs	r3, #128	; 0x80
 8002ad6:	00db      	lsls	r3, r3, #3
 8002ad8:	4a08      	ldr	r2, [pc, #32]	; (8002afc <HAL_UART_MspDeInit+0x50>)
 8002ada:	0019      	movs	r1, r3
 8002adc:	0010      	movs	r0, r2
 8002ade:	f001 f947 	bl	8003d70 <HAL_GPIO_DeInit>
  /* USER CODE BEGIN LPUART1_MspDeInit 1 */

  /* USER CODE END LPUART1_MspDeInit 1 */
  }

}
 8002ae2:	46c0      	nop			; (mov r8, r8)
 8002ae4:	46bd      	mov	sp, r7
 8002ae6:	b002      	add	sp, #8
 8002ae8:	bd80      	pop	{r7, pc}
 8002aea:	46c0      	nop			; (mov r8, r8)
 8002aec:	40004800 	.word	0x40004800
 8002af0:	40021000 	.word	0x40021000
 8002af4:	fffbffff 	.word	0xfffbffff
 8002af8:	50000800 	.word	0x50000800
 8002afc:	50000400 	.word	0x50000400

08002b00 <HAL_RTC_MspInit>:
* This function configures the hardware resources used in this example
* @param hrtc: RTC handle pointer
* @retval None
*/
void HAL_RTC_MspInit(RTC_HandleTypeDef* hrtc)
{
 8002b00:	b580      	push	{r7, lr}
 8002b02:	b082      	sub	sp, #8
 8002b04:	af00      	add	r7, sp, #0
 8002b06:	6078      	str	r0, [r7, #4]
  if(hrtc->Instance==RTC)
 8002b08:	687b      	ldr	r3, [r7, #4]
 8002b0a:	681b      	ldr	r3, [r3, #0]
 8002b0c:	4a0a      	ldr	r2, [pc, #40]	; (8002b38 <HAL_RTC_MspInit+0x38>)
 8002b0e:	4293      	cmp	r3, r2
 8002b10:	d10e      	bne.n	8002b30 <HAL_RTC_MspInit+0x30>
  {
  /* USER CODE BEGIN RTC_MspInit 0 */

  /* USER CODE END RTC_MspInit 0 */
    /* Peripheral clock enable */
    __HAL_RCC_RTC_ENABLE();
 8002b12:	4b0a      	ldr	r3, [pc, #40]	; (8002b3c <HAL_RTC_MspInit+0x3c>)
 8002b14:	6d1a      	ldr	r2, [r3, #80]	; 0x50
 8002b16:	4b09      	ldr	r3, [pc, #36]	; (8002b3c <HAL_RTC_MspInit+0x3c>)
 8002b18:	2180      	movs	r1, #128	; 0x80
 8002b1a:	02c9      	lsls	r1, r1, #11
 8002b1c:	430a      	orrs	r2, r1
 8002b1e:	651a      	str	r2, [r3, #80]	; 0x50
    /* RTC interrupt Init */
    HAL_NVIC_SetPriority(RTC_IRQn, 0, 0);
 8002b20:	2200      	movs	r2, #0
 8002b22:	2100      	movs	r1, #0
 8002b24:	2002      	movs	r0, #2
 8002b26:	f000 ff83 	bl	8003a30 <HAL_NVIC_SetPriority>
    HAL_NVIC_EnableIRQ(RTC_IRQn);
 8002b2a:	2002      	movs	r0, #2
 8002b2c:	f000 ff95 	bl	8003a5a <HAL_NVIC_EnableIRQ>
  /* USER CODE BEGIN RTC_MspInit 1 */

  /* USER CODE END RTC_MspInit 1 */
  }

}
 8002b30:	46c0      	nop			; (mov r8, r8)
 8002b32:	46bd      	mov	sp, r7
 8002b34:	b002      	add	sp, #8
 8002b36:	bd80      	pop	{r7, pc}
 8002b38:	40002800 	.word	0x40002800
 8002b3c:	40021000 	.word	0x40021000

08002b40 <NMI_Handler>:
/******************************************************************************/
/**
  * @brief This function handles Non maskable Interrupt.
  */
void NMI_Handler(void)
{
 8002b40:	b580      	push	{r7, lr}
 8002b42:	af00      	add	r7, sp, #0
  /* USER CODE BEGIN NonMaskableInt_IRQn 0 */

  /* USER CODE END NonMaskableInt_IRQn 0 */
  /* USER CODE BEGIN NonMaskableInt_IRQn 1 */
  while (1)
 8002b44:	e7fe      	b.n	8002b44 <NMI_Handler+0x4>

08002b46 <HardFault_Handler>:

/**
  * @brief This function handles Hard fault interrupt.
  */
void HardFault_Handler(void)
{
 8002b46:	b580      	push	{r7, lr}
 8002b48:	af00      	add	r7, sp, #0
  /* USER CODE BEGIN HardFault_IRQn 0 */

  /* USER CODE END HardFault_IRQn 0 */
  while (1)
 8002b4a:	e7fe      	b.n	8002b4a <HardFault_Handler+0x4>

08002b4c <SVC_Handler>:

/**
  * @brief This function handles System service call via SWI instruction.
  */
void SVC_Handler(void)
{
 8002b4c:	b580      	push	{r7, lr}
 8002b4e:	af00      	add	r7, sp, #0

  /* USER CODE END SVC_IRQn 0 */
  /* USER CODE BEGIN SVC_IRQn 1 */

  /* USER CODE END SVC_IRQn 1 */
}
 8002b50:	46c0      	nop			; (mov r8, r8)
 8002b52:	46bd      	mov	sp, r7
 8002b54:	bd80      	pop	{r7, pc}

08002b56 <PendSV_Handler>:

/**
  * @brief This function handles Pendable request for system service.
  */
void PendSV_Handler(void)
{
 8002b56:	b580      	push	{r7, lr}
 8002b58:	af00      	add	r7, sp, #0

  /* USER CODE END PendSV_IRQn 0 */
  /* USER CODE BEGIN PendSV_IRQn 1 */

  /* USER CODE END PendSV_IRQn 1 */
}
 8002b5a:	46c0      	nop			; (mov r8, r8)
 8002b5c:	46bd      	mov	sp, r7
 8002b5e:	bd80      	pop	{r7, pc}

08002b60 <SysTick_Handler>:

/**
  * @brief This function handles System tick timer.
  */
void SysTick_Handler(void)
{
 8002b60:	b580      	push	{r7, lr}
 8002b62:	af00      	add	r7, sp, #0
  /* USER CODE BEGIN SysTick_IRQn 0 */

  /* USER CODE END SysTick_IRQn 0 */
  HAL_IncTick();
 8002b64:	f000 f8e2 	bl	8002d2c <HAL_IncTick>
  /* USER CODE BEGIN SysTick_IRQn 1 */

  /* USER CODE END SysTick_IRQn 1 */
}
 8002b68:	46c0      	nop			; (mov r8, r8)
 8002b6a:	46bd      	mov	sp, r7
 8002b6c:	bd80      	pop	{r7, pc}
	...

08002b70 <RTC_IRQHandler>:

/**
  * @brief This function handles RTC global interrupt through EXTI lines 17, 19 and 20 and LSE CSS interrupt through EXTI line 19.
  */
void RTC_IRQHandler(void)
{
 8002b70:	b580      	push	{r7, lr}
 8002b72:	af00      	add	r7, sp, #0
  /* USER CODE BEGIN RTC_IRQn 0 */

  /* USER CODE END RTC_IRQn 0 */
  HAL_RTCEx_WakeUpTimerIRQHandler(&hrtc);
 8002b74:	4b03      	ldr	r3, [pc, #12]	; (8002b84 <RTC_IRQHandler+0x14>)
 8002b76:	0018      	movs	r0, r3
 8002b78:	f003 f882 	bl	8005c80 <HAL_RTCEx_WakeUpTimerIRQHandler>
  /* USER CODE BEGIN RTC_IRQn 1 */

  /* USER CODE END RTC_IRQn 1 */
}
 8002b7c:	46c0      	nop			; (mov r8, r8)
 8002b7e:	46bd      	mov	sp, r7
 8002b80:	bd80      	pop	{r7, pc}
 8002b82:	46c0      	nop			; (mov r8, r8)
 8002b84:	20000444 	.word	0x20000444

08002b88 <_sbrk>:
 *
 * @param incr Memory size
 * @return Pointer to allocated memory
 */
void *_sbrk(ptrdiff_t incr)
{
 8002b88:	b580      	push	{r7, lr}
 8002b8a:	b086      	sub	sp, #24
 8002b8c:	af00      	add	r7, sp, #0
 8002b8e:	6078      	str	r0, [r7, #4]
  extern uint8_t _end; /* Symbol defined in the linker script */
  extern uint8_t _estack; /* Symbol defined in the linker script */
  extern uint32_t _Min_Stack_Size; /* Symbol defined in the linker script */
  const uint32_t stack_limit = (uint32_t)&_estack - (uint32_t)&_Min_Stack_Size;
 8002b90:	4a14      	ldr	r2, [pc, #80]	; (8002be4 <_sbrk+0x5c>)
 8002b92:	4b15      	ldr	r3, [pc, #84]	; (8002be8 <_sbrk+0x60>)
 8002b94:	1ad3      	subs	r3, r2, r3
 8002b96:	617b      	str	r3, [r7, #20]
  const uint8_t *max_heap = (uint8_t *)stack_limit;
 8002b98:	697b      	ldr	r3, [r7, #20]
 8002b9a:	613b      	str	r3, [r7, #16]
  uint8_t *prev_heap_end;

  /* Initialize heap end at first call */
  if (NULL == __sbrk_heap_end)
 8002b9c:	4b13      	ldr	r3, [pc, #76]	; (8002bec <_sbrk+0x64>)
 8002b9e:	681b      	ldr	r3, [r3, #0]
 8002ba0:	2b00      	cmp	r3, #0
 8002ba2:	d102      	bne.n	8002baa <_sbrk+0x22>
  {
    __sbrk_heap_end = &_end;
 8002ba4:	4b11      	ldr	r3, [pc, #68]	; (8002bec <_sbrk+0x64>)
 8002ba6:	4a12      	ldr	r2, [pc, #72]	; (8002bf0 <_sbrk+0x68>)
 8002ba8:	601a      	str	r2, [r3, #0]
  }

  /* Protect heap from growing into the reserved MSP stack */
  if (__sbrk_heap_end + incr > max_heap)
 8002baa:	4b10      	ldr	r3, [pc, #64]	; (8002bec <_sbrk+0x64>)
 8002bac:	681a      	ldr	r2, [r3, #0]
 8002bae:	687b      	ldr	r3, [r7, #4]
 8002bb0:	18d3      	adds	r3, r2, r3
 8002bb2:	693a      	ldr	r2, [r7, #16]
 8002bb4:	429a      	cmp	r2, r3
 8002bb6:	d207      	bcs.n	8002bc8 <_sbrk+0x40>
  {
    errno = ENOMEM;
 8002bb8:	f003 fdec 	bl	8006794 <__errno>
 8002bbc:	0003      	movs	r3, r0
 8002bbe:	220c      	movs	r2, #12
 8002bc0:	601a      	str	r2, [r3, #0]
    return (void *)-1;
 8002bc2:	2301      	movs	r3, #1
 8002bc4:	425b      	negs	r3, r3
 8002bc6:	e009      	b.n	8002bdc <_sbrk+0x54>
  }

  prev_heap_end = __sbrk_heap_end;
 8002bc8:	4b08      	ldr	r3, [pc, #32]	; (8002bec <_sbrk+0x64>)
 8002bca:	681b      	ldr	r3, [r3, #0]
 8002bcc:	60fb      	str	r3, [r7, #12]
  __sbrk_heap_end += incr;
 8002bce:	4b07      	ldr	r3, [pc, #28]	; (8002bec <_sbrk+0x64>)
 8002bd0:	681a      	ldr	r2, [r3, #0]
 8002bd2:	687b      	ldr	r3, [r7, #4]
 8002bd4:	18d2      	adds	r2, r2, r3
 8002bd6:	4b05      	ldr	r3, [pc, #20]	; (8002bec <_sbrk+0x64>)
 8002bd8:	601a      	str	r2, [r3, #0]

  return (void *)prev_heap_end;
 8002bda:	68fb      	ldr	r3, [r7, #12]
}
 8002bdc:	0018      	movs	r0, r3
 8002bde:	46bd      	mov	sp, r7
 8002be0:	b006      	add	sp, #24
 8002be2:	bd80      	pop	{r7, pc}
 8002be4:	20002000 	.word	0x20002000
 8002be8:	00000400 	.word	0x00000400
 8002bec:	2000025c 	.word	0x2000025c
 8002bf0:	200004d8 	.word	0x200004d8

08002bf4 <SystemInit>:
  * @brief  Setup the microcontroller system.
  * @param  None
  * @retval None
  */
void SystemInit (void)
{
 8002bf4:	b580      	push	{r7, lr}
 8002bf6:	af00      	add	r7, sp, #0
  /* Configure the Vector Table location add offset address ------------------*/
#if defined (USER_VECT_TAB_ADDRESS)
  SCB->VTOR = VECT_TAB_BASE_ADDRESS | VECT_TAB_OFFSET; /* Vector Table Relocation in Internal SRAM */
#endif /* USER_VECT_TAB_ADDRESS */
}
 8002bf8:	46c0      	nop			; (mov r8, r8)
 8002bfa:	46bd      	mov	sp, r7
 8002bfc:	bd80      	pop	{r7, pc}
	...

08002c00 <Reset_Handler>:

    .section  .text.Reset_Handler
  .weak  Reset_Handler
  .type  Reset_Handler, %function
Reset_Handler:  
   ldr   r0, =_estack
 8002c00:	4813      	ldr	r0, [pc, #76]	; (8002c50 <LoopForever+0x2>)
   mov   sp, r0          /* set stack pointer */
 8002c02:	4685      	mov	sp, r0

/*Check if boot space corresponds to system memory*/

    LDR R0,=0x00000004
 8002c04:	4813      	ldr	r0, [pc, #76]	; (8002c54 <LoopForever+0x6>)
    LDR R1, [R0]
 8002c06:	6801      	ldr	r1, [r0, #0]
    LSRS R1, R1, #24
 8002c08:	0e09      	lsrs	r1, r1, #24
    LDR R2,=0x1F
 8002c0a:	4a13      	ldr	r2, [pc, #76]	; (8002c58 <LoopForever+0xa>)
    CMP R1, R2
 8002c0c:	4291      	cmp	r1, r2
    BNE ApplicationStart
 8002c0e:	d105      	bne.n	8002c1c <ApplicationStart>

 /*SYSCFG clock enable*/
    LDR R0,=0x40021034
 8002c10:	4812      	ldr	r0, [pc, #72]	; (8002c5c <LoopForever+0xe>)
    LDR R1,=0x00000001
 8002c12:	4913      	ldr	r1, [pc, #76]	; (8002c60 <LoopForever+0x12>)
    STR R1, [R0]
 8002c14:	6001      	str	r1, [r0, #0]

/*Set CFGR1 register with flash memory remap at address 0*/
    LDR R0,=0x40010000
 8002c16:	4813      	ldr	r0, [pc, #76]	; (8002c64 <LoopForever+0x16>)
    LDR R1,=0x00000000
 8002c18:	4913      	ldr	r1, [pc, #76]	; (8002c68 <LoopForever+0x1a>)
    STR R1, [R0]
 8002c1a:	6001      	str	r1, [r0, #0]

08002c1c <ApplicationStart>:

ApplicationStart:
/* Copy the data segment initializers from flash to SRAM */
  ldr r0, =_sdata
 8002c1c:	4813      	ldr	r0, [pc, #76]	; (8002c6c <LoopForever+0x1e>)
  ldr r1, =_edata
 8002c1e:	4914      	ldr	r1, [pc, #80]	; (8002c70 <LoopForever+0x22>)
  ldr r2, =_sidata
 8002c20:	4a14      	ldr	r2, [pc, #80]	; (8002c74 <LoopForever+0x26>)
  movs r3, #0
 8002c22:	2300      	movs	r3, #0
  b LoopCopyDataInit
 8002c24:	e002      	b.n	8002c2c <LoopCopyDataInit>

08002c26 <CopyDataInit>:

CopyDataInit:
  ldr r4, [r2, r3]
 8002c26:	58d4      	ldr	r4, [r2, r3]
  str r4, [r0, r3]
 8002c28:	50c4      	str	r4, [r0, r3]
  adds r3, r3, #4
 8002c2a:	3304      	adds	r3, #4

08002c2c <LoopCopyDataInit>:

LoopCopyDataInit:
  adds r4, r0, r3
 8002c2c:	18c4      	adds	r4, r0, r3
  cmp r4, r1
 8002c2e:	428c      	cmp	r4, r1
  bcc CopyDataInit
 8002c30:	d3f9      	bcc.n	8002c26 <CopyDataInit>
  
/* Zero fill the bss segment. */
  ldr r2, =_sbss
 8002c32:	4a11      	ldr	r2, [pc, #68]	; (8002c78 <LoopForever+0x2a>)
  ldr r4, =_ebss
 8002c34:	4c11      	ldr	r4, [pc, #68]	; (8002c7c <LoopForever+0x2e>)
  movs r3, #0
 8002c36:	2300      	movs	r3, #0
  b LoopFillZerobss
 8002c38:	e001      	b.n	8002c3e <LoopFillZerobss>

08002c3a <FillZerobss>:

FillZerobss:
  str  r3, [r2]
 8002c3a:	6013      	str	r3, [r2, #0]
  adds r2, r2, #4
 8002c3c:	3204      	adds	r2, #4

08002c3e <LoopFillZerobss>:

LoopFillZerobss:
  cmp r2, r4
 8002c3e:	42a2      	cmp	r2, r4
  bcc FillZerobss
 8002c40:	d3fb      	bcc.n	8002c3a <FillZerobss>

/* Call the clock system intitialization function.*/
  bl  SystemInit
 8002c42:	f7ff ffd7 	bl	8002bf4 <SystemInit>
/* Call static constructors */
    bl __libc_init_array
 8002c46:	f003 fdab 	bl	80067a0 <__libc_init_array>
/* Call the application's entry point.*/
  bl  main
 8002c4a:	f7fe fddf 	bl	800180c <main>

08002c4e <LoopForever>:

LoopForever:
    b LoopForever
 8002c4e:	e7fe      	b.n	8002c4e <LoopForever>
   ldr   r0, =_estack
 8002c50:	20002000 	.word	0x20002000
    LDR R0,=0x00000004
 8002c54:	00000004 	.word	0x00000004
    LDR R2,=0x1F
 8002c58:	0000001f 	.word	0x0000001f
    LDR R0,=0x40021034
 8002c5c:	40021034 	.word	0x40021034
    LDR R1,=0x00000001
 8002c60:	00000001 	.word	0x00000001
    LDR R0,=0x40010000
 8002c64:	40010000 	.word	0x40010000
    LDR R1,=0x00000000
 8002c68:	00000000 	.word	0x00000000
  ldr r0, =_sdata
 8002c6c:	20000000 	.word	0x20000000
  ldr r1, =_edata
 8002c70:	200001f4 	.word	0x200001f4
  ldr r2, =_sidata
 8002c74:	080072d4 	.word	0x080072d4
  ldr r2, =_sbss
 8002c78:	200001f4 	.word	0x200001f4
  ldr r4, =_ebss
 8002c7c:	200004d8 	.word	0x200004d8

08002c80 <ADC1_IRQHandler>:
 * @retval : None
*/
    .section  .text.Default_Handler,"ax",%progbits
Default_Handler:
Infinite_Loop:
  b  Infinite_Loop
 8002c80:	e7fe      	b.n	8002c80 <ADC1_IRQHandler>
	...

08002c84 <HAL_Init>:
  *        In the default implementation,Systick is used as source of time base.
  *        the tick variable is incremented each 1ms in its ISR.
  * @retval HAL status
  */
HAL_StatusTypeDef HAL_Init(void)
{
 8002c84:	b580      	push	{r7, lr}
 8002c86:	b082      	sub	sp, #8
 8002c88:	af00      	add	r7, sp, #0
  HAL_StatusTypeDef  status = HAL_OK;
 8002c8a:	1dfb      	adds	r3, r7, #7
 8002c8c:	2200      	movs	r2, #0
 8002c8e:	701a      	strb	r2, [r3, #0]
#if (BUFFER_CACHE_DISABLE != 0)
  __HAL_FLASH_BUFFER_CACHE_DISABLE();
#endif /* BUFFER_CACHE_DISABLE */

#if (PREREAD_ENABLE != 0)
  __HAL_FLASH_PREREAD_BUFFER_ENABLE();
 8002c90:	4b0b      	ldr	r3, [pc, #44]	; (8002cc0 <HAL_Init+0x3c>)
 8002c92:	681a      	ldr	r2, [r3, #0]
 8002c94:	4b0a      	ldr	r3, [pc, #40]	; (8002cc0 <HAL_Init+0x3c>)
 8002c96:	2140      	movs	r1, #64	; 0x40
 8002c98:	430a      	orrs	r2, r1
 8002c9a:	601a      	str	r2, [r3, #0]
#if (PREFETCH_ENABLE != 0)
  __HAL_FLASH_PREFETCH_BUFFER_ENABLE();
#endif /* PREFETCH_ENABLE */

  /* Use SysTick as time base source and configure 1ms tick (default clock after Reset is MSI) */
  if (HAL_InitTick(TICK_INT_PRIORITY) != HAL_OK)
 8002c9c:	2003      	movs	r0, #3
 8002c9e:	f000 f811 	bl	8002cc4 <HAL_InitTick>
 8002ca2:	1e03      	subs	r3, r0, #0
 8002ca4:	d003      	beq.n	8002cae <HAL_Init+0x2a>
  {
    status = HAL_ERROR;
 8002ca6:	1dfb      	adds	r3, r7, #7
 8002ca8:	2201      	movs	r2, #1
 8002caa:	701a      	strb	r2, [r3, #0]
 8002cac:	e001      	b.n	8002cb2 <HAL_Init+0x2e>
  }
  else
  {
    /* Init the low level hardware */
    HAL_MspInit();
 8002cae:	f7ff fde5 	bl	800287c <HAL_MspInit>
  }

  /* Return function status */
  return status;
 8002cb2:	1dfb      	adds	r3, r7, #7
 8002cb4:	781b      	ldrb	r3, [r3, #0]
}
 8002cb6:	0018      	movs	r0, r3
 8002cb8:	46bd      	mov	sp, r7
 8002cba:	b002      	add	sp, #8
 8002cbc:	bd80      	pop	{r7, pc}
 8002cbe:	46c0      	nop			; (mov r8, r8)
 8002cc0:	40022000 	.word	0x40022000

08002cc4 <HAL_InitTick>:
  *       implementation  in user file.
  * @param TickPriority Tick interrupt priority.
  * @retval HAL status
  */
__weak HAL_StatusTypeDef HAL_InitTick(uint32_t TickPriority)
{
 8002cc4:	b590      	push	{r4, r7, lr}
 8002cc6:	b083      	sub	sp, #12
 8002cc8:	af00      	add	r7, sp, #0
 8002cca:	6078      	str	r0, [r7, #4]
  /* Configure the SysTick to have interrupt in 1ms time basis*/
  if (HAL_SYSTICK_Config(SystemCoreClock / (1000U / uwTickFreq)) > 0U)
 8002ccc:	4b14      	ldr	r3, [pc, #80]	; (8002d20 <HAL_InitTick+0x5c>)
 8002cce:	681c      	ldr	r4, [r3, #0]
 8002cd0:	4b14      	ldr	r3, [pc, #80]	; (8002d24 <HAL_InitTick+0x60>)
 8002cd2:	781b      	ldrb	r3, [r3, #0]
 8002cd4:	0019      	movs	r1, r3
 8002cd6:	23fa      	movs	r3, #250	; 0xfa
 8002cd8:	0098      	lsls	r0, r3, #2
 8002cda:	f7fd fa27 	bl	800012c <__udivsi3>
 8002cde:	0003      	movs	r3, r0
 8002ce0:	0019      	movs	r1, r3
 8002ce2:	0020      	movs	r0, r4
 8002ce4:	f7fd fa22 	bl	800012c <__udivsi3>
 8002ce8:	0003      	movs	r3, r0
 8002cea:	0018      	movs	r0, r3
 8002cec:	f000 fec5 	bl	8003a7a <HAL_SYSTICK_Config>
 8002cf0:	1e03      	subs	r3, r0, #0
 8002cf2:	d001      	beq.n	8002cf8 <HAL_InitTick+0x34>
  {
    return HAL_ERROR;
 8002cf4:	2301      	movs	r3, #1
 8002cf6:	e00f      	b.n	8002d18 <HAL_InitTick+0x54>
  }

  /* Configure the SysTick IRQ priority */
  if (TickPriority < (1UL << __NVIC_PRIO_BITS))
 8002cf8:	687b      	ldr	r3, [r7, #4]
 8002cfa:	2b03      	cmp	r3, #3
 8002cfc:	d80b      	bhi.n	8002d16 <HAL_InitTick+0x52>
  {
    HAL_NVIC_SetPriority(SysTick_IRQn, TickPriority, 0U);
 8002cfe:	6879      	ldr	r1, [r7, #4]
 8002d00:	2301      	movs	r3, #1
 8002d02:	425b      	negs	r3, r3
 8002d04:	2200      	movs	r2, #0
 8002d06:	0018      	movs	r0, r3
 8002d08:	f000 fe92 	bl	8003a30 <HAL_NVIC_SetPriority>
    uwTickPrio = TickPriority;
 8002d0c:	4b06      	ldr	r3, [pc, #24]	; (8002d28 <HAL_InitTick+0x64>)
 8002d0e:	687a      	ldr	r2, [r7, #4]
 8002d10:	601a      	str	r2, [r3, #0]
  {
    return HAL_ERROR;
  }

  /* Return function status */
  return HAL_OK;
 8002d12:	2300      	movs	r3, #0
 8002d14:	e000      	b.n	8002d18 <HAL_InitTick+0x54>
    return HAL_ERROR;
 8002d16:	2301      	movs	r3, #1
}
 8002d18:	0018      	movs	r0, r3
 8002d1a:	46bd      	mov	sp, r7
 8002d1c:	b003      	add	sp, #12
 8002d1e:	bd90      	pop	{r4, r7, pc}
 8002d20:	20000184 	.word	0x20000184
 8002d24:	2000018c 	.word	0x2000018c
 8002d28:	20000188 	.word	0x20000188

08002d2c <HAL_IncTick>:
 * @note This function is declared as __weak to be overwritten in case of other
  *      implementations in user file.
  * @retval None
  */
__weak void HAL_IncTick(void)
{
 8002d2c:	b580      	push	{r7, lr}
 8002d2e:	af00      	add	r7, sp, #0
  uwTick += uwTickFreq;
 8002d30:	4b05      	ldr	r3, [pc, #20]	; (8002d48 <HAL_IncTick+0x1c>)
 8002d32:	781b      	ldrb	r3, [r3, #0]
 8002d34:	001a      	movs	r2, r3
 8002d36:	4b05      	ldr	r3, [pc, #20]	; (8002d4c <HAL_IncTick+0x20>)
 8002d38:	681b      	ldr	r3, [r3, #0]
 8002d3a:	18d2      	adds	r2, r2, r3
 8002d3c:	4b03      	ldr	r3, [pc, #12]	; (8002d4c <HAL_IncTick+0x20>)
 8002d3e:	601a      	str	r2, [r3, #0]
}
 8002d40:	46c0      	nop			; (mov r8, r8)
 8002d42:	46bd      	mov	sp, r7
 8002d44:	bd80      	pop	{r7, pc}
 8002d46:	46c0      	nop			; (mov r8, r8)
 8002d48:	2000018c 	.word	0x2000018c
 8002d4c:	200004c4 	.word	0x200004c4

08002d50 <HAL_GetTick>:
  * @note This function is declared as __weak to be overwritten in case of other
  *       implementations in user file.
  * @retval tick value
  */
__weak uint32_t HAL_GetTick(void)
{
 8002d50:	b580      	push	{r7, lr}
 8002d52:	af00      	add	r7, sp, #0
  return uwTick;
 8002d54:	4b02      	ldr	r3, [pc, #8]	; (8002d60 <HAL_GetTick+0x10>)
 8002d56:	681b      	ldr	r3, [r3, #0]
}
 8002d58:	0018      	movs	r0, r3
 8002d5a:	46bd      	mov	sp, r7
 8002d5c:	bd80      	pop	{r7, pc}
 8002d5e:	46c0      	nop			; (mov r8, r8)
 8002d60:	200004c4 	.word	0x200004c4

08002d64 <HAL_Delay>:
  *       implementations in user file.
  * @param Delay specifies the delay time length, in milliseconds.
  * @retval None
  */
__weak void HAL_Delay(uint32_t Delay)
{
 8002d64:	b580      	push	{r7, lr}
 8002d66:	b084      	sub	sp, #16
 8002d68:	af00      	add	r7, sp, #0
 8002d6a:	6078      	str	r0, [r7, #4]
  uint32_t tickstart = HAL_GetTick();
 8002d6c:	f7ff fff0 	bl	8002d50 <HAL_GetTick>
 8002d70:	0003      	movs	r3, r0
 8002d72:	60bb      	str	r3, [r7, #8]
  uint32_t wait = Delay;
 8002d74:	687b      	ldr	r3, [r7, #4]
 8002d76:	60fb      	str	r3, [r7, #12]

  /* Add a freq to guarantee minimum wait */
  if (wait < HAL_MAX_DELAY)
 8002d78:	68fb      	ldr	r3, [r7, #12]
 8002d7a:	3301      	adds	r3, #1
 8002d7c:	d005      	beq.n	8002d8a <HAL_Delay+0x26>
  {
    wait += (uint32_t)(uwTickFreq);
 8002d7e:	4b0a      	ldr	r3, [pc, #40]	; (8002da8 <HAL_Delay+0x44>)
 8002d80:	781b      	ldrb	r3, [r3, #0]
 8002d82:	001a      	movs	r2, r3
 8002d84:	68fb      	ldr	r3, [r7, #12]
 8002d86:	189b      	adds	r3, r3, r2
 8002d88:	60fb      	str	r3, [r7, #12]
  }

  while((HAL_GetTick() - tickstart) < wait)
 8002d8a:	46c0      	nop			; (mov r8, r8)
 8002d8c:	f7ff ffe0 	bl	8002d50 <HAL_GetTick>
 8002d90:	0002      	movs	r2, r0
 8002d92:	68bb      	ldr	r3, [r7, #8]
 8002d94:	1ad3      	subs	r3, r2, r3
 8002d96:	68fa      	ldr	r2, [r7, #12]
 8002d98:	429a      	cmp	r2, r3
 8002d9a:	d8f7      	bhi.n	8002d8c <HAL_Delay+0x28>
  {
  }
}
 8002d9c:	46c0      	nop			; (mov r8, r8)
 8002d9e:	46c0      	nop			; (mov r8, r8)
 8002da0:	46bd      	mov	sp, r7
 8002da2:	b004      	add	sp, #16
 8002da4:	bd80      	pop	{r7, pc}
 8002da6:	46c0      	nop			; (mov r8, r8)
 8002da8:	2000018c 	.word	0x2000018c

08002dac <HAL_GetHalVersion>:
/**
  * @brief Returns the HAL revision
  * @retval version: 0xXYZR (8bits for each decimal, R for RC)
  */
uint32_t HAL_GetHalVersion(void)
{
 8002dac:	b580      	push	{r7, lr}
 8002dae:	af00      	add	r7, sp, #0
  return __STM32L0xx_HAL_VERSION;
 8002db0:	4b01      	ldr	r3, [pc, #4]	; (8002db8 <HAL_GetHalVersion+0xc>)
}
 8002db2:	0018      	movs	r0, r3
 8002db4:	46bd      	mov	sp, r7
 8002db6:	bd80      	pop	{r7, pc}
 8002db8:	010a0500 	.word	0x010a0500

08002dbc <HAL_ADC_Init>:
  *         function "HAL_ADCEx_EnableVREFINTTempSensor()" must be called similarilly.  
  * @param  hadc ADC handle
  * @retval HAL status
  */
HAL_StatusTypeDef HAL_ADC_Init(ADC_HandleTypeDef* hadc)
{
 8002dbc:	b580      	push	{r7, lr}
 8002dbe:	b082      	sub	sp, #8
 8002dc0:	af00      	add	r7, sp, #0
 8002dc2:	6078      	str	r0, [r7, #4]
 
  /* Check ADC handle */
  if(hadc == NULL)
 8002dc4:	687b      	ldr	r3, [r7, #4]
 8002dc6:	2b00      	cmp	r3, #0
 8002dc8:	d101      	bne.n	8002dce <HAL_ADC_Init+0x12>
  {
    return HAL_ERROR;
 8002dca:	2301      	movs	r3, #1
 8002dcc:	e159      	b.n	8003082 <HAL_ADC_Init+0x2c6>
  /* Refer to header of this file for more details on clock enabling procedure*/
  
  /* Actions performed only if ADC is coming from state reset:                */
  /* - Initialization of ADC MSP                                              */
  /* - ADC voltage regulator enable                                           */
  if(hadc->State == HAL_ADC_STATE_RESET)
 8002dce:	687b      	ldr	r3, [r7, #4]
 8002dd0:	6d5b      	ldr	r3, [r3, #84]	; 0x54
 8002dd2:	2b00      	cmp	r3, #0
 8002dd4:	d10a      	bne.n	8002dec <HAL_ADC_Init+0x30>
  {
    /* Initialize ADC error code */
    ADC_CLEAR_ERRORCODE(hadc);
 8002dd6:	687b      	ldr	r3, [r7, #4]
 8002dd8:	2200      	movs	r2, #0
 8002dda:	659a      	str	r2, [r3, #88]	; 0x58
    
    /* Allocate lock resource and initialize it */
    hadc->Lock = HAL_UNLOCKED;
 8002ddc:	687b      	ldr	r3, [r7, #4]
 8002dde:	2250      	movs	r2, #80	; 0x50
 8002de0:	2100      	movs	r1, #0
 8002de2:	5499      	strb	r1, [r3, r2]
    
    /* Init the low level hardware */
    hadc->MspInitCallback(hadc);
#else
    /* Init the low level hardware */
    HAL_ADC_MspInit(hadc);
 8002de4:	687b      	ldr	r3, [r7, #4]
 8002de6:	0018      	movs	r0, r3
 8002de8:	f7ff fd5c 	bl	80028a4 <HAL_ADC_MspInit>
  /* Configuration of ADC parameters if previous preliminary actions are      */ 
  /* correctly completed.                                                     */
  /* and if there is no conversion on going on regular group (ADC can be      */
  /* enabled anyway, in case of call of this function to update a parameter   */
  /* on the fly).                                                             */
  if (HAL_IS_BIT_SET(hadc->State, HAL_ADC_STATE_ERROR_INTERNAL) ||
 8002dec:	687b      	ldr	r3, [r7, #4]
 8002dee:	6d5b      	ldr	r3, [r3, #84]	; 0x54
 8002df0:	2210      	movs	r2, #16
 8002df2:	4013      	ands	r3, r2
 8002df4:	2b10      	cmp	r3, #16
 8002df6:	d005      	beq.n	8002e04 <HAL_ADC_Init+0x48>
     (ADC_IS_CONVERSION_ONGOING_REGULAR(hadc) != RESET)  )
 8002df8:	687b      	ldr	r3, [r7, #4]
 8002dfa:	681b      	ldr	r3, [r3, #0]
 8002dfc:	689b      	ldr	r3, [r3, #8]
 8002dfe:	2204      	movs	r2, #4
 8002e00:	4013      	ands	r3, r2
  if (HAL_IS_BIT_SET(hadc->State, HAL_ADC_STATE_ERROR_INTERNAL) ||
 8002e02:	d00b      	beq.n	8002e1c <HAL_ADC_Init+0x60>
  {
    /* Update ADC state machine to error */
    SET_BIT(hadc->State, HAL_ADC_STATE_ERROR_INTERNAL);
 8002e04:	687b      	ldr	r3, [r7, #4]
 8002e06:	6d5b      	ldr	r3, [r3, #84]	; 0x54
 8002e08:	2210      	movs	r2, #16
 8002e0a:	431a      	orrs	r2, r3
 8002e0c:	687b      	ldr	r3, [r7, #4]
 8002e0e:	655a      	str	r2, [r3, #84]	; 0x54
        
    /* Process unlocked */
    __HAL_UNLOCK(hadc);
 8002e10:	687b      	ldr	r3, [r7, #4]
 8002e12:	2250      	movs	r2, #80	; 0x50
 8002e14:	2100      	movs	r1, #0
 8002e16:	5499      	strb	r1, [r3, r2]
    return HAL_ERROR;
 8002e18:	2301      	movs	r3, #1
 8002e1a:	e132      	b.n	8003082 <HAL_ADC_Init+0x2c6>
  }

  /* Set ADC state */
  ADC_STATE_CLR_SET(hadc->State,
 8002e1c:	687b      	ldr	r3, [r7, #4]
 8002e1e:	6d5b      	ldr	r3, [r3, #84]	; 0x54
 8002e20:	4a9a      	ldr	r2, [pc, #616]	; (800308c <HAL_ADC_Init+0x2d0>)
 8002e22:	4013      	ands	r3, r2
 8002e24:	2202      	movs	r2, #2
 8002e26:	431a      	orrs	r2, r3
 8002e28:	687b      	ldr	r3, [r7, #4]
 8002e2a:	655a      	str	r2, [r3, #84]	; 0x54
  /* Parameters update conditioned to ADC state:                            */
  /* Parameters that can be updated only when ADC is disabled:              */
  /*  - ADC clock mode                                                      */
  /*  - ADC clock prescaler                                                 */
  /*  - ADC Resolution                                                      */
  if (ADC_IS_ENABLE(hadc) == RESET)
 8002e2c:	687b      	ldr	r3, [r7, #4]
 8002e2e:	681b      	ldr	r3, [r3, #0]
 8002e30:	689b      	ldr	r3, [r3, #8]
 8002e32:	2203      	movs	r2, #3
 8002e34:	4013      	ands	r3, r2
 8002e36:	2b01      	cmp	r3, #1
 8002e38:	d108      	bne.n	8002e4c <HAL_ADC_Init+0x90>
 8002e3a:	687b      	ldr	r3, [r7, #4]
 8002e3c:	681b      	ldr	r3, [r3, #0]
 8002e3e:	681b      	ldr	r3, [r3, #0]
 8002e40:	2201      	movs	r2, #1
 8002e42:	4013      	ands	r3, r2
 8002e44:	2b01      	cmp	r3, #1
 8002e46:	d101      	bne.n	8002e4c <HAL_ADC_Init+0x90>
 8002e48:	2301      	movs	r3, #1
 8002e4a:	e000      	b.n	8002e4e <HAL_ADC_Init+0x92>
 8002e4c:	2300      	movs	r3, #0
 8002e4e:	2b00      	cmp	r3, #0
 8002e50:	d149      	bne.n	8002ee6 <HAL_ADC_Init+0x12a>
    /*   - internal measurement paths: Vbat, temperature sensor, Vref       */
    /*     (set into HAL_ADC_ConfigChannel() )                              */
   
    /* Configuration of ADC clock: clock source PCLK or asynchronous with 
    selectable prescaler */
    __HAL_ADC_CLOCK_PRESCALER(hadc);
 8002e52:	687b      	ldr	r3, [r7, #4]
 8002e54:	685a      	ldr	r2, [r3, #4]
 8002e56:	23c0      	movs	r3, #192	; 0xc0
 8002e58:	061b      	lsls	r3, r3, #24
 8002e5a:	429a      	cmp	r2, r3
 8002e5c:	d00b      	beq.n	8002e76 <HAL_ADC_Init+0xba>
 8002e5e:	687b      	ldr	r3, [r7, #4]
 8002e60:	685a      	ldr	r2, [r3, #4]
 8002e62:	2380      	movs	r3, #128	; 0x80
 8002e64:	05db      	lsls	r3, r3, #23
 8002e66:	429a      	cmp	r2, r3
 8002e68:	d005      	beq.n	8002e76 <HAL_ADC_Init+0xba>
 8002e6a:	687b      	ldr	r3, [r7, #4]
 8002e6c:	685a      	ldr	r2, [r3, #4]
 8002e6e:	2380      	movs	r3, #128	; 0x80
 8002e70:	061b      	lsls	r3, r3, #24
 8002e72:	429a      	cmp	r2, r3
 8002e74:	d111      	bne.n	8002e9a <HAL_ADC_Init+0xde>
 8002e76:	687b      	ldr	r3, [r7, #4]
 8002e78:	681b      	ldr	r3, [r3, #0]
 8002e7a:	691a      	ldr	r2, [r3, #16]
 8002e7c:	687b      	ldr	r3, [r7, #4]
 8002e7e:	681b      	ldr	r3, [r3, #0]
 8002e80:	0092      	lsls	r2, r2, #2
 8002e82:	0892      	lsrs	r2, r2, #2
 8002e84:	611a      	str	r2, [r3, #16]
 8002e86:	687b      	ldr	r3, [r7, #4]
 8002e88:	681b      	ldr	r3, [r3, #0]
 8002e8a:	6919      	ldr	r1, [r3, #16]
 8002e8c:	687b      	ldr	r3, [r7, #4]
 8002e8e:	685a      	ldr	r2, [r3, #4]
 8002e90:	687b      	ldr	r3, [r7, #4]
 8002e92:	681b      	ldr	r3, [r3, #0]
 8002e94:	430a      	orrs	r2, r1
 8002e96:	611a      	str	r2, [r3, #16]
 8002e98:	e014      	b.n	8002ec4 <HAL_ADC_Init+0x108>
 8002e9a:	687b      	ldr	r3, [r7, #4]
 8002e9c:	681b      	ldr	r3, [r3, #0]
 8002e9e:	691a      	ldr	r2, [r3, #16]
 8002ea0:	687b      	ldr	r3, [r7, #4]
 8002ea2:	681b      	ldr	r3, [r3, #0]
 8002ea4:	0092      	lsls	r2, r2, #2
 8002ea6:	0892      	lsrs	r2, r2, #2
 8002ea8:	611a      	str	r2, [r3, #16]
 8002eaa:	4b79      	ldr	r3, [pc, #484]	; (8003090 <HAL_ADC_Init+0x2d4>)
 8002eac:	681a      	ldr	r2, [r3, #0]
 8002eae:	4b78      	ldr	r3, [pc, #480]	; (8003090 <HAL_ADC_Init+0x2d4>)
 8002eb0:	4978      	ldr	r1, [pc, #480]	; (8003094 <HAL_ADC_Init+0x2d8>)
 8002eb2:	400a      	ands	r2, r1
 8002eb4:	601a      	str	r2, [r3, #0]
 8002eb6:	4b76      	ldr	r3, [pc, #472]	; (8003090 <HAL_ADC_Init+0x2d4>)
 8002eb8:	6819      	ldr	r1, [r3, #0]
 8002eba:	687b      	ldr	r3, [r7, #4]
 8002ebc:	685a      	ldr	r2, [r3, #4]
 8002ebe:	4b74      	ldr	r3, [pc, #464]	; (8003090 <HAL_ADC_Init+0x2d4>)
 8002ec0:	430a      	orrs	r2, r1
 8002ec2:	601a      	str	r2, [r3, #0]
    
    /* Configuration of ADC:                                                */
    /*  - Resolution                                                        */
    hadc->Instance->CFGR1 &= ~( ADC_CFGR1_RES);
 8002ec4:	687b      	ldr	r3, [r7, #4]
 8002ec6:	681b      	ldr	r3, [r3, #0]
 8002ec8:	68da      	ldr	r2, [r3, #12]
 8002eca:	687b      	ldr	r3, [r7, #4]
 8002ecc:	681b      	ldr	r3, [r3, #0]
 8002ece:	2118      	movs	r1, #24
 8002ed0:	438a      	bics	r2, r1
 8002ed2:	60da      	str	r2, [r3, #12]
    hadc->Instance->CFGR1 |= hadc->Init.Resolution;    
 8002ed4:	687b      	ldr	r3, [r7, #4]
 8002ed6:	681b      	ldr	r3, [r3, #0]
 8002ed8:	68d9      	ldr	r1, [r3, #12]
 8002eda:	687b      	ldr	r3, [r7, #4]
 8002edc:	689a      	ldr	r2, [r3, #8]
 8002ede:	687b      	ldr	r3, [r7, #4]
 8002ee0:	681b      	ldr	r3, [r3, #0]
 8002ee2:	430a      	orrs	r2, r1
 8002ee4:	60da      	str	r2, [r3, #12]
  }
  
  /* Set the Low Frequency mode */
  ADC->CCR &= (uint32_t)~ADC_CCR_LFMEN;
 8002ee6:	4b6a      	ldr	r3, [pc, #424]	; (8003090 <HAL_ADC_Init+0x2d4>)
 8002ee8:	681a      	ldr	r2, [r3, #0]
 8002eea:	4b69      	ldr	r3, [pc, #420]	; (8003090 <HAL_ADC_Init+0x2d4>)
 8002eec:	496a      	ldr	r1, [pc, #424]	; (8003098 <HAL_ADC_Init+0x2dc>)
 8002eee:	400a      	ands	r2, r1
 8002ef0:	601a      	str	r2, [r3, #0]
  ADC->CCR |=__HAL_ADC_CCR_LOWFREQUENCY(hadc->Init.LowPowerFrequencyMode);  
 8002ef2:	4b67      	ldr	r3, [pc, #412]	; (8003090 <HAL_ADC_Init+0x2d4>)
 8002ef4:	6819      	ldr	r1, [r3, #0]
 8002ef6:	687b      	ldr	r3, [r7, #4]
 8002ef8:	6b5b      	ldr	r3, [r3, #52]	; 0x34
 8002efa:	065a      	lsls	r2, r3, #25
 8002efc:	4b64      	ldr	r3, [pc, #400]	; (8003090 <HAL_ADC_Init+0x2d4>)
 8002efe:	430a      	orrs	r2, r1
 8002f00:	601a      	str	r2, [r3, #0]
   
  /* Enable voltage regulator (if disabled at this step) */
  if (HAL_IS_BIT_CLR(hadc->Instance->CR, ADC_CR_ADVREGEN))
 8002f02:	687b      	ldr	r3, [r7, #4]
 8002f04:	681b      	ldr	r3, [r3, #0]
 8002f06:	689a      	ldr	r2, [r3, #8]
 8002f08:	2380      	movs	r3, #128	; 0x80
 8002f0a:	055b      	lsls	r3, r3, #21
 8002f0c:	4013      	ands	r3, r2
 8002f0e:	d108      	bne.n	8002f22 <HAL_ADC_Init+0x166>
  {
    /* Set ADVREGEN bit */
    hadc->Instance->CR |= ADC_CR_ADVREGEN;
 8002f10:	687b      	ldr	r3, [r7, #4]
 8002f12:	681b      	ldr	r3, [r3, #0]
 8002f14:	689a      	ldr	r2, [r3, #8]
 8002f16:	687b      	ldr	r3, [r7, #4]
 8002f18:	681b      	ldr	r3, [r3, #0]
 8002f1a:	2180      	movs	r1, #128	; 0x80
 8002f1c:	0549      	lsls	r1, r1, #21
 8002f1e:	430a      	orrs	r2, r1
 8002f20:	609a      	str	r2, [r3, #8]
  /*  - Continuous conversion mode                                            */
  /*  - DMA continuous request                                                */
  /*  - Overrun                                                               */
  /*  - AutoDelay feature                                                     */
  /*  - Discontinuous mode                                                    */
  hadc->Instance->CFGR1 &= ~(ADC_CFGR1_ALIGN   |
 8002f22:	687b      	ldr	r3, [r7, #4]
 8002f24:	681b      	ldr	r3, [r3, #0]
 8002f26:	68da      	ldr	r2, [r3, #12]
 8002f28:	687b      	ldr	r3, [r7, #4]
 8002f2a:	681b      	ldr	r3, [r3, #0]
 8002f2c:	495b      	ldr	r1, [pc, #364]	; (800309c <HAL_ADC_Init+0x2e0>)
 8002f2e:	400a      	ands	r2, r1
 8002f30:	60da      	str	r2, [r3, #12]
                             ADC_CFGR1_OVRMOD  |
                             ADC_CFGR1_AUTDLY  |
                             ADC_CFGR1_AUTOFF  |
                             ADC_CFGR1_DISCEN   );
  
  hadc->Instance->CFGR1 |= (hadc->Init.DataAlign                             |
 8002f32:	687b      	ldr	r3, [r7, #4]
 8002f34:	681b      	ldr	r3, [r3, #0]
 8002f36:	68d9      	ldr	r1, [r3, #12]
 8002f38:	687b      	ldr	r3, [r7, #4]
 8002f3a:	68da      	ldr	r2, [r3, #12]
                            ADC_SCANDIR(hadc->Init.ScanConvMode)             |
 8002f3c:	687b      	ldr	r3, [r7, #4]
 8002f3e:	691b      	ldr	r3, [r3, #16]
 8002f40:	2b02      	cmp	r3, #2
 8002f42:	d101      	bne.n	8002f48 <HAL_ADC_Init+0x18c>
 8002f44:	2304      	movs	r3, #4
 8002f46:	e000      	b.n	8002f4a <HAL_ADC_Init+0x18e>
 8002f48:	2300      	movs	r3, #0
  hadc->Instance->CFGR1 |= (hadc->Init.DataAlign                             |
 8002f4a:	431a      	orrs	r2, r3
                            ADC_CONTINUOUS((uint32_t)hadc->Init.ContinuousConvMode)    |
 8002f4c:	687b      	ldr	r3, [r7, #4]
 8002f4e:	2020      	movs	r0, #32
 8002f50:	5c1b      	ldrb	r3, [r3, r0]
 8002f52:	035b      	lsls	r3, r3, #13
                            ADC_SCANDIR(hadc->Init.ScanConvMode)             |
 8002f54:	431a      	orrs	r2, r3
                            ADC_DMACONTREQ((uint32_t)hadc->Init.DMAContinuousRequests) |
 8002f56:	687b      	ldr	r3, [r7, #4]
 8002f58:	202c      	movs	r0, #44	; 0x2c
 8002f5a:	5c1b      	ldrb	r3, [r3, r0]
 8002f5c:	005b      	lsls	r3, r3, #1
                            ADC_CONTINUOUS((uint32_t)hadc->Init.ContinuousConvMode)    |
 8002f5e:	431a      	orrs	r2, r3
                            hadc->Init.Overrun                               |
 8002f60:	687b      	ldr	r3, [r7, #4]
 8002f62:	6b1b      	ldr	r3, [r3, #48]	; 0x30
                            ADC_DMACONTREQ((uint32_t)hadc->Init.DMAContinuousRequests) |
 8002f64:	431a      	orrs	r2, r3
                            __HAL_ADC_CFGR1_AutoDelay(hadc->Init.LowPowerAutoWait) |
 8002f66:	687b      	ldr	r3, [r7, #4]
 8002f68:	699b      	ldr	r3, [r3, #24]
 8002f6a:	039b      	lsls	r3, r3, #14
                            hadc->Init.Overrun                               |
 8002f6c:	431a      	orrs	r2, r3
                            __HAL_ADC_CFGR1_AUTOFF(hadc->Init.LowPowerAutoPowerOff));
 8002f6e:	687b      	ldr	r3, [r7, #4]
 8002f70:	69db      	ldr	r3, [r3, #28]
 8002f72:	03db      	lsls	r3, r3, #15
                            __HAL_ADC_CFGR1_AutoDelay(hadc->Init.LowPowerAutoWait) |
 8002f74:	431a      	orrs	r2, r3
  hadc->Instance->CFGR1 |= (hadc->Init.DataAlign                             |
 8002f76:	687b      	ldr	r3, [r7, #4]
 8002f78:	681b      	ldr	r3, [r3, #0]
 8002f7a:	430a      	orrs	r2, r1
 8002f7c:	60da      	str	r2, [r3, #12]
  /* Enable external trigger if trigger selection is different of software  */
  /* start.                                                                 */
  /* Note: This configuration keeps the hardware feature of parameter       */
  /*       ExternalTrigConvEdge "trigger edge none" equivalent to           */
  /*       software start.                                                  */
  if (hadc->Init.ExternalTrigConv != ADC_SOFTWARE_START)
 8002f7e:	687b      	ldr	r3, [r7, #4]
 8002f80:	6a5a      	ldr	r2, [r3, #36]	; 0x24
 8002f82:	23c2      	movs	r3, #194	; 0xc2
 8002f84:	33ff      	adds	r3, #255	; 0xff
 8002f86:	429a      	cmp	r2, r3
 8002f88:	d00b      	beq.n	8002fa2 <HAL_ADC_Init+0x1e6>
  {
    hadc->Instance->CFGR1 |= hadc->Init.ExternalTrigConv |
 8002f8a:	687b      	ldr	r3, [r7, #4]
 8002f8c:	681b      	ldr	r3, [r3, #0]
 8002f8e:	68d9      	ldr	r1, [r3, #12]
 8002f90:	687b      	ldr	r3, [r7, #4]
 8002f92:	6a5a      	ldr	r2, [r3, #36]	; 0x24
                             hadc->Init.ExternalTrigConvEdge;
 8002f94:	687b      	ldr	r3, [r7, #4]
 8002f96:	6a9b      	ldr	r3, [r3, #40]	; 0x28
    hadc->Instance->CFGR1 |= hadc->Init.ExternalTrigConv |
 8002f98:	431a      	orrs	r2, r3
 8002f9a:	687b      	ldr	r3, [r7, #4]
 8002f9c:	681b      	ldr	r3, [r3, #0]
 8002f9e:	430a      	orrs	r2, r1
 8002fa0:	60da      	str	r2, [r3, #12]
  }
  
  /* Enable discontinuous mode only if continuous mode is disabled */
  if (hadc->Init.DiscontinuousConvMode == ENABLE)
 8002fa2:	687b      	ldr	r3, [r7, #4]
 8002fa4:	2221      	movs	r2, #33	; 0x21
 8002fa6:	5c9b      	ldrb	r3, [r3, r2]
 8002fa8:	2b01      	cmp	r3, #1
 8002faa:	d11a      	bne.n	8002fe2 <HAL_ADC_Init+0x226>
  {
    if (hadc->Init.ContinuousConvMode == DISABLE)
 8002fac:	687b      	ldr	r3, [r7, #4]
 8002fae:	2220      	movs	r2, #32
 8002fb0:	5c9b      	ldrb	r3, [r3, r2]
 8002fb2:	2b00      	cmp	r3, #0
 8002fb4:	d109      	bne.n	8002fca <HAL_ADC_Init+0x20e>
    {
      /* Enable the selected ADC group regular discontinuous mode */
      hadc->Instance->CFGR1 |= (ADC_CFGR1_DISCEN);
 8002fb6:	687b      	ldr	r3, [r7, #4]
 8002fb8:	681b      	ldr	r3, [r3, #0]
 8002fba:	68da      	ldr	r2, [r3, #12]
 8002fbc:	687b      	ldr	r3, [r7, #4]
 8002fbe:	681b      	ldr	r3, [r3, #0]
 8002fc0:	2180      	movs	r1, #128	; 0x80
 8002fc2:	0249      	lsls	r1, r1, #9
 8002fc4:	430a      	orrs	r2, r1
 8002fc6:	60da      	str	r2, [r3, #12]
 8002fc8:	e00b      	b.n	8002fe2 <HAL_ADC_Init+0x226>
      /* ADC regular group discontinuous was intended to be enabled,        */
      /* but ADC regular group modes continuous and sequencer discontinuous */
      /* cannot be enabled simultaneously.                                  */
      
      /* Update ADC state machine to error */
      SET_BIT(hadc->State, HAL_ADC_STATE_ERROR_CONFIG);
 8002fca:	687b      	ldr	r3, [r7, #4]
 8002fcc:	6d5b      	ldr	r3, [r3, #84]	; 0x54
 8002fce:	2220      	movs	r2, #32
 8002fd0:	431a      	orrs	r2, r3
 8002fd2:	687b      	ldr	r3, [r7, #4]
 8002fd4:	655a      	str	r2, [r3, #84]	; 0x54
      
      /* Set ADC error code to ADC peripheral internal error */
      SET_BIT(hadc->ErrorCode, HAL_ADC_ERROR_INTERNAL);
 8002fd6:	687b      	ldr	r3, [r7, #4]
 8002fd8:	6d9b      	ldr	r3, [r3, #88]	; 0x58
 8002fda:	2201      	movs	r2, #1
 8002fdc:	431a      	orrs	r2, r3
 8002fde:	687b      	ldr	r3, [r7, #4]
 8002fe0:	659a      	str	r2, [r3, #88]	; 0x58
    }
  }
  
  if (hadc->Init.OversamplingMode == ENABLE)
 8002fe2:	687b      	ldr	r3, [r7, #4]
 8002fe4:	6bdb      	ldr	r3, [r3, #60]	; 0x3c
 8002fe6:	2b01      	cmp	r3, #1
 8002fe8:	d11f      	bne.n	800302a <HAL_ADC_Init+0x26e>
    /* Configuration of Oversampler:                                          */
    /*  - Oversampling Ratio                                                  */
    /*  - Right bit shift                                                     */
    /*  - Triggered mode                                                      */
    
    hadc->Instance->CFGR2 &= ~( ADC_CFGR2_OVSR |
 8002fea:	687b      	ldr	r3, [r7, #4]
 8002fec:	681b      	ldr	r3, [r3, #0]
 8002fee:	691a      	ldr	r2, [r3, #16]
 8002ff0:	687b      	ldr	r3, [r7, #4]
 8002ff2:	681b      	ldr	r3, [r3, #0]
 8002ff4:	492a      	ldr	r1, [pc, #168]	; (80030a0 <HAL_ADC_Init+0x2e4>)
 8002ff6:	400a      	ands	r2, r1
 8002ff8:	611a      	str	r2, [r3, #16]
                                ADC_CFGR2_OVSS |
                                ADC_CFGR2_TOVS );
    
    hadc->Instance->CFGR2 |= ( hadc->Init.Oversample.Ratio         |
 8002ffa:	687b      	ldr	r3, [r7, #4]
 8002ffc:	681b      	ldr	r3, [r3, #0]
 8002ffe:	6919      	ldr	r1, [r3, #16]
 8003000:	687b      	ldr	r3, [r7, #4]
 8003002:	6c1a      	ldr	r2, [r3, #64]	; 0x40
                               hadc->Init.Oversample.RightBitShift             |
 8003004:	687b      	ldr	r3, [r7, #4]
 8003006:	6c5b      	ldr	r3, [r3, #68]	; 0x44
    hadc->Instance->CFGR2 |= ( hadc->Init.Oversample.Ratio         |
 8003008:	431a      	orrs	r2, r3
                               hadc->Init.Oversample.TriggeredMode );
 800300a:	687b      	ldr	r3, [r7, #4]
 800300c:	6c9b      	ldr	r3, [r3, #72]	; 0x48
                               hadc->Init.Oversample.RightBitShift             |
 800300e:	431a      	orrs	r2, r3
    hadc->Instance->CFGR2 |= ( hadc->Init.Oversample.Ratio         |
 8003010:	687b      	ldr	r3, [r7, #4]
 8003012:	681b      	ldr	r3, [r3, #0]
 8003014:	430a      	orrs	r2, r1
 8003016:	611a      	str	r2, [r3, #16]
    
    /* Enable OverSampling mode */
     hadc->Instance->CFGR2 |= ADC_CFGR2_OVSE;
 8003018:	687b      	ldr	r3, [r7, #4]
 800301a:	681b      	ldr	r3, [r3, #0]
 800301c:	691a      	ldr	r2, [r3, #16]
 800301e:	687b      	ldr	r3, [r7, #4]
 8003020:	681b      	ldr	r3, [r3, #0]
 8003022:	2101      	movs	r1, #1
 8003024:	430a      	orrs	r2, r1
 8003026:	611a      	str	r2, [r3, #16]
 8003028:	e00e      	b.n	8003048 <HAL_ADC_Init+0x28c>
  }
  else
  {
    if(HAL_IS_BIT_SET(hadc->Instance->CFGR2, ADC_CFGR2_OVSE))
 800302a:	687b      	ldr	r3, [r7, #4]
 800302c:	681b      	ldr	r3, [r3, #0]
 800302e:	691b      	ldr	r3, [r3, #16]
 8003030:	2201      	movs	r2, #1
 8003032:	4013      	ands	r3, r2
 8003034:	2b01      	cmp	r3, #1
 8003036:	d107      	bne.n	8003048 <HAL_ADC_Init+0x28c>
    {
      /* Disable OverSampling mode if needed */
      hadc->Instance->CFGR2 &= ~ADC_CFGR2_OVSE;
 8003038:	687b      	ldr	r3, [r7, #4]
 800303a:	681b      	ldr	r3, [r3, #0]
 800303c:	691a      	ldr	r2, [r3, #16]
 800303e:	687b      	ldr	r3, [r7, #4]
 8003040:	681b      	ldr	r3, [r3, #0]
 8003042:	2101      	movs	r1, #1
 8003044:	438a      	bics	r2, r1
 8003046:	611a      	str	r2, [r3, #16]
    }
  }    
  
  /* Clear the old sampling time */
  hadc->Instance->SMPR &= (uint32_t)(~ADC_SMPR_SMPR);
 8003048:	687b      	ldr	r3, [r7, #4]
 800304a:	681b      	ldr	r3, [r3, #0]
 800304c:	695a      	ldr	r2, [r3, #20]
 800304e:	687b      	ldr	r3, [r7, #4]
 8003050:	681b      	ldr	r3, [r3, #0]
 8003052:	2107      	movs	r1, #7
 8003054:	438a      	bics	r2, r1
 8003056:	615a      	str	r2, [r3, #20]
  
  /* Set the new sample time */
  hadc->Instance->SMPR |= hadc->Init.SamplingTime;
 8003058:	687b      	ldr	r3, [r7, #4]
 800305a:	681b      	ldr	r3, [r3, #0]
 800305c:	6959      	ldr	r1, [r3, #20]
 800305e:	687b      	ldr	r3, [r7, #4]
 8003060:	6b9a      	ldr	r2, [r3, #56]	; 0x38
 8003062:	687b      	ldr	r3, [r7, #4]
 8003064:	681b      	ldr	r3, [r3, #0]
 8003066:	430a      	orrs	r2, r1
 8003068:	615a      	str	r2, [r3, #20]
  
  /* Clear ADC error code */
  ADC_CLEAR_ERRORCODE(hadc);
 800306a:	687b      	ldr	r3, [r7, #4]
 800306c:	2200      	movs	r2, #0
 800306e:	659a      	str	r2, [r3, #88]	; 0x58

  /* Set the ADC state */
  ADC_STATE_CLR_SET(hadc->State,
 8003070:	687b      	ldr	r3, [r7, #4]
 8003072:	6d5b      	ldr	r3, [r3, #84]	; 0x54
 8003074:	2203      	movs	r2, #3
 8003076:	4393      	bics	r3, r2
 8003078:	2201      	movs	r2, #1
 800307a:	431a      	orrs	r2, r3
 800307c:	687b      	ldr	r3, [r7, #4]
 800307e:	655a      	str	r2, [r3, #84]	; 0x54
                    HAL_ADC_STATE_BUSY_INTERNAL,
                    HAL_ADC_STATE_READY);


  /* Return function status */
  return HAL_OK;
 8003080:	2300      	movs	r3, #0
}
 8003082:	0018      	movs	r0, r3
 8003084:	46bd      	mov	sp, r7
 8003086:	b002      	add	sp, #8
 8003088:	bd80      	pop	{r7, pc}
 800308a:	46c0      	nop			; (mov r8, r8)
 800308c:	fffffefd 	.word	0xfffffefd
 8003090:	40012708 	.word	0x40012708
 8003094:	ffc3ffff 	.word	0xffc3ffff
 8003098:	fdffffff 	.word	0xfdffffff
 800309c:	fffe0219 	.word	0xfffe0219
 80030a0:	fffffc03 	.word	0xfffffc03

080030a4 <HAL_ADC_DeInit>:
  *         common group is still running.
  * @param  hadc ADC handle
  * @retval HAL status
  */
HAL_StatusTypeDef HAL_ADC_DeInit(ADC_HandleTypeDef* hadc)
{
 80030a4:	b5b0      	push	{r4, r5, r7, lr}
 80030a6:	b084      	sub	sp, #16
 80030a8:	af00      	add	r7, sp, #0
 80030aa:	6078      	str	r0, [r7, #4]
  HAL_StatusTypeDef tmp_hal_status = HAL_OK;
 80030ac:	230f      	movs	r3, #15
 80030ae:	18fb      	adds	r3, r7, r3
 80030b0:	2200      	movs	r2, #0
 80030b2:	701a      	strb	r2, [r3, #0]
  
  /* Check ADC handle */
  if(hadc == NULL)
 80030b4:	687b      	ldr	r3, [r7, #4]
 80030b6:	2b00      	cmp	r3, #0
 80030b8:	d101      	bne.n	80030be <HAL_ADC_DeInit+0x1a>
  {
    return HAL_ERROR;
 80030ba:	2301      	movs	r3, #1
 80030bc:	e07d      	b.n	80031ba <HAL_ADC_DeInit+0x116>
  
  /* Check the parameters */
  assert_param(IS_ADC_ALL_INSTANCE(hadc->Instance));
  
  /* Set ADC state */
  SET_BIT(hadc->State, HAL_ADC_STATE_BUSY_INTERNAL);
 80030be:	687b      	ldr	r3, [r7, #4]
 80030c0:	6d5b      	ldr	r3, [r3, #84]	; 0x54
 80030c2:	2202      	movs	r2, #2
 80030c4:	431a      	orrs	r2, r3
 80030c6:	687b      	ldr	r3, [r7, #4]
 80030c8:	655a      	str	r2, [r3, #84]	; 0x54
  
  /* Stop potential conversion on going, on regular group */
  tmp_hal_status = ADC_ConversionStop(hadc);
 80030ca:	250f      	movs	r5, #15
 80030cc:	197c      	adds	r4, r7, r5
 80030ce:	687b      	ldr	r3, [r7, #4]
 80030d0:	0018      	movs	r0, r3
 80030d2:	f000 faf6 	bl	80036c2 <ADC_ConversionStop>
 80030d6:	0003      	movs	r3, r0
 80030d8:	7023      	strb	r3, [r4, #0]
  
  /* Disable ADC peripheral if conversions are effectively stopped */
  if (tmp_hal_status == HAL_OK)
 80030da:	197b      	adds	r3, r7, r5
 80030dc:	781b      	ldrb	r3, [r3, #0]
 80030de:	2b00      	cmp	r3, #0
 80030e0:	d10d      	bne.n	80030fe <HAL_ADC_DeInit+0x5a>
  {   
    /* Disable the ADC peripheral */
    tmp_hal_status = ADC_Disable(hadc);
 80030e2:	197c      	adds	r4, r7, r5
 80030e4:	687b      	ldr	r3, [r7, #4]
 80030e6:	0018      	movs	r0, r3
 80030e8:	f000 fa84 	bl	80035f4 <ADC_Disable>
 80030ec:	0003      	movs	r3, r0
 80030ee:	7023      	strb	r3, [r4, #0]
    
    /* Check if ADC is effectively disabled */
    if (tmp_hal_status != HAL_ERROR)
 80030f0:	197b      	adds	r3, r7, r5
 80030f2:	781b      	ldrb	r3, [r3, #0]
 80030f4:	2b01      	cmp	r3, #1
 80030f6:	d002      	beq.n	80030fe <HAL_ADC_DeInit+0x5a>
    {
      /* Change ADC state */
      hadc->State = HAL_ADC_STATE_READY;
 80030f8:	687b      	ldr	r3, [r7, #4]
 80030fa:	2201      	movs	r2, #1
 80030fc:	655a      	str	r2, [r3, #84]	; 0x54
  }
  
  
  /* Configuration of ADC parameters if previous preliminary actions are      */ 
  /* correctly completed.                                                     */
  if (tmp_hal_status != HAL_ERROR)
 80030fe:	230f      	movs	r3, #15
 8003100:	18fb      	adds	r3, r7, r3
 8003102:	781b      	ldrb	r3, [r3, #0]
 8003104:	2b01      	cmp	r3, #1
 8003106:	d051      	beq.n	80031ac <HAL_ADC_DeInit+0x108>
  {
    
    /* ========== Reset ADC registers ========== */
    /* Reset register IER */
    __HAL_ADC_DISABLE_IT(hadc, (ADC_IT_AWD | ADC_IT_OVR | ADC_IT_EOCAL | ADC_IT_EOS |  \
 8003108:	687b      	ldr	r3, [r7, #4]
 800310a:	681b      	ldr	r3, [r3, #0]
 800310c:	685a      	ldr	r2, [r3, #4]
 800310e:	687b      	ldr	r3, [r7, #4]
 8003110:	681b      	ldr	r3, [r3, #0]
 8003112:	492c      	ldr	r1, [pc, #176]	; (80031c4 <HAL_ADC_DeInit+0x120>)
 8003114:	400a      	ands	r2, r1
 8003116:	605a      	str	r2, [r3, #4]
                                ADC_IT_EOC | ADC_IT_RDY | ADC_IT_EOSMP ));
  
        
    /* Reset register ISR */
    __HAL_ADC_CLEAR_FLAG(hadc, (ADC_FLAG_AWD | ADC_FLAG_EOCAL | ADC_FLAG_OVR | ADC_FLAG_EOS |  \
 8003118:	687b      	ldr	r3, [r7, #4]
 800311a:	681b      	ldr	r3, [r3, #0]
 800311c:	4a2a      	ldr	r2, [pc, #168]	; (80031c8 <HAL_ADC_DeInit+0x124>)
 800311e:	601a      	str	r2, [r3, #0]
    
    /* Reset register CR */
    /* Disable voltage regulator */
    /* Note: Regulator disable useful for power saving */
    /* Reset ADVREGEN bit */
    hadc->Instance->CR &= ~ADC_CR_ADVREGEN;
 8003120:	687b      	ldr	r3, [r7, #4]
 8003122:	681b      	ldr	r3, [r3, #0]
 8003124:	689a      	ldr	r2, [r3, #8]
 8003126:	687b      	ldr	r3, [r7, #4]
 8003128:	681b      	ldr	r3, [r3, #0]
 800312a:	4928      	ldr	r1, [pc, #160]	; (80031cc <HAL_ADC_DeInit+0x128>)
 800312c:	400a      	ands	r2, r1
 800312e:	609a      	str	r2, [r3, #8]
    
    /* Bits ADC_CR_ADSTP, ADC_CR_ADSTART are in access mode "read-set": no direct reset applicable */
    /* No action */
    
    /* Reset register CFGR1 */
    hadc->Instance->CFGR1 &= ~(ADC_CFGR1_AWDCH  | ADC_CFGR1_AWDEN  | ADC_CFGR1_AWDSGL | \
 8003130:	687b      	ldr	r3, [r7, #4]
 8003132:	681b      	ldr	r3, [r3, #0]
 8003134:	68da      	ldr	r2, [r3, #12]
 8003136:	687b      	ldr	r3, [r7, #4]
 8003138:	681b      	ldr	r3, [r3, #0]
 800313a:	4925      	ldr	r1, [pc, #148]	; (80031d0 <HAL_ADC_DeInit+0x12c>)
 800313c:	400a      	ands	r2, r1
 800313e:	60da      	str	r2, [r3, #12]
                               ADC_CFGR1_CONT   | ADC_CFGR1_OVRMOD | ADC_CFGR1_EXTEN  | \
                               ADC_CFGR1_EXTSEL | ADC_CFGR1_ALIGN  | ADC_CFGR1_RES    | \
                               ADC_CFGR1_SCANDIR| ADC_CFGR1_DMACFG | ADC_CFGR1_DMAEN);
  
    /* Reset register CFGR2 */
    hadc->Instance->CFGR2 &= ~(ADC_CFGR2_TOVS  | ADC_CFGR2_OVSS  | ADC_CFGR2_OVSR | \
 8003140:	687b      	ldr	r3, [r7, #4]
 8003142:	681b      	ldr	r3, [r3, #0]
 8003144:	691a      	ldr	r2, [r3, #16]
 8003146:	687b      	ldr	r3, [r7, #4]
 8003148:	681b      	ldr	r3, [r3, #0]
 800314a:	4922      	ldr	r1, [pc, #136]	; (80031d4 <HAL_ADC_DeInit+0x130>)
 800314c:	400a      	ands	r2, r1
 800314e:	611a      	str	r2, [r3, #16]
                               ADC_CFGR2_OVSE  | ADC_CFGR2_CKMODE );
  
    
    /* Reset register SMPR */
    hadc->Instance->SMPR &= ~(ADC_SMPR_SMPR);
 8003150:	687b      	ldr	r3, [r7, #4]
 8003152:	681b      	ldr	r3, [r3, #0]
 8003154:	695a      	ldr	r2, [r3, #20]
 8003156:	687b      	ldr	r3, [r7, #4]
 8003158:	681b      	ldr	r3, [r3, #0]
 800315a:	2107      	movs	r1, #7
 800315c:	438a      	bics	r2, r1
 800315e:	615a      	str	r2, [r3, #20]
    
    /* Reset register TR */
    hadc->Instance->TR &= ~(ADC_TR_LT | ADC_TR_HT);
 8003160:	687b      	ldr	r3, [r7, #4]
 8003162:	681b      	ldr	r3, [r3, #0]
 8003164:	6a1a      	ldr	r2, [r3, #32]
 8003166:	687b      	ldr	r3, [r7, #4]
 8003168:	681b      	ldr	r3, [r3, #0]
 800316a:	491b      	ldr	r1, [pc, #108]	; (80031d8 <HAL_ADC_DeInit+0x134>)
 800316c:	400a      	ands	r2, r1
 800316e:	621a      	str	r2, [r3, #32]
    
    /* Reset register CALFACT */
    hadc->Instance->CALFACT &= ~(ADC_CALFACT_CALFACT);
 8003170:	687b      	ldr	r3, [r7, #4]
 8003172:	681b      	ldr	r3, [r3, #0]
 8003174:	22b4      	movs	r2, #180	; 0xb4
 8003176:	589a      	ldr	r2, [r3, r2]
 8003178:	687b      	ldr	r3, [r7, #4]
 800317a:	681b      	ldr	r3, [r3, #0]
 800317c:	217f      	movs	r1, #127	; 0x7f
 800317e:	438a      	bics	r2, r1
 8003180:	21b4      	movs	r1, #180	; 0xb4
 8003182:	505a      	str	r2, [r3, r1]
    
    /* Reset register DR */
    /* bits in access mode read only, no direct reset applicable*/
  
    /* Reset register CALFACT */
    hadc->Instance->CALFACT &= ~(ADC_CALFACT_CALFACT);
 8003184:	687b      	ldr	r3, [r7, #4]
 8003186:	681b      	ldr	r3, [r3, #0]
 8003188:	22b4      	movs	r2, #180	; 0xb4
 800318a:	589a      	ldr	r2, [r3, r2]
 800318c:	687b      	ldr	r3, [r7, #4]
 800318e:	681b      	ldr	r3, [r3, #0]
 8003190:	217f      	movs	r1, #127	; 0x7f
 8003192:	438a      	bics	r2, r1
 8003194:	21b4      	movs	r1, #180	; 0xb4
 8003196:	505a      	str	r2, [r3, r1]
    
    /* DeInit the low level hardware */
    hadc->MspDeInitCallback(hadc);
#else
    /* DeInit the low level hardware */
    HAL_ADC_MspDeInit(hadc);
 8003198:	687b      	ldr	r3, [r7, #4]
 800319a:	0018      	movs	r0, r3
 800319c:	f7ff fb9a 	bl	80028d4 <HAL_ADC_MspDeInit>
#endif /* USE_HAL_ADC_REGISTER_CALLBACKS */
    
    /* Set ADC error code to none */
    ADC_CLEAR_ERRORCODE(hadc);
 80031a0:	687b      	ldr	r3, [r7, #4]
 80031a2:	2200      	movs	r2, #0
 80031a4:	659a      	str	r2, [r3, #88]	; 0x58
    
    /* Set ADC state */
    hadc->State = HAL_ADC_STATE_RESET;
 80031a6:	687b      	ldr	r3, [r7, #4]
 80031a8:	2200      	movs	r2, #0
 80031aa:	655a      	str	r2, [r3, #84]	; 0x54
  }
  
  /* Process unlocked */
  __HAL_UNLOCK(hadc);
 80031ac:	687b      	ldr	r3, [r7, #4]
 80031ae:	2250      	movs	r2, #80	; 0x50
 80031b0:	2100      	movs	r1, #0
 80031b2:	5499      	strb	r1, [r3, r2]
  
  /* Return function status */
  return tmp_hal_status;
 80031b4:	230f      	movs	r3, #15
 80031b6:	18fb      	adds	r3, r7, r3
 80031b8:	781b      	ldrb	r3, [r3, #0]
}
 80031ba:	0018      	movs	r0, r3
 80031bc:	46bd      	mov	sp, r7
 80031be:	b004      	add	sp, #16
 80031c0:	bdb0      	pop	{r4, r5, r7, pc}
 80031c2:	46c0      	nop			; (mov r8, r8)
 80031c4:	fffff760 	.word	0xfffff760
 80031c8:	0000089f 	.word	0x0000089f
 80031cc:	efffffff 	.word	0xefffffff
 80031d0:	833e0200 	.word	0x833e0200
 80031d4:	3ffffc02 	.word	0x3ffffc02
 80031d8:	f000f000 	.word	0xf000f000

080031dc <HAL_ADC_Start>:
  * @note   Interruptions enabled in this function: None.
  * @param  hadc ADC handle
  * @retval HAL status
  */
HAL_StatusTypeDef HAL_ADC_Start(ADC_HandleTypeDef* hadc)
{
 80031dc:	b590      	push	{r4, r7, lr}
 80031de:	b085      	sub	sp, #20
 80031e0:	af00      	add	r7, sp, #0
 80031e2:	6078      	str	r0, [r7, #4]
  HAL_StatusTypeDef tmp_hal_status = HAL_OK;
 80031e4:	230f      	movs	r3, #15
 80031e6:	18fb      	adds	r3, r7, r3
 80031e8:	2200      	movs	r2, #0
 80031ea:	701a      	strb	r2, [r3, #0]
  
  /* Check the parameters */
  assert_param(IS_ADC_ALL_INSTANCE(hadc->Instance));
  
  /* Perform ADC enable and conversion start if no conversion is on going */
  if (ADC_IS_CONVERSION_ONGOING_REGULAR(hadc) == RESET)
 80031ec:	687b      	ldr	r3, [r7, #4]
 80031ee:	681b      	ldr	r3, [r3, #0]
 80031f0:	689b      	ldr	r3, [r3, #8]
 80031f2:	2204      	movs	r2, #4
 80031f4:	4013      	ands	r3, r2
 80031f6:	d138      	bne.n	800326a <HAL_ADC_Start+0x8e>
  {
    /* Process locked */
    __HAL_LOCK(hadc);
 80031f8:	687b      	ldr	r3, [r7, #4]
 80031fa:	2250      	movs	r2, #80	; 0x50
 80031fc:	5c9b      	ldrb	r3, [r3, r2]
 80031fe:	2b01      	cmp	r3, #1
 8003200:	d101      	bne.n	8003206 <HAL_ADC_Start+0x2a>
 8003202:	2302      	movs	r3, #2
 8003204:	e038      	b.n	8003278 <HAL_ADC_Start+0x9c>
 8003206:	687b      	ldr	r3, [r7, #4]
 8003208:	2250      	movs	r2, #80	; 0x50
 800320a:	2101      	movs	r1, #1
 800320c:	5499      	strb	r1, [r3, r2]
    
    /* Enable the ADC peripheral */
    /* If low power mode AutoPowerOff is enabled, power-on/off phases are     */
    /* performed automatically by hardware.                                   */
    if (hadc->Init.LowPowerAutoPowerOff != ENABLE)
 800320e:	687b      	ldr	r3, [r7, #4]
 8003210:	69db      	ldr	r3, [r3, #28]
 8003212:	2b01      	cmp	r3, #1
 8003214:	d007      	beq.n	8003226 <HAL_ADC_Start+0x4a>
    {
      tmp_hal_status = ADC_Enable(hadc);
 8003216:	230f      	movs	r3, #15
 8003218:	18fc      	adds	r4, r7, r3
 800321a:	687b      	ldr	r3, [r7, #4]
 800321c:	0018      	movs	r0, r3
 800321e:	f000 f981 	bl	8003524 <ADC_Enable>
 8003222:	0003      	movs	r3, r0
 8003224:	7023      	strb	r3, [r4, #0]
    }
    
    /* Start conversion if ADC is effectively enabled */
    if (tmp_hal_status == HAL_OK)
 8003226:	230f      	movs	r3, #15
 8003228:	18fb      	adds	r3, r7, r3
 800322a:	781b      	ldrb	r3, [r3, #0]
 800322c:	2b00      	cmp	r3, #0
 800322e:	d120      	bne.n	8003272 <HAL_ADC_Start+0x96>
    {
      /* Set ADC state                                                        */
      /* - Clear state bitfield related to regular group conversion results   */
      /* - Set state bitfield related to regular operation                    */
      ADC_STATE_CLR_SET(hadc->State,
 8003230:	687b      	ldr	r3, [r7, #4]
 8003232:	6d5b      	ldr	r3, [r3, #84]	; 0x54
 8003234:	4a12      	ldr	r2, [pc, #72]	; (8003280 <HAL_ADC_Start+0xa4>)
 8003236:	4013      	ands	r3, r2
 8003238:	2280      	movs	r2, #128	; 0x80
 800323a:	0052      	lsls	r2, r2, #1
 800323c:	431a      	orrs	r2, r3
 800323e:	687b      	ldr	r3, [r7, #4]
 8003240:	655a      	str	r2, [r3, #84]	; 0x54
                        HAL_ADC_STATE_READY | HAL_ADC_STATE_REG_EOC | HAL_ADC_STATE_REG_OVR | HAL_ADC_STATE_REG_EOSMP,
                        HAL_ADC_STATE_REG_BUSY);
      
      /* Reset ADC all error code fields */
      ADC_CLEAR_ERRORCODE(hadc);
 8003242:	687b      	ldr	r3, [r7, #4]
 8003244:	2200      	movs	r2, #0
 8003246:	659a      	str	r2, [r3, #88]	; 0x58
      
      /* Process unlocked */
      /* Unlock before starting ADC conversions: in case of potential         */
      /* interruption, to let the process to ADC IRQ Handler.                 */
      __HAL_UNLOCK(hadc);
 8003248:	687b      	ldr	r3, [r7, #4]
 800324a:	2250      	movs	r2, #80	; 0x50
 800324c:	2100      	movs	r1, #0
 800324e:	5499      	strb	r1, [r3, r2]
      
      /* Clear regular group conversion flag and overrun flag */
      /* (To ensure of no unknown state from potential previous ADC           */
      /* operations)                                                          */
      __HAL_ADC_CLEAR_FLAG(hadc, (ADC_FLAG_EOC | ADC_FLAG_EOS | ADC_FLAG_OVR));
 8003250:	687b      	ldr	r3, [r7, #4]
 8003252:	681b      	ldr	r3, [r3, #0]
 8003254:	221c      	movs	r2, #28
 8003256:	601a      	str	r2, [r3, #0]
      
      /* Enable conversion of regular group.                                  */
      /* If software start has been selected, conversion starts immediately.  */
      /* If external trigger has been selected, conversion will start at next */
      /* trigger event.                                                       */
      hadc->Instance->CR |= ADC_CR_ADSTART;
 8003258:	687b      	ldr	r3, [r7, #4]
 800325a:	681b      	ldr	r3, [r3, #0]
 800325c:	689a      	ldr	r2, [r3, #8]
 800325e:	687b      	ldr	r3, [r7, #4]
 8003260:	681b      	ldr	r3, [r3, #0]
 8003262:	2104      	movs	r1, #4
 8003264:	430a      	orrs	r2, r1
 8003266:	609a      	str	r2, [r3, #8]
 8003268:	e003      	b.n	8003272 <HAL_ADC_Start+0x96>
    }
  }
  else
  {
    tmp_hal_status = HAL_BUSY;
 800326a:	230f      	movs	r3, #15
 800326c:	18fb      	adds	r3, r7, r3
 800326e:	2202      	movs	r2, #2
 8003270:	701a      	strb	r2, [r3, #0]
  }
  
  /* Return function status */
  return tmp_hal_status;
 8003272:	230f      	movs	r3, #15
 8003274:	18fb      	adds	r3, r7, r3
 8003276:	781b      	ldrb	r3, [r3, #0]
}
 8003278:	0018      	movs	r0, r3
 800327a:	46bd      	mov	sp, r7
 800327c:	b005      	add	sp, #20
 800327e:	bd90      	pop	{r4, r7, pc}
 8003280:	fffff0fe 	.word	0xfffff0fe

08003284 <HAL_ADC_Stop>:
  *         case of auto_injection mode), disable ADC peripheral.
  * @param  hadc ADC handle
  * @retval HAL status.
  */
HAL_StatusTypeDef HAL_ADC_Stop(ADC_HandleTypeDef* hadc)
{
 8003284:	b5b0      	push	{r4, r5, r7, lr}
 8003286:	b084      	sub	sp, #16
 8003288:	af00      	add	r7, sp, #0
 800328a:	6078      	str	r0, [r7, #4]
  HAL_StatusTypeDef tmp_hal_status = HAL_OK;
 800328c:	230f      	movs	r3, #15
 800328e:	18fb      	adds	r3, r7, r3
 8003290:	2200      	movs	r2, #0
 8003292:	701a      	strb	r2, [r3, #0]
  
  /* Check the parameters */
  assert_param(IS_ADC_ALL_INSTANCE(hadc->Instance));
  
  /* Process locked */
  __HAL_LOCK(hadc);
 8003294:	687b      	ldr	r3, [r7, #4]
 8003296:	2250      	movs	r2, #80	; 0x50
 8003298:	5c9b      	ldrb	r3, [r3, r2]
 800329a:	2b01      	cmp	r3, #1
 800329c:	d101      	bne.n	80032a2 <HAL_ADC_Stop+0x1e>
 800329e:	2302      	movs	r3, #2
 80032a0:	e029      	b.n	80032f6 <HAL_ADC_Stop+0x72>
 80032a2:	687b      	ldr	r3, [r7, #4]
 80032a4:	2250      	movs	r2, #80	; 0x50
 80032a6:	2101      	movs	r1, #1
 80032a8:	5499      	strb	r1, [r3, r2]
  
  /* 1. Stop potential conversion on going, on ADC group regular */
  tmp_hal_status = ADC_ConversionStop(hadc);
 80032aa:	250f      	movs	r5, #15
 80032ac:	197c      	adds	r4, r7, r5
 80032ae:	687b      	ldr	r3, [r7, #4]
 80032b0:	0018      	movs	r0, r3
 80032b2:	f000 fa06 	bl	80036c2 <ADC_ConversionStop>
 80032b6:	0003      	movs	r3, r0
 80032b8:	7023      	strb	r3, [r4, #0]
  
  /* Disable ADC peripheral if conversions are effectively stopped */
  if (tmp_hal_status == HAL_OK)
 80032ba:	197b      	adds	r3, r7, r5
 80032bc:	781b      	ldrb	r3, [r3, #0]
 80032be:	2b00      	cmp	r3, #0
 80032c0:	d112      	bne.n	80032e8 <HAL_ADC_Stop+0x64>
  {
    /* 2. Disable the ADC peripheral */
    tmp_hal_status = ADC_Disable(hadc);
 80032c2:	197c      	adds	r4, r7, r5
 80032c4:	687b      	ldr	r3, [r7, #4]
 80032c6:	0018      	movs	r0, r3
 80032c8:	f000 f994 	bl	80035f4 <ADC_Disable>
 80032cc:	0003      	movs	r3, r0
 80032ce:	7023      	strb	r3, [r4, #0]
    
    /* Check if ADC is effectively disabled */
    if (tmp_hal_status == HAL_OK)
 80032d0:	197b      	adds	r3, r7, r5
 80032d2:	781b      	ldrb	r3, [r3, #0]
 80032d4:	2b00      	cmp	r3, #0
 80032d6:	d107      	bne.n	80032e8 <HAL_ADC_Stop+0x64>
    {
      /* Set ADC state */
      ADC_STATE_CLR_SET(hadc->State,
 80032d8:	687b      	ldr	r3, [r7, #4]
 80032da:	6d5b      	ldr	r3, [r3, #84]	; 0x54
 80032dc:	4a08      	ldr	r2, [pc, #32]	; (8003300 <HAL_ADC_Stop+0x7c>)
 80032de:	4013      	ands	r3, r2
 80032e0:	2201      	movs	r2, #1
 80032e2:	431a      	orrs	r2, r3
 80032e4:	687b      	ldr	r3, [r7, #4]
 80032e6:	655a      	str	r2, [r3, #84]	; 0x54
                        HAL_ADC_STATE_READY);
    }
  }
  
  /* Process unlocked */
  __HAL_UNLOCK(hadc);
 80032e8:	687b      	ldr	r3, [r7, #4]
 80032ea:	2250      	movs	r2, #80	; 0x50
 80032ec:	2100      	movs	r1, #0
 80032ee:	5499      	strb	r1, [r3, r2]
  
  /* Return function status */
  return tmp_hal_status;
 80032f0:	230f      	movs	r3, #15
 80032f2:	18fb      	adds	r3, r7, r3
 80032f4:	781b      	ldrb	r3, [r3, #0]
}
 80032f6:	0018      	movs	r0, r3
 80032f8:	46bd      	mov	sp, r7
 80032fa:	b004      	add	sp, #16
 80032fc:	bdb0      	pop	{r4, r5, r7, pc}
 80032fe:	46c0      	nop			; (mov r8, r8)
 8003300:	fffffefe 	.word	0xfffffefe

08003304 <HAL_ADC_PollForConversion>:
  * @param  hadc ADC handle
  * @param  Timeout Timeout value in millisecond.
  * @retval HAL status
  */
HAL_StatusTypeDef HAL_ADC_PollForConversion(ADC_HandleTypeDef* hadc, uint32_t Timeout)
{
 8003304:	b580      	push	{r7, lr}
 8003306:	b084      	sub	sp, #16
 8003308:	af00      	add	r7, sp, #0
 800330a:	6078      	str	r0, [r7, #4]
 800330c:	6039      	str	r1, [r7, #0]
  uint32_t tickstart = 0;
 800330e:	2300      	movs	r3, #0
 8003310:	60bb      	str	r3, [r7, #8]
  uint32_t tmp_Flag_EOC   = 0x00;
 8003312:	2300      	movs	r3, #0
 8003314:	60fb      	str	r3, [r7, #12]
  
  /* Check the parameters */
  assert_param(IS_ADC_ALL_INSTANCE(hadc->Instance));
  
  /* If end of conversion selected to end of sequence conversions */
  if (hadc->Init.EOCSelection == ADC_EOC_SEQ_CONV)
 8003316:	687b      	ldr	r3, [r7, #4]
 8003318:	695b      	ldr	r3, [r3, #20]
 800331a:	2b08      	cmp	r3, #8
 800331c:	d102      	bne.n	8003324 <HAL_ADC_PollForConversion+0x20>
  {
    tmp_Flag_EOC = ADC_FLAG_EOS;
 800331e:	2308      	movs	r3, #8
 8003320:	60fb      	str	r3, [r7, #12]
 8003322:	e014      	b.n	800334e <HAL_ADC_PollForConversion+0x4a>
    /* each conversion:                                                       */
    /* Particular case is ADC configured in DMA mode and ADC sequencer with   */
    /* several ranks and polling for end of each conversion.                  */
    /* For code simplicity sake, this particular case is generalized to       */
    /* ADC configured in DMA mode and and polling for end of each conversion. */
    if (HAL_IS_BIT_SET(hadc->Instance->CFGR1, ADC_CFGR1_DMAEN))
 8003324:	687b      	ldr	r3, [r7, #4]
 8003326:	681b      	ldr	r3, [r3, #0]
 8003328:	68db      	ldr	r3, [r3, #12]
 800332a:	2201      	movs	r2, #1
 800332c:	4013      	ands	r3, r2
 800332e:	2b01      	cmp	r3, #1
 8003330:	d10b      	bne.n	800334a <HAL_ADC_PollForConversion+0x46>
    {
      /* Update ADC state machine to error */
      SET_BIT(hadc->State, HAL_ADC_STATE_ERROR_CONFIG);
 8003332:	687b      	ldr	r3, [r7, #4]
 8003334:	6d5b      	ldr	r3, [r3, #84]	; 0x54
 8003336:	2220      	movs	r2, #32
 8003338:	431a      	orrs	r2, r3
 800333a:	687b      	ldr	r3, [r7, #4]
 800333c:	655a      	str	r2, [r3, #84]	; 0x54
      
      /* Process unlocked */
      __HAL_UNLOCK(hadc);
 800333e:	687b      	ldr	r3, [r7, #4]
 8003340:	2250      	movs	r2, #80	; 0x50
 8003342:	2100      	movs	r1, #0
 8003344:	5499      	strb	r1, [r3, r2]
      
      return HAL_ERROR;
 8003346:	2301      	movs	r3, #1
 8003348:	e072      	b.n	8003430 <HAL_ADC_PollForConversion+0x12c>
    }
    else
    {
      tmp_Flag_EOC = (ADC_FLAG_EOC | ADC_FLAG_EOS);
 800334a:	230c      	movs	r3, #12
 800334c:	60fb      	str	r3, [r7, #12]
    }
  }
  
  /* Get tick count */
  tickstart = HAL_GetTick();
 800334e:	f7ff fcff 	bl	8002d50 <HAL_GetTick>
 8003352:	0003      	movs	r3, r0
 8003354:	60bb      	str	r3, [r7, #8]
  
  /* Wait until End of unitary conversion or sequence conversions flag is raised */
  while(HAL_IS_BIT_CLR(hadc->Instance->ISR, tmp_Flag_EOC))
 8003356:	e01f      	b.n	8003398 <HAL_ADC_PollForConversion+0x94>
  {
    /* Check if timeout is disabled (set to infinite wait) */
    if(Timeout != HAL_MAX_DELAY)
 8003358:	683b      	ldr	r3, [r7, #0]
 800335a:	3301      	adds	r3, #1
 800335c:	d01c      	beq.n	8003398 <HAL_ADC_PollForConversion+0x94>
    {
      if((Timeout == 0U) || ((HAL_GetTick()-tickstart) > Timeout))
 800335e:	683b      	ldr	r3, [r7, #0]
 8003360:	2b00      	cmp	r3, #0
 8003362:	d007      	beq.n	8003374 <HAL_ADC_PollForConversion+0x70>
 8003364:	f7ff fcf4 	bl	8002d50 <HAL_GetTick>
 8003368:	0002      	movs	r2, r0
 800336a:	68bb      	ldr	r3, [r7, #8]
 800336c:	1ad3      	subs	r3, r2, r3
 800336e:	683a      	ldr	r2, [r7, #0]
 8003370:	429a      	cmp	r2, r3
 8003372:	d211      	bcs.n	8003398 <HAL_ADC_PollForConversion+0x94>
      {
        /* New check to avoid false timeout detection in case of preemption */
        if(HAL_IS_BIT_CLR(hadc->Instance->ISR, tmp_Flag_EOC))
 8003374:	687b      	ldr	r3, [r7, #4]
 8003376:	681b      	ldr	r3, [r3, #0]
 8003378:	681b      	ldr	r3, [r3, #0]
 800337a:	68fa      	ldr	r2, [r7, #12]
 800337c:	4013      	ands	r3, r2
 800337e:	d10b      	bne.n	8003398 <HAL_ADC_PollForConversion+0x94>
        {
          /* Update ADC state machine to timeout */
          SET_BIT(hadc->State, HAL_ADC_STATE_TIMEOUT);
 8003380:	687b      	ldr	r3, [r7, #4]
 8003382:	6d5b      	ldr	r3, [r3, #84]	; 0x54
 8003384:	2204      	movs	r2, #4
 8003386:	431a      	orrs	r2, r3
 8003388:	687b      	ldr	r3, [r7, #4]
 800338a:	655a      	str	r2, [r3, #84]	; 0x54

          /* Process unlocked */
          __HAL_UNLOCK(hadc);
 800338c:	687b      	ldr	r3, [r7, #4]
 800338e:	2250      	movs	r2, #80	; 0x50
 8003390:	2100      	movs	r1, #0
 8003392:	5499      	strb	r1, [r3, r2]

          return HAL_TIMEOUT;
 8003394:	2303      	movs	r3, #3
 8003396:	e04b      	b.n	8003430 <HAL_ADC_PollForConversion+0x12c>
  while(HAL_IS_BIT_CLR(hadc->Instance->ISR, tmp_Flag_EOC))
 8003398:	687b      	ldr	r3, [r7, #4]
 800339a:	681b      	ldr	r3, [r3, #0]
 800339c:	681b      	ldr	r3, [r3, #0]
 800339e:	68fa      	ldr	r2, [r7, #12]
 80033a0:	4013      	ands	r3, r2
 80033a2:	d0d9      	beq.n	8003358 <HAL_ADC_PollForConversion+0x54>
      }
    }
  }
  
  /* Update ADC state machine */
  SET_BIT(hadc->State, HAL_ADC_STATE_REG_EOC);
 80033a4:	687b      	ldr	r3, [r7, #4]
 80033a6:	6d5b      	ldr	r3, [r3, #84]	; 0x54
 80033a8:	2280      	movs	r2, #128	; 0x80
 80033aa:	0092      	lsls	r2, r2, #2
 80033ac:	431a      	orrs	r2, r3
 80033ae:	687b      	ldr	r3, [r7, #4]
 80033b0:	655a      	str	r2, [r3, #84]	; 0x54
  
  /* Determine whether any further conversion upcoming on group regular       */
  /* by external trigger, continuous mode or scan sequence on going.          */
  if(ADC_IS_SOFTWARE_START_REGULAR(hadc)        && 
 80033b2:	687b      	ldr	r3, [r7, #4]
 80033b4:	681b      	ldr	r3, [r3, #0]
 80033b6:	68da      	ldr	r2, [r3, #12]
 80033b8:	23c0      	movs	r3, #192	; 0xc0
 80033ba:	011b      	lsls	r3, r3, #4
 80033bc:	4013      	ands	r3, r2
 80033be:	d12e      	bne.n	800341e <HAL_ADC_PollForConversion+0x11a>
     (hadc->Init.ContinuousConvMode == DISABLE)   )
 80033c0:	687b      	ldr	r3, [r7, #4]
 80033c2:	2220      	movs	r2, #32
 80033c4:	5c9b      	ldrb	r3, [r3, r2]
  if(ADC_IS_SOFTWARE_START_REGULAR(hadc)        && 
 80033c6:	2b00      	cmp	r3, #0
 80033c8:	d129      	bne.n	800341e <HAL_ADC_PollForConversion+0x11a>
  {
    /* If End of Sequence is reached, disable interrupts */
    if( __HAL_ADC_GET_FLAG(hadc, ADC_FLAG_EOS) )
 80033ca:	687b      	ldr	r3, [r7, #4]
 80033cc:	681b      	ldr	r3, [r3, #0]
 80033ce:	681b      	ldr	r3, [r3, #0]
 80033d0:	2208      	movs	r2, #8
 80033d2:	4013      	ands	r3, r2
 80033d4:	2b08      	cmp	r3, #8
 80033d6:	d122      	bne.n	800341e <HAL_ADC_PollForConversion+0x11a>
    {
      /* Allowed to modify bits ADC_IT_EOC/ADC_IT_EOS only if bit             */
      /* ADSTART==0 (no conversion on going)                                  */
      if (ADC_IS_CONVERSION_ONGOING_REGULAR(hadc) == RESET)
 80033d8:	687b      	ldr	r3, [r7, #4]
 80033da:	681b      	ldr	r3, [r3, #0]
 80033dc:	689b      	ldr	r3, [r3, #8]
 80033de:	2204      	movs	r2, #4
 80033e0:	4013      	ands	r3, r2
 80033e2:	d110      	bne.n	8003406 <HAL_ADC_PollForConversion+0x102>
      {
        /* Disable ADC end of single conversion interrupt on group regular */
        /* Note: Overrun interrupt was enabled with EOC interrupt in          */
        /* HAL_Start_IT(), but is not disabled here because can be used       */
        /* by overrun IRQ process below.                                      */
        __HAL_ADC_DISABLE_IT(hadc, ADC_IT_EOC | ADC_IT_EOS);
 80033e4:	687b      	ldr	r3, [r7, #4]
 80033e6:	681b      	ldr	r3, [r3, #0]
 80033e8:	685a      	ldr	r2, [r3, #4]
 80033ea:	687b      	ldr	r3, [r7, #4]
 80033ec:	681b      	ldr	r3, [r3, #0]
 80033ee:	210c      	movs	r1, #12
 80033f0:	438a      	bics	r2, r1
 80033f2:	605a      	str	r2, [r3, #4]
        
        /* Set ADC state */
        ADC_STATE_CLR_SET(hadc->State,
 80033f4:	687b      	ldr	r3, [r7, #4]
 80033f6:	6d5b      	ldr	r3, [r3, #84]	; 0x54
 80033f8:	4a0f      	ldr	r2, [pc, #60]	; (8003438 <HAL_ADC_PollForConversion+0x134>)
 80033fa:	4013      	ands	r3, r2
 80033fc:	2201      	movs	r2, #1
 80033fe:	431a      	orrs	r2, r3
 8003400:	687b      	ldr	r3, [r7, #4]
 8003402:	655a      	str	r2, [r3, #84]	; 0x54
 8003404:	e00b      	b.n	800341e <HAL_ADC_PollForConversion+0x11a>
                          HAL_ADC_STATE_READY);
      }
      else
      {
        /* Change ADC state to error state */
        SET_BIT(hadc->State, HAL_ADC_STATE_ERROR_CONFIG);
 8003406:	687b      	ldr	r3, [r7, #4]
 8003408:	6d5b      	ldr	r3, [r3, #84]	; 0x54
 800340a:	2220      	movs	r2, #32
 800340c:	431a      	orrs	r2, r3
 800340e:	687b      	ldr	r3, [r7, #4]
 8003410:	655a      	str	r2, [r3, #84]	; 0x54
        
        /* Set ADC error code to ADC peripheral internal error */
        SET_BIT(hadc->ErrorCode, HAL_ADC_ERROR_INTERNAL);
 8003412:	687b      	ldr	r3, [r7, #4]
 8003414:	6d9b      	ldr	r3, [r3, #88]	; 0x58
 8003416:	2201      	movs	r2, #1
 8003418:	431a      	orrs	r2, r3
 800341a:	687b      	ldr	r3, [r7, #4]
 800341c:	659a      	str	r2, [r3, #88]	; 0x58
  }
  
  /* Clear end of conversion flag of regular group if low power feature       */
  /* "LowPowerAutoWait " is disabled, to not interfere with this feature      */
  /* until data register is read using function HAL_ADC_GetValue().           */
  if (hadc->Init.LowPowerAutoWait == DISABLE)
 800341e:	687b      	ldr	r3, [r7, #4]
 8003420:	699b      	ldr	r3, [r3, #24]
 8003422:	2b00      	cmp	r3, #0
 8003424:	d103      	bne.n	800342e <HAL_ADC_PollForConversion+0x12a>
  {
    /* Clear regular group conversion flag */
    __HAL_ADC_CLEAR_FLAG(hadc, (ADC_FLAG_EOC | ADC_FLAG_EOS));
 8003426:	687b      	ldr	r3, [r7, #4]
 8003428:	681b      	ldr	r3, [r3, #0]
 800342a:	220c      	movs	r2, #12
 800342c:	601a      	str	r2, [r3, #0]
  }
  
  /* Return function status */
  return HAL_OK;
 800342e:	2300      	movs	r3, #0
}
 8003430:	0018      	movs	r0, r3
 8003432:	46bd      	mov	sp, r7
 8003434:	b004      	add	sp, #16
 8003436:	bd80      	pop	{r7, pc}
 8003438:	fffffefe 	.word	0xfffffefe

0800343c <HAL_ADC_GetValue>:
  *         or @ref __HAL_ADC_CLEAR_FLAG(&hadc, ADC_FLAG_EOS).
  * @param  hadc ADC handle
  * @retval ADC group regular conversion data
  */
uint32_t HAL_ADC_GetValue(ADC_HandleTypeDef* hadc)
{
 800343c:	b580      	push	{r7, lr}
 800343e:	b082      	sub	sp, #8
 8003440:	af00      	add	r7, sp, #0
 8003442:	6078      	str	r0, [r7, #4]

  /* Note: EOC flag is not cleared here by software because automatically     */
  /*       cleared by hardware when reading register DR.                      */
  
  /* Return ADC converted value */ 
  return hadc->Instance->DR;
 8003444:	687b      	ldr	r3, [r7, #4]
 8003446:	681b      	ldr	r3, [r3, #0]
 8003448:	6c1b      	ldr	r3, [r3, #64]	; 0x40
}
 800344a:	0018      	movs	r0, r3
 800344c:	46bd      	mov	sp, r7
 800344e:	b002      	add	sp, #8
 8003450:	bd80      	pop	{r7, pc}
	...

08003454 <HAL_ADC_ConfigChannel>:
  * @param  hadc ADC handle
  * @param  sConfig Structure of ADC channel assigned to ADC group regular.
  * @retval HAL status
  */
HAL_StatusTypeDef HAL_ADC_ConfigChannel(ADC_HandleTypeDef* hadc, ADC_ChannelConfTypeDef* sConfig)
{
 8003454:	b580      	push	{r7, lr}
 8003456:	b082      	sub	sp, #8
 8003458:	af00      	add	r7, sp, #0
 800345a:	6078      	str	r0, [r7, #4]
 800345c:	6039      	str	r1, [r7, #0]
  assert_param(IS_ADC_ALL_INSTANCE(hadc->Instance));
  assert_param(IS_ADC_CHANNEL(sConfig->Channel));
  assert_param(IS_ADC_RANK(sConfig->Rank));
  
  /* Process locked */
  __HAL_LOCK(hadc);
 800345e:	687b      	ldr	r3, [r7, #4]
 8003460:	2250      	movs	r2, #80	; 0x50
 8003462:	5c9b      	ldrb	r3, [r3, r2]
 8003464:	2b01      	cmp	r3, #1
 8003466:	d101      	bne.n	800346c <HAL_ADC_ConfigChannel+0x18>
 8003468:	2302      	movs	r3, #2
 800346a:	e050      	b.n	800350e <HAL_ADC_ConfigChannel+0xba>
 800346c:	687b      	ldr	r3, [r7, #4]
 800346e:	2250      	movs	r2, #80	; 0x50
 8003470:	2101      	movs	r1, #1
 8003472:	5499      	strb	r1, [r3, r2]
  /* Parameters update conditioned to ADC state:                              */
  /* Parameters that can be updated when ADC is disabled or enabled without   */
  /* conversion on going on regular group:                                    */
  /*  - Channel number                                                        */
  /*  - Management of internal measurement channels: Vbat/VrefInt/TempSensor  */
  if (ADC_IS_CONVERSION_ONGOING_REGULAR(hadc) != RESET)
 8003474:	687b      	ldr	r3, [r7, #4]
 8003476:	681b      	ldr	r3, [r3, #0]
 8003478:	689b      	ldr	r3, [r3, #8]
 800347a:	2204      	movs	r2, #4
 800347c:	4013      	ands	r3, r2
 800347e:	d00b      	beq.n	8003498 <HAL_ADC_ConfigChannel+0x44>
  {
    /* Update ADC state machine to error */
    SET_BIT(hadc->State, HAL_ADC_STATE_ERROR_CONFIG);
 8003480:	687b      	ldr	r3, [r7, #4]
 8003482:	6d5b      	ldr	r3, [r3, #84]	; 0x54
 8003484:	2220      	movs	r2, #32
 8003486:	431a      	orrs	r2, r3
 8003488:	687b      	ldr	r3, [r7, #4]
 800348a:	655a      	str	r2, [r3, #84]	; 0x54
    /* Process unlocked */
    __HAL_UNLOCK(hadc);
 800348c:	687b      	ldr	r3, [r7, #4]
 800348e:	2250      	movs	r2, #80	; 0x50
 8003490:	2100      	movs	r1, #0
 8003492:	5499      	strb	r1, [r3, r2]
    return HAL_ERROR;
 8003494:	2301      	movs	r3, #1
 8003496:	e03a      	b.n	800350e <HAL_ADC_ConfigChannel+0xba>
  }
  
  if (sConfig->Rank != ADC_RANK_NONE)
 8003498:	683b      	ldr	r3, [r7, #0]
 800349a:	685b      	ldr	r3, [r3, #4]
 800349c:	4a1e      	ldr	r2, [pc, #120]	; (8003518 <HAL_ADC_ConfigChannel+0xc4>)
 800349e:	4293      	cmp	r3, r2
 80034a0:	d018      	beq.n	80034d4 <HAL_ADC_ConfigChannel+0x80>
  {
    /* Enable selected channels */
    hadc->Instance->CHSELR |= (uint32_t)(sConfig->Channel & ADC_CHANNEL_MASK);
 80034a2:	687b      	ldr	r3, [r7, #4]
 80034a4:	681b      	ldr	r3, [r3, #0]
 80034a6:	6a99      	ldr	r1, [r3, #40]	; 0x28
 80034a8:	683b      	ldr	r3, [r7, #0]
 80034aa:	681b      	ldr	r3, [r3, #0]
 80034ac:	035b      	lsls	r3, r3, #13
 80034ae:	0b5a      	lsrs	r2, r3, #13
 80034b0:	687b      	ldr	r3, [r7, #4]
 80034b2:	681b      	ldr	r3, [r3, #0]
 80034b4:	430a      	orrs	r2, r1
 80034b6:	629a      	str	r2, [r3, #40]	; 0x28
      ADC_DelayMicroSecond(ADC_TEMPSENSOR_DELAY_US);
    }
    #endif
    
    /* If VRefInt channel is selected, then enable the internal buffers and path   */
    if (((sConfig->Channel & ADC_CHANNEL_MASK) & ADC_CHANNEL_VREFINT) == (ADC_CHANNEL_VREFINT & ADC_CHANNEL_MASK))
 80034b8:	683b      	ldr	r3, [r7, #0]
 80034ba:	681a      	ldr	r2, [r3, #0]
 80034bc:	2380      	movs	r3, #128	; 0x80
 80034be:	029b      	lsls	r3, r3, #10
 80034c0:	4013      	ands	r3, r2
 80034c2:	d01f      	beq.n	8003504 <HAL_ADC_ConfigChannel+0xb0>
    {
      ADC->CCR |= ADC_CCR_VREFEN;   
 80034c4:	4b15      	ldr	r3, [pc, #84]	; (800351c <HAL_ADC_ConfigChannel+0xc8>)
 80034c6:	681a      	ldr	r2, [r3, #0]
 80034c8:	4b14      	ldr	r3, [pc, #80]	; (800351c <HAL_ADC_ConfigChannel+0xc8>)
 80034ca:	2180      	movs	r1, #128	; 0x80
 80034cc:	03c9      	lsls	r1, r1, #15
 80034ce:	430a      	orrs	r2, r1
 80034d0:	601a      	str	r2, [r3, #0]
 80034d2:	e017      	b.n	8003504 <HAL_ADC_ConfigChannel+0xb0>
  }
  else
  {
    /* Regular sequence configuration */
    /* Reset the channel selection register from the selected channel */
    hadc->Instance->CHSELR &= ~((uint32_t)(sConfig->Channel & ADC_CHANNEL_MASK));
 80034d4:	687b      	ldr	r3, [r7, #4]
 80034d6:	681b      	ldr	r3, [r3, #0]
 80034d8:	6a9a      	ldr	r2, [r3, #40]	; 0x28
 80034da:	683b      	ldr	r3, [r7, #0]
 80034dc:	681b      	ldr	r3, [r3, #0]
 80034de:	035b      	lsls	r3, r3, #13
 80034e0:	0b5b      	lsrs	r3, r3, #13
 80034e2:	43d9      	mvns	r1, r3
 80034e4:	687b      	ldr	r3, [r7, #4]
 80034e6:	681b      	ldr	r3, [r3, #0]
 80034e8:	400a      	ands	r2, r1
 80034ea:	629a      	str	r2, [r3, #40]	; 0x28
      ADC->CCR &= ~ADC_CCR_TSEN;   
    }
    #endif
    
    /* If VRefInt channel is selected, then enable the internal buffers and path   */
    if (((sConfig->Channel & ADC_CHANNEL_MASK) & ADC_CHANNEL_VREFINT) == (ADC_CHANNEL_VREFINT & ADC_CHANNEL_MASK))
 80034ec:	683b      	ldr	r3, [r7, #0]
 80034ee:	681a      	ldr	r2, [r3, #0]
 80034f0:	2380      	movs	r3, #128	; 0x80
 80034f2:	029b      	lsls	r3, r3, #10
 80034f4:	4013      	ands	r3, r2
 80034f6:	d005      	beq.n	8003504 <HAL_ADC_ConfigChannel+0xb0>
    {
      ADC->CCR &= ~ADC_CCR_VREFEN;   
 80034f8:	4b08      	ldr	r3, [pc, #32]	; (800351c <HAL_ADC_ConfigChannel+0xc8>)
 80034fa:	681a      	ldr	r2, [r3, #0]
 80034fc:	4b07      	ldr	r3, [pc, #28]	; (800351c <HAL_ADC_ConfigChannel+0xc8>)
 80034fe:	4908      	ldr	r1, [pc, #32]	; (8003520 <HAL_ADC_ConfigChannel+0xcc>)
 8003500:	400a      	ands	r2, r1
 8003502:	601a      	str	r2, [r3, #0]
    }
#endif
  }
  
  /* Process unlocked */
  __HAL_UNLOCK(hadc);
 8003504:	687b      	ldr	r3, [r7, #4]
 8003506:	2250      	movs	r2, #80	; 0x50
 8003508:	2100      	movs	r1, #0
 800350a:	5499      	strb	r1, [r3, r2]
  
  /* Return function status */
  return HAL_OK;
 800350c:	2300      	movs	r3, #0
}
 800350e:	0018      	movs	r0, r3
 8003510:	46bd      	mov	sp, r7
 8003512:	b002      	add	sp, #8
 8003514:	bd80      	pop	{r7, pc}
 8003516:	46c0      	nop			; (mov r8, r8)
 8003518:	00001001 	.word	0x00001001
 800351c:	40012708 	.word	0x40012708
 8003520:	ffbfffff 	.word	0xffbfffff

08003524 <ADC_Enable>:
  *         "if (hadc->Init.LowPowerAutoPowerOff != ENABLE)".
  * @param  hadc ADC handle
  * @retval HAL status.
  */
static HAL_StatusTypeDef ADC_Enable(ADC_HandleTypeDef* hadc)
{
 8003524:	b580      	push	{r7, lr}
 8003526:	b084      	sub	sp, #16
 8003528:	af00      	add	r7, sp, #0
 800352a:	6078      	str	r0, [r7, #4]
  uint32_t tickstart = 0U;
 800352c:	2300      	movs	r3, #0
 800352e:	60fb      	str	r3, [r7, #12]

  /* ADC enable and wait for ADC ready (in case of ADC is disabled or         */
  /* enabling phase not yet completed: flag ADC ready not yet set).           */
  /* Timeout implemented to not be stuck if ADC cannot be enabled (possible   */
  /* causes: ADC clock not running, ...).                                     */
  if (ADC_IS_ENABLE(hadc) == RESET)
 8003530:	687b      	ldr	r3, [r7, #4]
 8003532:	681b      	ldr	r3, [r3, #0]
 8003534:	689b      	ldr	r3, [r3, #8]
 8003536:	2203      	movs	r2, #3
 8003538:	4013      	ands	r3, r2
 800353a:	2b01      	cmp	r3, #1
 800353c:	d108      	bne.n	8003550 <ADC_Enable+0x2c>
 800353e:	687b      	ldr	r3, [r7, #4]
 8003540:	681b      	ldr	r3, [r3, #0]
 8003542:	681b      	ldr	r3, [r3, #0]
 8003544:	2201      	movs	r2, #1
 8003546:	4013      	ands	r3, r2
 8003548:	2b01      	cmp	r3, #1
 800354a:	d101      	bne.n	8003550 <ADC_Enable+0x2c>
 800354c:	2301      	movs	r3, #1
 800354e:	e000      	b.n	8003552 <ADC_Enable+0x2e>
 8003550:	2300      	movs	r3, #0
 8003552:	2b00      	cmp	r3, #0
 8003554:	d146      	bne.n	80035e4 <ADC_Enable+0xc0>
  {
    /* Check if conditions to enable the ADC are fulfilled */
    if (ADC_ENABLING_CONDITIONS(hadc) == RESET)
 8003556:	687b      	ldr	r3, [r7, #4]
 8003558:	681b      	ldr	r3, [r3, #0]
 800355a:	689b      	ldr	r3, [r3, #8]
 800355c:	4a24      	ldr	r2, [pc, #144]	; (80035f0 <ADC_Enable+0xcc>)
 800355e:	4013      	ands	r3, r2
 8003560:	d00d      	beq.n	800357e <ADC_Enable+0x5a>
    {
      /* Update ADC state machine to error */
      SET_BIT(hadc->State, HAL_ADC_STATE_ERROR_INTERNAL);
 8003562:	687b      	ldr	r3, [r7, #4]
 8003564:	6d5b      	ldr	r3, [r3, #84]	; 0x54
 8003566:	2210      	movs	r2, #16
 8003568:	431a      	orrs	r2, r3
 800356a:	687b      	ldr	r3, [r7, #4]
 800356c:	655a      	str	r2, [r3, #84]	; 0x54
      
      /* Set ADC error code to ADC peripheral internal error */
      SET_BIT(hadc->ErrorCode, HAL_ADC_ERROR_INTERNAL);
 800356e:	687b      	ldr	r3, [r7, #4]
 8003570:	6d9b      	ldr	r3, [r3, #88]	; 0x58
 8003572:	2201      	movs	r2, #1
 8003574:	431a      	orrs	r2, r3
 8003576:	687b      	ldr	r3, [r7, #4]
 8003578:	659a      	str	r2, [r3, #88]	; 0x58
      
      return HAL_ERROR;
 800357a:	2301      	movs	r3, #1
 800357c:	e033      	b.n	80035e6 <ADC_Enable+0xc2>
    }
    
    /* Enable the ADC peripheral */
    __HAL_ADC_ENABLE(hadc);
 800357e:	687b      	ldr	r3, [r7, #4]
 8003580:	681b      	ldr	r3, [r3, #0]
 8003582:	689a      	ldr	r2, [r3, #8]
 8003584:	687b      	ldr	r3, [r7, #4]
 8003586:	681b      	ldr	r3, [r3, #0]
 8003588:	2101      	movs	r1, #1
 800358a:	430a      	orrs	r2, r1
 800358c:	609a      	str	r2, [r3, #8]
    
    /* Delay for ADC stabilization time. */
    ADC_DelayMicroSecond(ADC_STAB_DELAY_US);
 800358e:	2001      	movs	r0, #1
 8003590:	f000 f8e4 	bl	800375c <ADC_DelayMicroSecond>

    /* Get tick count */
    tickstart = HAL_GetTick();
 8003594:	f7ff fbdc 	bl	8002d50 <HAL_GetTick>
 8003598:	0003      	movs	r3, r0
 800359a:	60fb      	str	r3, [r7, #12]
    
    /* Wait for ADC effectively enabled */
    while(__HAL_ADC_GET_FLAG(hadc, ADC_FLAG_RDY) == RESET)
 800359c:	e01b      	b.n	80035d6 <ADC_Enable+0xb2>
    {
      if((HAL_GetTick() - tickstart) > ADC_ENABLE_TIMEOUT)
 800359e:	f7ff fbd7 	bl	8002d50 <HAL_GetTick>
 80035a2:	0002      	movs	r2, r0
 80035a4:	68fb      	ldr	r3, [r7, #12]
 80035a6:	1ad3      	subs	r3, r2, r3
 80035a8:	2b0a      	cmp	r3, #10
 80035aa:	d914      	bls.n	80035d6 <ADC_Enable+0xb2>
      {
        /* New check to avoid false timeout detection in case of preemption */
        if(__HAL_ADC_GET_FLAG(hadc, ADC_FLAG_RDY) == RESET)
 80035ac:	687b      	ldr	r3, [r7, #4]
 80035ae:	681b      	ldr	r3, [r3, #0]
 80035b0:	681b      	ldr	r3, [r3, #0]
 80035b2:	2201      	movs	r2, #1
 80035b4:	4013      	ands	r3, r2
 80035b6:	2b01      	cmp	r3, #1
 80035b8:	d00d      	beq.n	80035d6 <ADC_Enable+0xb2>
        {
          /* Update ADC state machine to error */
          SET_BIT(hadc->State, HAL_ADC_STATE_ERROR_INTERNAL);
 80035ba:	687b      	ldr	r3, [r7, #4]
 80035bc:	6d5b      	ldr	r3, [r3, #84]	; 0x54
 80035be:	2210      	movs	r2, #16
 80035c0:	431a      	orrs	r2, r3
 80035c2:	687b      	ldr	r3, [r7, #4]
 80035c4:	655a      	str	r2, [r3, #84]	; 0x54

          /* Set ADC error code to ADC peripheral internal error */
          SET_BIT(hadc->ErrorCode, HAL_ADC_ERROR_INTERNAL);
 80035c6:	687b      	ldr	r3, [r7, #4]
 80035c8:	6d9b      	ldr	r3, [r3, #88]	; 0x58
 80035ca:	2201      	movs	r2, #1
 80035cc:	431a      	orrs	r2, r3
 80035ce:	687b      	ldr	r3, [r7, #4]
 80035d0:	659a      	str	r2, [r3, #88]	; 0x58

          return HAL_ERROR;
 80035d2:	2301      	movs	r3, #1
 80035d4:	e007      	b.n	80035e6 <ADC_Enable+0xc2>
    while(__HAL_ADC_GET_FLAG(hadc, ADC_FLAG_RDY) == RESET)
 80035d6:	687b      	ldr	r3, [r7, #4]
 80035d8:	681b      	ldr	r3, [r3, #0]
 80035da:	681b      	ldr	r3, [r3, #0]
 80035dc:	2201      	movs	r2, #1
 80035de:	4013      	ands	r3, r2
 80035e0:	2b01      	cmp	r3, #1
 80035e2:	d1dc      	bne.n	800359e <ADC_Enable+0x7a>
      }
    }
  }
   
  /* Return HAL status */
  return HAL_OK;
 80035e4:	2300      	movs	r3, #0
}
 80035e6:	0018      	movs	r0, r3
 80035e8:	46bd      	mov	sp, r7
 80035ea:	b004      	add	sp, #16
 80035ec:	bd80      	pop	{r7, pc}
 80035ee:	46c0      	nop			; (mov r8, r8)
 80035f0:	80000017 	.word	0x80000017

080035f4 <ADC_Disable>:
  *         stopped.
  * @param  hadc ADC handle
  * @retval HAL status.
  */
static HAL_StatusTypeDef ADC_Disable(ADC_HandleTypeDef* hadc)
{
 80035f4:	b580      	push	{r7, lr}
 80035f6:	b084      	sub	sp, #16
 80035f8:	af00      	add	r7, sp, #0
 80035fa:	6078      	str	r0, [r7, #4]
  uint32_t tickstart = 0U;
 80035fc:	2300      	movs	r3, #0
 80035fe:	60fb      	str	r3, [r7, #12]
  
  /* Verification if ADC is not already disabled:                             */
  /* Note: forbidden to disable ADC (set bit ADC_CR_ADDIS) if ADC is already  */
  /*       disabled.                                                          */
  if (ADC_IS_ENABLE(hadc) != RESET)
 8003600:	687b      	ldr	r3, [r7, #4]
 8003602:	681b      	ldr	r3, [r3, #0]
 8003604:	689b      	ldr	r3, [r3, #8]
 8003606:	2203      	movs	r2, #3
 8003608:	4013      	ands	r3, r2
 800360a:	2b01      	cmp	r3, #1
 800360c:	d108      	bne.n	8003620 <ADC_Disable+0x2c>
 800360e:	687b      	ldr	r3, [r7, #4]
 8003610:	681b      	ldr	r3, [r3, #0]
 8003612:	681b      	ldr	r3, [r3, #0]
 8003614:	2201      	movs	r2, #1
 8003616:	4013      	ands	r3, r2
 8003618:	2b01      	cmp	r3, #1
 800361a:	d101      	bne.n	8003620 <ADC_Disable+0x2c>
 800361c:	2301      	movs	r3, #1
 800361e:	e000      	b.n	8003622 <ADC_Disable+0x2e>
 8003620:	2300      	movs	r3, #0
 8003622:	2b00      	cmp	r3, #0
 8003624:	d048      	beq.n	80036b8 <ADC_Disable+0xc4>
  {
    /* Check if conditions to disable the ADC are fulfilled */
    if (ADC_DISABLING_CONDITIONS(hadc) != RESET)
 8003626:	687b      	ldr	r3, [r7, #4]
 8003628:	681b      	ldr	r3, [r3, #0]
 800362a:	689b      	ldr	r3, [r3, #8]
 800362c:	2205      	movs	r2, #5
 800362e:	4013      	ands	r3, r2
 8003630:	2b01      	cmp	r3, #1
 8003632:	d110      	bne.n	8003656 <ADC_Disable+0x62>
    {
      /* Disable the ADC peripheral */
      __HAL_ADC_DISABLE(hadc);
 8003634:	687b      	ldr	r3, [r7, #4]
 8003636:	681b      	ldr	r3, [r3, #0]
 8003638:	689a      	ldr	r2, [r3, #8]
 800363a:	687b      	ldr	r3, [r7, #4]
 800363c:	681b      	ldr	r3, [r3, #0]
 800363e:	2102      	movs	r1, #2
 8003640:	430a      	orrs	r2, r1
 8003642:	609a      	str	r2, [r3, #8]
 8003644:	687b      	ldr	r3, [r7, #4]
 8003646:	681b      	ldr	r3, [r3, #0]
 8003648:	2203      	movs	r2, #3
 800364a:	601a      	str	r2, [r3, #0]
      return HAL_ERROR;
    }
     
    /* Wait for ADC effectively disabled */
    /* Get tick count */
    tickstart = HAL_GetTick();
 800364c:	f7ff fb80 	bl	8002d50 <HAL_GetTick>
 8003650:	0003      	movs	r3, r0
 8003652:	60fb      	str	r3, [r7, #12]
    
    while(HAL_IS_BIT_SET(hadc->Instance->CR, ADC_CR_ADEN))
 8003654:	e029      	b.n	80036aa <ADC_Disable+0xb6>
      SET_BIT(hadc->State, HAL_ADC_STATE_ERROR_INTERNAL);
 8003656:	687b      	ldr	r3, [r7, #4]
 8003658:	6d5b      	ldr	r3, [r3, #84]	; 0x54
 800365a:	2210      	movs	r2, #16
 800365c:	431a      	orrs	r2, r3
 800365e:	687b      	ldr	r3, [r7, #4]
 8003660:	655a      	str	r2, [r3, #84]	; 0x54
      SET_BIT(hadc->ErrorCode, HAL_ADC_ERROR_INTERNAL);
 8003662:	687b      	ldr	r3, [r7, #4]
 8003664:	6d9b      	ldr	r3, [r3, #88]	; 0x58
 8003666:	2201      	movs	r2, #1
 8003668:	431a      	orrs	r2, r3
 800366a:	687b      	ldr	r3, [r7, #4]
 800366c:	659a      	str	r2, [r3, #88]	; 0x58
      return HAL_ERROR;
 800366e:	2301      	movs	r3, #1
 8003670:	e023      	b.n	80036ba <ADC_Disable+0xc6>
    {
      if((HAL_GetTick() - tickstart) > ADC_DISABLE_TIMEOUT)
 8003672:	f7ff fb6d 	bl	8002d50 <HAL_GetTick>
 8003676:	0002      	movs	r2, r0
 8003678:	68fb      	ldr	r3, [r7, #12]
 800367a:	1ad3      	subs	r3, r2, r3
 800367c:	2b0a      	cmp	r3, #10
 800367e:	d914      	bls.n	80036aa <ADC_Disable+0xb6>
      {
        /* New check to avoid false timeout detection in case of preemption */
        if(HAL_IS_BIT_SET(hadc->Instance->CR, ADC_CR_ADEN))
 8003680:	687b      	ldr	r3, [r7, #4]
 8003682:	681b      	ldr	r3, [r3, #0]
 8003684:	689b      	ldr	r3, [r3, #8]
 8003686:	2201      	movs	r2, #1
 8003688:	4013      	ands	r3, r2
 800368a:	2b01      	cmp	r3, #1
 800368c:	d10d      	bne.n	80036aa <ADC_Disable+0xb6>
        {
          /* Update ADC state machine to error */
          SET_BIT(hadc->State, HAL_ADC_STATE_ERROR_INTERNAL);
 800368e:	687b      	ldr	r3, [r7, #4]
 8003690:	6d5b      	ldr	r3, [r3, #84]	; 0x54
 8003692:	2210      	movs	r2, #16
 8003694:	431a      	orrs	r2, r3
 8003696:	687b      	ldr	r3, [r7, #4]
 8003698:	655a      	str	r2, [r3, #84]	; 0x54

          /* Set ADC error code to ADC peripheral internal error */
          SET_BIT(hadc->ErrorCode, HAL_ADC_ERROR_INTERNAL);
 800369a:	687b      	ldr	r3, [r7, #4]
 800369c:	6d9b      	ldr	r3, [r3, #88]	; 0x58
 800369e:	2201      	movs	r2, #1
 80036a0:	431a      	orrs	r2, r3
 80036a2:	687b      	ldr	r3, [r7, #4]
 80036a4:	659a      	str	r2, [r3, #88]	; 0x58

          return HAL_ERROR;
 80036a6:	2301      	movs	r3, #1
 80036a8:	e007      	b.n	80036ba <ADC_Disable+0xc6>
    while(HAL_IS_BIT_SET(hadc->Instance->CR, ADC_CR_ADEN))
 80036aa:	687b      	ldr	r3, [r7, #4]
 80036ac:	681b      	ldr	r3, [r3, #0]
 80036ae:	689b      	ldr	r3, [r3, #8]
 80036b0:	2201      	movs	r2, #1
 80036b2:	4013      	ands	r3, r2
 80036b4:	2b01      	cmp	r3, #1
 80036b6:	d0dc      	beq.n	8003672 <ADC_Disable+0x7e>
      }
    }
  }
  
  /* Return HAL status */
  return HAL_OK;
 80036b8:	2300      	movs	r3, #0
}
 80036ba:	0018      	movs	r0, r3
 80036bc:	46bd      	mov	sp, r7
 80036be:	b004      	add	sp, #16
 80036c0:	bd80      	pop	{r7, pc}

080036c2 <ADC_ConversionStop>:
  *         stopped to disable the ADC.
  * @param  hadc ADC handle
  * @retval HAL status.
  */
static HAL_StatusTypeDef ADC_ConversionStop(ADC_HandleTypeDef* hadc)
{
 80036c2:	b580      	push	{r7, lr}
 80036c4:	b084      	sub	sp, #16
 80036c6:	af00      	add	r7, sp, #0
 80036c8:	6078      	str	r0, [r7, #4]
  uint32_t tickstart = 0U;
 80036ca:	2300      	movs	r3, #0
 80036cc:	60fb      	str	r3, [r7, #12]
  /* Check the parameters */
  assert_param(IS_ADC_ALL_INSTANCE(hadc->Instance));
    
  /* Verification if ADC is not already stopped on regular group to bypass    */
  /* this function if not needed.                                             */
  if (ADC_IS_CONVERSION_ONGOING_REGULAR(hadc))
 80036ce:	687b      	ldr	r3, [r7, #4]
 80036d0:	681b      	ldr	r3, [r3, #0]
 80036d2:	689b      	ldr	r3, [r3, #8]
 80036d4:	2204      	movs	r2, #4
 80036d6:	4013      	ands	r3, r2
 80036d8:	d03a      	beq.n	8003750 <ADC_ConversionStop+0x8e>
  {
    
    /* Stop potential conversion on going on regular group */
    /* Software is allowed to set ADSTP only when ADSTART=1 and ADDIS=0 */
    if (HAL_IS_BIT_SET(hadc->Instance->CR, ADC_CR_ADSTART) && 
 80036da:	687b      	ldr	r3, [r7, #4]
 80036dc:	681b      	ldr	r3, [r3, #0]
 80036de:	689b      	ldr	r3, [r3, #8]
 80036e0:	2204      	movs	r2, #4
 80036e2:	4013      	ands	r3, r2
 80036e4:	2b04      	cmp	r3, #4
 80036e6:	d10d      	bne.n	8003704 <ADC_ConversionStop+0x42>
        HAL_IS_BIT_CLR(hadc->Instance->CR, ADC_CR_ADDIS)                  )
 80036e8:	687b      	ldr	r3, [r7, #4]
 80036ea:	681b      	ldr	r3, [r3, #0]
 80036ec:	689b      	ldr	r3, [r3, #8]
 80036ee:	2202      	movs	r2, #2
 80036f0:	4013      	ands	r3, r2
    if (HAL_IS_BIT_SET(hadc->Instance->CR, ADC_CR_ADSTART) && 
 80036f2:	d107      	bne.n	8003704 <ADC_ConversionStop+0x42>
    {
      /* Stop conversions on regular group */
      hadc->Instance->CR |= ADC_CR_ADSTP;
 80036f4:	687b      	ldr	r3, [r7, #4]
 80036f6:	681b      	ldr	r3, [r3, #0]
 80036f8:	689a      	ldr	r2, [r3, #8]
 80036fa:	687b      	ldr	r3, [r7, #4]
 80036fc:	681b      	ldr	r3, [r3, #0]
 80036fe:	2110      	movs	r1, #16
 8003700:	430a      	orrs	r2, r1
 8003702:	609a      	str	r2, [r3, #8]
    }
    
    /* Wait for conversion effectively stopped */
    /* Get tick count */
    tickstart = HAL_GetTick();
 8003704:	f7ff fb24 	bl	8002d50 <HAL_GetTick>
 8003708:	0003      	movs	r3, r0
 800370a:	60fb      	str	r3, [r7, #12]
      
    while((hadc->Instance->CR & ADC_CR_ADSTART) != RESET)
 800370c:	e01a      	b.n	8003744 <ADC_ConversionStop+0x82>
    {
      if((HAL_GetTick() - tickstart) > ADC_STOP_CONVERSION_TIMEOUT)
 800370e:	f7ff fb1f 	bl	8002d50 <HAL_GetTick>
 8003712:	0002      	movs	r2, r0
 8003714:	68fb      	ldr	r3, [r7, #12]
 8003716:	1ad3      	subs	r3, r2, r3
 8003718:	2b0a      	cmp	r3, #10
 800371a:	d913      	bls.n	8003744 <ADC_ConversionStop+0x82>
      {
        /* New check to avoid false timeout detection in case of preemption */
        if((hadc->Instance->CR & ADC_CR_ADSTART) != RESET)
 800371c:	687b      	ldr	r3, [r7, #4]
 800371e:	681b      	ldr	r3, [r3, #0]
 8003720:	689b      	ldr	r3, [r3, #8]
 8003722:	2204      	movs	r2, #4
 8003724:	4013      	ands	r3, r2
 8003726:	d00d      	beq.n	8003744 <ADC_ConversionStop+0x82>
        {
        /* Update ADC state machine to error */
        SET_BIT(hadc->State, HAL_ADC_STATE_ERROR_INTERNAL);
 8003728:	687b      	ldr	r3, [r7, #4]
 800372a:	6d5b      	ldr	r3, [r3, #84]	; 0x54
 800372c:	2210      	movs	r2, #16
 800372e:	431a      	orrs	r2, r3
 8003730:	687b      	ldr	r3, [r7, #4]
 8003732:	655a      	str	r2, [r3, #84]	; 0x54
      
        /* Set ADC error code to ADC peripheral internal error */
        SET_BIT(hadc->ErrorCode, HAL_ADC_ERROR_INTERNAL);
 8003734:	687b      	ldr	r3, [r7, #4]
 8003736:	6d9b      	ldr	r3, [r3, #88]	; 0x58
 8003738:	2201      	movs	r2, #1
 800373a:	431a      	orrs	r2, r3
 800373c:	687b      	ldr	r3, [r7, #4]
 800373e:	659a      	str	r2, [r3, #88]	; 0x58
        
        return HAL_ERROR;
 8003740:	2301      	movs	r3, #1
 8003742:	e006      	b.n	8003752 <ADC_ConversionStop+0x90>
    while((hadc->Instance->CR & ADC_CR_ADSTART) != RESET)
 8003744:	687b      	ldr	r3, [r7, #4]
 8003746:	681b      	ldr	r3, [r3, #0]
 8003748:	689b      	ldr	r3, [r3, #8]
 800374a:	2204      	movs	r2, #4
 800374c:	4013      	ands	r3, r2
 800374e:	d1de      	bne.n	800370e <ADC_ConversionStop+0x4c>
      }
    }
  }
   
  /* Return HAL status */
  return HAL_OK;
 8003750:	2300      	movs	r3, #0
}
 8003752:	0018      	movs	r0, r3
 8003754:	46bd      	mov	sp, r7
 8003756:	b004      	add	sp, #16
 8003758:	bd80      	pop	{r7, pc}
	...

0800375c <ADC_DelayMicroSecond>:
  * @brief  Delay micro seconds 
  * @param  microSecond  delay
  * @retval None
  */
static void ADC_DelayMicroSecond(uint32_t microSecond)
{
 800375c:	b580      	push	{r7, lr}
 800375e:	b084      	sub	sp, #16
 8003760:	af00      	add	r7, sp, #0
 8003762:	6078      	str	r0, [r7, #4]
  /* Compute number of CPU cycles to wait for */
  __IO uint32_t waitLoopIndex = (microSecond * (SystemCoreClock / 1000000U));
 8003764:	4b0b      	ldr	r3, [pc, #44]	; (8003794 <ADC_DelayMicroSecond+0x38>)
 8003766:	681b      	ldr	r3, [r3, #0]
 8003768:	490b      	ldr	r1, [pc, #44]	; (8003798 <ADC_DelayMicroSecond+0x3c>)
 800376a:	0018      	movs	r0, r3
 800376c:	f7fc fcde 	bl	800012c <__udivsi3>
 8003770:	0003      	movs	r3, r0
 8003772:	001a      	movs	r2, r3
 8003774:	687b      	ldr	r3, [r7, #4]
 8003776:	4353      	muls	r3, r2
 8003778:	60fb      	str	r3, [r7, #12]

  while(waitLoopIndex != 0U)
 800377a:	e002      	b.n	8003782 <ADC_DelayMicroSecond+0x26>
  {
    waitLoopIndex--;
 800377c:	68fb      	ldr	r3, [r7, #12]
 800377e:	3b01      	subs	r3, #1
 8003780:	60fb      	str	r3, [r7, #12]
  while(waitLoopIndex != 0U)
 8003782:	68fb      	ldr	r3, [r7, #12]
 8003784:	2b00      	cmp	r3, #0
 8003786:	d1f9      	bne.n	800377c <ADC_DelayMicroSecond+0x20>
  } 
}
 8003788:	46c0      	nop			; (mov r8, r8)
 800378a:	46c0      	nop			; (mov r8, r8)
 800378c:	46bd      	mov	sp, r7
 800378e:	b004      	add	sp, #16
 8003790:	bd80      	pop	{r7, pc}
 8003792:	46c0      	nop			; (mov r8, r8)
 8003794:	20000184 	.word	0x20000184
 8003798:	000f4240 	.word	0x000f4240

0800379c <HAL_ADCEx_Calibration_Start>:
  *          This parameter can be only of the following values:
  *            @arg ADC_SINGLE_ENDED: Channel in mode input single ended
  * @retval HAL status
  */
HAL_StatusTypeDef HAL_ADCEx_Calibration_Start(ADC_HandleTypeDef* hadc, uint32_t SingleDiff)
{
 800379c:	b580      	push	{r7, lr}
 800379e:	b086      	sub	sp, #24
 80037a0:	af00      	add	r7, sp, #0
 80037a2:	6078      	str	r0, [r7, #4]
 80037a4:	6039      	str	r1, [r7, #0]
  HAL_StatusTypeDef tmp_hal_status = HAL_OK;
 80037a6:	2317      	movs	r3, #23
 80037a8:	18fb      	adds	r3, r7, r3
 80037aa:	2200      	movs	r2, #0
 80037ac:	701a      	strb	r2, [r3, #0]
  uint32_t tickstart = 0U;
 80037ae:	2300      	movs	r3, #0
 80037b0:	613b      	str	r3, [r7, #16]
  uint32_t backup_setting_adc_dma_transfer = 0U; /* Note: Variable not declared as volatile because register read is already declared as volatile */
 80037b2:	2300      	movs	r3, #0
 80037b4:	60fb      	str	r3, [r7, #12]
  
  /* Check the parameters */
  assert_param(IS_ADC_ALL_INSTANCE(hadc->Instance));

  /* Process locked */
  __HAL_LOCK(hadc);
 80037b6:	687b      	ldr	r3, [r7, #4]
 80037b8:	2250      	movs	r2, #80	; 0x50
 80037ba:	5c9b      	ldrb	r3, [r3, r2]
 80037bc:	2b01      	cmp	r3, #1
 80037be:	d101      	bne.n	80037c4 <HAL_ADCEx_Calibration_Start+0x28>
 80037c0:	2302      	movs	r3, #2
 80037c2:	e083      	b.n	80038cc <HAL_ADCEx_Calibration_Start+0x130>
 80037c4:	687b      	ldr	r3, [r7, #4]
 80037c6:	2250      	movs	r2, #80	; 0x50
 80037c8:	2101      	movs	r1, #1
 80037ca:	5499      	strb	r1, [r3, r2]
  
  /* Calibration prerequisite: ADC must be disabled. */
  if (ADC_IS_ENABLE(hadc) == RESET)
 80037cc:	687b      	ldr	r3, [r7, #4]
 80037ce:	681b      	ldr	r3, [r3, #0]
 80037d0:	689b      	ldr	r3, [r3, #8]
 80037d2:	2203      	movs	r2, #3
 80037d4:	4013      	ands	r3, r2
 80037d6:	2b01      	cmp	r3, #1
 80037d8:	d108      	bne.n	80037ec <HAL_ADCEx_Calibration_Start+0x50>
 80037da:	687b      	ldr	r3, [r7, #4]
 80037dc:	681b      	ldr	r3, [r3, #0]
 80037de:	681b      	ldr	r3, [r3, #0]
 80037e0:	2201      	movs	r2, #1
 80037e2:	4013      	ands	r3, r2
 80037e4:	2b01      	cmp	r3, #1
 80037e6:	d101      	bne.n	80037ec <HAL_ADCEx_Calibration_Start+0x50>
 80037e8:	2301      	movs	r3, #1
 80037ea:	e000      	b.n	80037ee <HAL_ADCEx_Calibration_Start+0x52>
 80037ec:	2300      	movs	r3, #0
 80037ee:	2b00      	cmp	r3, #0
 80037f0:	d15b      	bne.n	80038aa <HAL_ADCEx_Calibration_Start+0x10e>
  {
    /* Set ADC state */
    ADC_STATE_CLR_SET(hadc->State, 
 80037f2:	687b      	ldr	r3, [r7, #4]
 80037f4:	6d5b      	ldr	r3, [r3, #84]	; 0x54
 80037f6:	4a37      	ldr	r2, [pc, #220]	; (80038d4 <HAL_ADCEx_Calibration_Start+0x138>)
 80037f8:	4013      	ands	r3, r2
 80037fa:	2202      	movs	r2, #2
 80037fc:	431a      	orrs	r2, r3
 80037fe:	687b      	ldr	r3, [r7, #4]
 8003800:	655a      	str	r2, [r3, #84]	; 0x54
    /* Note: Specificity of this STM32 serie: Calibration factor is           */
    /*       available in data register and also transfered by DMA.           */
    /*       To not insert ADC calibration factor among ADC conversion data   */
    /*       in array variable, DMA transfer must be disabled during          */
    /*       calibration.                                                     */
    backup_setting_adc_dma_transfer = READ_BIT(hadc->Instance->CFGR1, ADC_CFGR1_DMAEN | ADC_CFGR1_DMACFG);
 8003802:	687b      	ldr	r3, [r7, #4]
 8003804:	681b      	ldr	r3, [r3, #0]
 8003806:	68db      	ldr	r3, [r3, #12]
 8003808:	2203      	movs	r2, #3
 800380a:	4013      	ands	r3, r2
 800380c:	60fb      	str	r3, [r7, #12]
    CLEAR_BIT(hadc->Instance->CFGR1, ADC_CFGR1_DMAEN | ADC_CFGR1_DMACFG);
 800380e:	687b      	ldr	r3, [r7, #4]
 8003810:	681b      	ldr	r3, [r3, #0]
 8003812:	68da      	ldr	r2, [r3, #12]
 8003814:	687b      	ldr	r3, [r7, #4]
 8003816:	681b      	ldr	r3, [r3, #0]
 8003818:	2103      	movs	r1, #3
 800381a:	438a      	bics	r2, r1
 800381c:	60da      	str	r2, [r3, #12]
    
    /* Start ADC calibration */
    hadc->Instance->CR |= ADC_CR_ADCAL;
 800381e:	687b      	ldr	r3, [r7, #4]
 8003820:	681b      	ldr	r3, [r3, #0]
 8003822:	689a      	ldr	r2, [r3, #8]
 8003824:	687b      	ldr	r3, [r7, #4]
 8003826:	681b      	ldr	r3, [r3, #0]
 8003828:	2180      	movs	r1, #128	; 0x80
 800382a:	0609      	lsls	r1, r1, #24
 800382c:	430a      	orrs	r2, r1
 800382e:	609a      	str	r2, [r3, #8]
    
    tickstart = HAL_GetTick();  
 8003830:	f7ff fa8e 	bl	8002d50 <HAL_GetTick>
 8003834:	0003      	movs	r3, r0
 8003836:	613b      	str	r3, [r7, #16]
    
    /* Wait for calibration completion */
    while(HAL_IS_BIT_SET(hadc->Instance->CR, ADC_CR_ADCAL))
 8003838:	e01d      	b.n	8003876 <HAL_ADCEx_Calibration_Start+0xda>
    {
      if((HAL_GetTick() - tickstart) > ADC_CALIBRATION_TIMEOUT)
 800383a:	f7ff fa89 	bl	8002d50 <HAL_GetTick>
 800383e:	0002      	movs	r2, r0
 8003840:	693b      	ldr	r3, [r7, #16]
 8003842:	1ad3      	subs	r3, r2, r3
 8003844:	2b0a      	cmp	r3, #10
 8003846:	d916      	bls.n	8003876 <HAL_ADCEx_Calibration_Start+0xda>
      {
        /* New check to avoid false timeout detection in case of preemption */
        if(HAL_IS_BIT_SET(hadc->Instance->CR, ADC_CR_ADCAL))
 8003848:	687b      	ldr	r3, [r7, #4]
 800384a:	681b      	ldr	r3, [r3, #0]
 800384c:	689b      	ldr	r3, [r3, #8]
 800384e:	0fdb      	lsrs	r3, r3, #31
 8003850:	07da      	lsls	r2, r3, #31
 8003852:	2380      	movs	r3, #128	; 0x80
 8003854:	061b      	lsls	r3, r3, #24
 8003856:	429a      	cmp	r2, r3
 8003858:	d10d      	bne.n	8003876 <HAL_ADCEx_Calibration_Start+0xda>
        {
          /* Update ADC state machine to error */
          ADC_STATE_CLR_SET(hadc->State,
 800385a:	687b      	ldr	r3, [r7, #4]
 800385c:	6d5b      	ldr	r3, [r3, #84]	; 0x54
 800385e:	2212      	movs	r2, #18
 8003860:	4393      	bics	r3, r2
 8003862:	2210      	movs	r2, #16
 8003864:	431a      	orrs	r2, r3
 8003866:	687b      	ldr	r3, [r7, #4]
 8003868:	655a      	str	r2, [r3, #84]	; 0x54
                            HAL_ADC_STATE_BUSY_INTERNAL,
                            HAL_ADC_STATE_ERROR_INTERNAL);

          /* Process unlocked */
          __HAL_UNLOCK(hadc);
 800386a:	687b      	ldr	r3, [r7, #4]
 800386c:	2250      	movs	r2, #80	; 0x50
 800386e:	2100      	movs	r1, #0
 8003870:	5499      	strb	r1, [r3, r2]

          return HAL_ERROR;
 8003872:	2301      	movs	r3, #1
 8003874:	e02a      	b.n	80038cc <HAL_ADCEx_Calibration_Start+0x130>
    while(HAL_IS_BIT_SET(hadc->Instance->CR, ADC_CR_ADCAL))
 8003876:	687b      	ldr	r3, [r7, #4]
 8003878:	681b      	ldr	r3, [r3, #0]
 800387a:	689b      	ldr	r3, [r3, #8]
 800387c:	0fdb      	lsrs	r3, r3, #31
 800387e:	07da      	lsls	r2, r3, #31
 8003880:	2380      	movs	r3, #128	; 0x80
 8003882:	061b      	lsls	r3, r3, #24
 8003884:	429a      	cmp	r2, r3
 8003886:	d0d8      	beq.n	800383a <HAL_ADCEx_Calibration_Start+0x9e>
        }
      }
    }
    
    /* Restore ADC DMA transfer request after calibration */
    SET_BIT(hadc->Instance->CFGR1, backup_setting_adc_dma_transfer);
 8003888:	687b      	ldr	r3, [r7, #4]
 800388a:	681b      	ldr	r3, [r3, #0]
 800388c:	68d9      	ldr	r1, [r3, #12]
 800388e:	687b      	ldr	r3, [r7, #4]
 8003890:	681b      	ldr	r3, [r3, #0]
 8003892:	68fa      	ldr	r2, [r7, #12]
 8003894:	430a      	orrs	r2, r1
 8003896:	60da      	str	r2, [r3, #12]
    
    /* Set ADC state */
    ADC_STATE_CLR_SET(hadc->State,
 8003898:	687b      	ldr	r3, [r7, #4]
 800389a:	6d5b      	ldr	r3, [r3, #84]	; 0x54
 800389c:	2203      	movs	r2, #3
 800389e:	4393      	bics	r3, r2
 80038a0:	2201      	movs	r2, #1
 80038a2:	431a      	orrs	r2, r3
 80038a4:	687b      	ldr	r3, [r7, #4]
 80038a6:	655a      	str	r2, [r3, #84]	; 0x54
 80038a8:	e009      	b.n	80038be <HAL_ADCEx_Calibration_Start+0x122>
                      HAL_ADC_STATE_READY);
  }
  else
  {
    /* Update ADC state machine to error */
    SET_BIT(hadc->State, HAL_ADC_STATE_ERROR_CONFIG);
 80038aa:	687b      	ldr	r3, [r7, #4]
 80038ac:	6d5b      	ldr	r3, [r3, #84]	; 0x54
 80038ae:	2220      	movs	r2, #32
 80038b0:	431a      	orrs	r2, r3
 80038b2:	687b      	ldr	r3, [r7, #4]
 80038b4:	655a      	str	r2, [r3, #84]	; 0x54
    
    tmp_hal_status = HAL_ERROR;
 80038b6:	2317      	movs	r3, #23
 80038b8:	18fb      	adds	r3, r7, r3
 80038ba:	2201      	movs	r2, #1
 80038bc:	701a      	strb	r2, [r3, #0]
  }
  
  /* Process unlocked */
  __HAL_UNLOCK(hadc);
 80038be:	687b      	ldr	r3, [r7, #4]
 80038c0:	2250      	movs	r2, #80	; 0x50
 80038c2:	2100      	movs	r1, #0
 80038c4:	5499      	strb	r1, [r3, r2]
  
  /* Return function status */
  return tmp_hal_status;
 80038c6:	2317      	movs	r3, #23
 80038c8:	18fb      	adds	r3, r7, r3
 80038ca:	781b      	ldrb	r3, [r3, #0]
}
 80038cc:	0018      	movs	r0, r3
 80038ce:	46bd      	mov	sp, r7
 80038d0:	b006      	add	sp, #24
 80038d2:	bd80      	pop	{r7, pc}
 80038d4:	fffffefd 	.word	0xfffffefd

080038d8 <__NVIC_EnableIRQ>:
  \details Enables a device specific interrupt in the NVIC interrupt controller.
  \param [in]      IRQn  Device specific interrupt number.
  \note    IRQn must not be negative.
 */
__STATIC_INLINE void __NVIC_EnableIRQ(IRQn_Type IRQn)
{
 80038d8:	b580      	push	{r7, lr}
 80038da:	b082      	sub	sp, #8
 80038dc:	af00      	add	r7, sp, #0
 80038de:	0002      	movs	r2, r0
 80038e0:	1dfb      	adds	r3, r7, #7
 80038e2:	701a      	strb	r2, [r3, #0]
  if ((int32_t)(IRQn) >= 0)
 80038e4:	1dfb      	adds	r3, r7, #7
 80038e6:	781b      	ldrb	r3, [r3, #0]
 80038e8:	2b7f      	cmp	r3, #127	; 0x7f
 80038ea:	d809      	bhi.n	8003900 <__NVIC_EnableIRQ+0x28>
  {
    NVIC->ISER[0U] = (uint32_t)(1UL << (((uint32_t)IRQn) & 0x1FUL));
 80038ec:	1dfb      	adds	r3, r7, #7
 80038ee:	781b      	ldrb	r3, [r3, #0]
 80038f0:	001a      	movs	r2, r3
 80038f2:	231f      	movs	r3, #31
 80038f4:	401a      	ands	r2, r3
 80038f6:	4b04      	ldr	r3, [pc, #16]	; (8003908 <__NVIC_EnableIRQ+0x30>)
 80038f8:	2101      	movs	r1, #1
 80038fa:	4091      	lsls	r1, r2
 80038fc:	000a      	movs	r2, r1
 80038fe:	601a      	str	r2, [r3, #0]
  }
}
 8003900:	46c0      	nop			; (mov r8, r8)
 8003902:	46bd      	mov	sp, r7
 8003904:	b002      	add	sp, #8
 8003906:	bd80      	pop	{r7, pc}
 8003908:	e000e100 	.word	0xe000e100

0800390c <__NVIC_SetPriority>:
  \param [in]      IRQn  Interrupt number.
  \param [in]  priority  Priority to set.
  \note    The priority cannot be set for every processor exception.
 */
__STATIC_INLINE void __NVIC_SetPriority(IRQn_Type IRQn, uint32_t priority)
{
 800390c:	b590      	push	{r4, r7, lr}
 800390e:	b083      	sub	sp, #12
 8003910:	af00      	add	r7, sp, #0
 8003912:	0002      	movs	r2, r0
 8003914:	6039      	str	r1, [r7, #0]
 8003916:	1dfb      	adds	r3, r7, #7
 8003918:	701a      	strb	r2, [r3, #0]
  if ((int32_t)(IRQn) >= 0)
 800391a:	1dfb      	adds	r3, r7, #7
 800391c:	781b      	ldrb	r3, [r3, #0]
 800391e:	2b7f      	cmp	r3, #127	; 0x7f
 8003920:	d828      	bhi.n	8003974 <__NVIC_SetPriority+0x68>
  {
    NVIC->IP[_IP_IDX(IRQn)]  = ((uint32_t)(NVIC->IP[_IP_IDX(IRQn)]  & ~(0xFFUL << _BIT_SHIFT(IRQn))) |
 8003922:	4a2f      	ldr	r2, [pc, #188]	; (80039e0 <__NVIC_SetPriority+0xd4>)
 8003924:	1dfb      	adds	r3, r7, #7
 8003926:	781b      	ldrb	r3, [r3, #0]
 8003928:	b25b      	sxtb	r3, r3
 800392a:	089b      	lsrs	r3, r3, #2
 800392c:	33c0      	adds	r3, #192	; 0xc0
 800392e:	009b      	lsls	r3, r3, #2
 8003930:	589b      	ldr	r3, [r3, r2]
 8003932:	1dfa      	adds	r2, r7, #7
 8003934:	7812      	ldrb	r2, [r2, #0]
 8003936:	0011      	movs	r1, r2
 8003938:	2203      	movs	r2, #3
 800393a:	400a      	ands	r2, r1
 800393c:	00d2      	lsls	r2, r2, #3
 800393e:	21ff      	movs	r1, #255	; 0xff
 8003940:	4091      	lsls	r1, r2
 8003942:	000a      	movs	r2, r1
 8003944:	43d2      	mvns	r2, r2
 8003946:	401a      	ands	r2, r3
 8003948:	0011      	movs	r1, r2
       (((priority << (8U - __NVIC_PRIO_BITS)) & (uint32_t)0xFFUL) << _BIT_SHIFT(IRQn)));
 800394a:	683b      	ldr	r3, [r7, #0]
 800394c:	019b      	lsls	r3, r3, #6
 800394e:	22ff      	movs	r2, #255	; 0xff
 8003950:	401a      	ands	r2, r3
 8003952:	1dfb      	adds	r3, r7, #7
 8003954:	781b      	ldrb	r3, [r3, #0]
 8003956:	0018      	movs	r0, r3
 8003958:	2303      	movs	r3, #3
 800395a:	4003      	ands	r3, r0
 800395c:	00db      	lsls	r3, r3, #3
 800395e:	409a      	lsls	r2, r3
    NVIC->IP[_IP_IDX(IRQn)]  = ((uint32_t)(NVIC->IP[_IP_IDX(IRQn)]  & ~(0xFFUL << _BIT_SHIFT(IRQn))) |
 8003960:	481f      	ldr	r0, [pc, #124]	; (80039e0 <__NVIC_SetPriority+0xd4>)
 8003962:	1dfb      	adds	r3, r7, #7
 8003964:	781b      	ldrb	r3, [r3, #0]
 8003966:	b25b      	sxtb	r3, r3
 8003968:	089b      	lsrs	r3, r3, #2
 800396a:	430a      	orrs	r2, r1
 800396c:	33c0      	adds	r3, #192	; 0xc0
 800396e:	009b      	lsls	r3, r3, #2
 8003970:	501a      	str	r2, [r3, r0]
  else
  {
    SCB->SHP[_SHP_IDX(IRQn)] = ((uint32_t)(SCB->SHP[_SHP_IDX(IRQn)] & ~(0xFFUL << _BIT_SHIFT(IRQn))) |
       (((priority << (8U - __NVIC_PRIO_BITS)) & (uint32_t)0xFFUL) << _BIT_SHIFT(IRQn)));
  }
}
 8003972:	e031      	b.n	80039d8 <__NVIC_SetPriority+0xcc>
    SCB->SHP[_SHP_IDX(IRQn)] = ((uint32_t)(SCB->SHP[_SHP_IDX(IRQn)] & ~(0xFFUL << _BIT_SHIFT(IRQn))) |
 8003974:	4a1b      	ldr	r2, [pc, #108]	; (80039e4 <__NVIC_SetPriority+0xd8>)
 8003976:	1dfb      	adds	r3, r7, #7
 8003978:	781b      	ldrb	r3, [r3, #0]
 800397a:	0019      	movs	r1, r3
 800397c:	230f      	movs	r3, #15
 800397e:	400b      	ands	r3, r1
 8003980:	3b08      	subs	r3, #8
 8003982:	089b      	lsrs	r3, r3, #2
 8003984:	3306      	adds	r3, #6
 8003986:	009b      	lsls	r3, r3, #2
 8003988:	18d3      	adds	r3, r2, r3
 800398a:	3304      	adds	r3, #4
 800398c:	681b      	ldr	r3, [r3, #0]
 800398e:	1dfa      	adds	r2, r7, #7
 8003990:	7812      	ldrb	r2, [r2, #0]
 8003992:	0011      	movs	r1, r2
 8003994:	2203      	movs	r2, #3
 8003996:	400a      	ands	r2, r1
 8003998:	00d2      	lsls	r2, r2, #3
 800399a:	21ff      	movs	r1, #255	; 0xff
 800399c:	4091      	lsls	r1, r2
 800399e:	000a      	movs	r2, r1
 80039a0:	43d2      	mvns	r2, r2
 80039a2:	401a      	ands	r2, r3
 80039a4:	0011      	movs	r1, r2
       (((priority << (8U - __NVIC_PRIO_BITS)) & (uint32_t)0xFFUL) << _BIT_SHIFT(IRQn)));
 80039a6:	683b      	ldr	r3, [r7, #0]
 80039a8:	019b      	lsls	r3, r3, #6
 80039aa:	22ff      	movs	r2, #255	; 0xff
 80039ac:	401a      	ands	r2, r3
 80039ae:	1dfb      	adds	r3, r7, #7
 80039b0:	781b      	ldrb	r3, [r3, #0]
 80039b2:	0018      	movs	r0, r3
 80039b4:	2303      	movs	r3, #3
 80039b6:	4003      	ands	r3, r0
 80039b8:	00db      	lsls	r3, r3, #3
 80039ba:	409a      	lsls	r2, r3
    SCB->SHP[_SHP_IDX(IRQn)] = ((uint32_t)(SCB->SHP[_SHP_IDX(IRQn)] & ~(0xFFUL << _BIT_SHIFT(IRQn))) |
 80039bc:	4809      	ldr	r0, [pc, #36]	; (80039e4 <__NVIC_SetPriority+0xd8>)
 80039be:	1dfb      	adds	r3, r7, #7
 80039c0:	781b      	ldrb	r3, [r3, #0]
 80039c2:	001c      	movs	r4, r3
 80039c4:	230f      	movs	r3, #15
 80039c6:	4023      	ands	r3, r4
 80039c8:	3b08      	subs	r3, #8
 80039ca:	089b      	lsrs	r3, r3, #2
 80039cc:	430a      	orrs	r2, r1
 80039ce:	3306      	adds	r3, #6
 80039d0:	009b      	lsls	r3, r3, #2
 80039d2:	18c3      	adds	r3, r0, r3
 80039d4:	3304      	adds	r3, #4
 80039d6:	601a      	str	r2, [r3, #0]
}
 80039d8:	46c0      	nop			; (mov r8, r8)
 80039da:	46bd      	mov	sp, r7
 80039dc:	b003      	add	sp, #12
 80039de:	bd90      	pop	{r4, r7, pc}
 80039e0:	e000e100 	.word	0xe000e100
 80039e4:	e000ed00 	.word	0xe000ed00

080039e8 <SysTick_Config>:
  \note    When the variable <b>__Vendor_SysTickConfig</b> is set to 1, then the
           function <b>SysTick_Config</b> is not included. In this case, the file <b><i>device</i>.h</b>
           must contain a vendor-specific implementation of this function.
 */
__STATIC_INLINE uint32_t SysTick_Config(uint32_t ticks)
{
 80039e8:	b580      	push	{r7, lr}
 80039ea:	b082      	sub	sp, #8
 80039ec:	af00      	add	r7, sp, #0
 80039ee:	6078      	str	r0, [r7, #4]
  if ((ticks - 1UL) > SysTick_LOAD_RELOAD_Msk)
 80039f0:	687b      	ldr	r3, [r7, #4]
 80039f2:	1e5a      	subs	r2, r3, #1
 80039f4:	2380      	movs	r3, #128	; 0x80
 80039f6:	045b      	lsls	r3, r3, #17
 80039f8:	429a      	cmp	r2, r3
 80039fa:	d301      	bcc.n	8003a00 <SysTick_Config+0x18>
  {
    return (1UL);                                                   /* Reload value impossible */
 80039fc:	2301      	movs	r3, #1
 80039fe:	e010      	b.n	8003a22 <SysTick_Config+0x3a>
  }

  SysTick->LOAD  = (uint32_t)(ticks - 1UL);                         /* set reload register */
 8003a00:	4b0a      	ldr	r3, [pc, #40]	; (8003a2c <SysTick_Config+0x44>)
 8003a02:	687a      	ldr	r2, [r7, #4]
 8003a04:	3a01      	subs	r2, #1
 8003a06:	605a      	str	r2, [r3, #4]
  NVIC_SetPriority (SysTick_IRQn, (1UL << __NVIC_PRIO_BITS) - 1UL); /* set Priority for Systick Interrupt */
 8003a08:	2301      	movs	r3, #1
 8003a0a:	425b      	negs	r3, r3
 8003a0c:	2103      	movs	r1, #3
 8003a0e:	0018      	movs	r0, r3
 8003a10:	f7ff ff7c 	bl	800390c <__NVIC_SetPriority>
  SysTick->VAL   = 0UL;                                             /* Load the SysTick Counter Value */
 8003a14:	4b05      	ldr	r3, [pc, #20]	; (8003a2c <SysTick_Config+0x44>)
 8003a16:	2200      	movs	r2, #0
 8003a18:	609a      	str	r2, [r3, #8]
  SysTick->CTRL  = SysTick_CTRL_CLKSOURCE_Msk |
 8003a1a:	4b04      	ldr	r3, [pc, #16]	; (8003a2c <SysTick_Config+0x44>)
 8003a1c:	2207      	movs	r2, #7
 8003a1e:	601a      	str	r2, [r3, #0]
                   SysTick_CTRL_TICKINT_Msk   |
                   SysTick_CTRL_ENABLE_Msk;                         /* Enable SysTick IRQ and SysTick Timer */
  return (0UL);                                                     /* Function successful */
 8003a20:	2300      	movs	r3, #0
}
 8003a22:	0018      	movs	r0, r3
 8003a24:	46bd      	mov	sp, r7
 8003a26:	b002      	add	sp, #8
 8003a28:	bd80      	pop	{r7, pc}
 8003a2a:	46c0      	nop			; (mov r8, r8)
 8003a2c:	e000e010 	.word	0xe000e010

08003a30 <HAL_NVIC_SetPriority>:
  *         with stm32l0xx devices, this parameter is a dummy value and it is ignored, because 
  *         no subpriority supported in Cortex M0+ based products.   
  * @retval None
  */
void HAL_NVIC_SetPriority(IRQn_Type IRQn, uint32_t PreemptPriority, uint32_t SubPriority)
{ 
 8003a30:	b580      	push	{r7, lr}
 8003a32:	b084      	sub	sp, #16
 8003a34:	af00      	add	r7, sp, #0
 8003a36:	60b9      	str	r1, [r7, #8]
 8003a38:	607a      	str	r2, [r7, #4]
 8003a3a:	210f      	movs	r1, #15
 8003a3c:	187b      	adds	r3, r7, r1
 8003a3e:	1c02      	adds	r2, r0, #0
 8003a40:	701a      	strb	r2, [r3, #0]
    /* Check the parameters */
  assert_param(IS_NVIC_PREEMPTION_PRIORITY(PreemptPriority));
  NVIC_SetPriority(IRQn,PreemptPriority);
 8003a42:	68ba      	ldr	r2, [r7, #8]
 8003a44:	187b      	adds	r3, r7, r1
 8003a46:	781b      	ldrb	r3, [r3, #0]
 8003a48:	b25b      	sxtb	r3, r3
 8003a4a:	0011      	movs	r1, r2
 8003a4c:	0018      	movs	r0, r3
 8003a4e:	f7ff ff5d 	bl	800390c <__NVIC_SetPriority>
}
 8003a52:	46c0      	nop			; (mov r8, r8)
 8003a54:	46bd      	mov	sp, r7
 8003a56:	b004      	add	sp, #16
 8003a58:	bd80      	pop	{r7, pc}

08003a5a <HAL_NVIC_EnableIRQ>:
  *         This parameter can be an enumerator of  IRQn_Type enumeration
  *         (For the complete STM32 Devices IRQ Channels list, please refer to stm32l0xx.h file)  
  * @retval None
  */
void HAL_NVIC_EnableIRQ(IRQn_Type IRQn)
{
 8003a5a:	b580      	push	{r7, lr}
 8003a5c:	b082      	sub	sp, #8
 8003a5e:	af00      	add	r7, sp, #0
 8003a60:	0002      	movs	r2, r0
 8003a62:	1dfb      	adds	r3, r7, #7
 8003a64:	701a      	strb	r2, [r3, #0]
  /* Check the parameters */
  assert_param(IS_NVIC_DEVICE_IRQ(IRQn));
  
  /* Enable interrupt */
  NVIC_EnableIRQ(IRQn);
 8003a66:	1dfb      	adds	r3, r7, #7
 8003a68:	781b      	ldrb	r3, [r3, #0]
 8003a6a:	b25b      	sxtb	r3, r3
 8003a6c:	0018      	movs	r0, r3
 8003a6e:	f7ff ff33 	bl	80038d8 <__NVIC_EnableIRQ>
}
 8003a72:	46c0      	nop			; (mov r8, r8)
 8003a74:	46bd      	mov	sp, r7
 8003a76:	b002      	add	sp, #8
 8003a78:	bd80      	pop	{r7, pc}

08003a7a <HAL_SYSTICK_Config>:
  * @param  TicksNumb Specifies the ticks Number of ticks between two interrupts.
  * @retval status:  - 0  Function succeeded.
  *                  - 1  Function failed.
  */
uint32_t HAL_SYSTICK_Config(uint32_t TicksNumb)
{
 8003a7a:	b580      	push	{r7, lr}
 8003a7c:	b082      	sub	sp, #8
 8003a7e:	af00      	add	r7, sp, #0
 8003a80:	6078      	str	r0, [r7, #4]
   return SysTick_Config(TicksNumb);
 8003a82:	687b      	ldr	r3, [r7, #4]
 8003a84:	0018      	movs	r0, r3
 8003a86:	f7ff ffaf 	bl	80039e8 <SysTick_Config>
 8003a8a:	0003      	movs	r3, r0
}
 8003a8c:	0018      	movs	r0, r3
 8003a8e:	46bd      	mov	sp, r7
 8003a90:	b002      	add	sp, #8
 8003a92:	bd80      	pop	{r7, pc}

08003a94 <HAL_GPIO_Init>:
  * @param  GPIO_Init pointer to a GPIO_InitTypeDef structure that contains
  *                    the configuration information for the specified GPIO peripheral.
  * @retval None
  */
void HAL_GPIO_Init(GPIO_TypeDef  *GPIOx, GPIO_InitTypeDef *GPIO_Init)
{
 8003a94:	b580      	push	{r7, lr}
 8003a96:	b086      	sub	sp, #24
 8003a98:	af00      	add	r7, sp, #0
 8003a9a:	6078      	str	r0, [r7, #4]
 8003a9c:	6039      	str	r1, [r7, #0]
  uint32_t position = 0x00U;
 8003a9e:	2300      	movs	r3, #0
 8003aa0:	617b      	str	r3, [r7, #20]
  uint32_t iocurrent = 0x00U;
 8003aa2:	2300      	movs	r3, #0
 8003aa4:	60fb      	str	r3, [r7, #12]
  uint32_t temp = 0x00U;
 8003aa6:	2300      	movs	r3, #0
 8003aa8:	613b      	str	r3, [r7, #16]
  /* Check the parameters */
  assert_param(IS_GPIO_MODE(GPIO_Init->Mode));
  assert_param(IS_GPIO_PIN_AVAILABLE(GPIOx, (GPIO_Init->Pin)));

  /* Configure the port pins */
  while (((GPIO_Init->Pin) >> position) != 0)
 8003aaa:	e149      	b.n	8003d40 <HAL_GPIO_Init+0x2ac>
  {
    /* Get the IO position */
    iocurrent = (GPIO_Init->Pin) & (1U << position);
 8003aac:	683b      	ldr	r3, [r7, #0]
 8003aae:	681b      	ldr	r3, [r3, #0]
 8003ab0:	2101      	movs	r1, #1
 8003ab2:	697a      	ldr	r2, [r7, #20]
 8003ab4:	4091      	lsls	r1, r2
 8003ab6:	000a      	movs	r2, r1
 8003ab8:	4013      	ands	r3, r2
 8003aba:	60fb      	str	r3, [r7, #12]

    if (iocurrent)
 8003abc:	68fb      	ldr	r3, [r7, #12]
 8003abe:	2b00      	cmp	r3, #0
 8003ac0:	d100      	bne.n	8003ac4 <HAL_GPIO_Init+0x30>
 8003ac2:	e13a      	b.n	8003d3a <HAL_GPIO_Init+0x2a6>
    {
      /*--------------------- GPIO Mode Configuration ------------------------*/
      /* In case of Output or Alternate function mode selection */
      if (((GPIO_Init->Mode & GPIO_MODE) == MODE_OUTPUT) ||
 8003ac4:	683b      	ldr	r3, [r7, #0]
 8003ac6:	685b      	ldr	r3, [r3, #4]
 8003ac8:	2203      	movs	r2, #3
 8003aca:	4013      	ands	r3, r2
 8003acc:	2b01      	cmp	r3, #1
 8003ace:	d005      	beq.n	8003adc <HAL_GPIO_Init+0x48>
          ((GPIO_Init->Mode & GPIO_MODE) == MODE_AF))
 8003ad0:	683b      	ldr	r3, [r7, #0]
 8003ad2:	685b      	ldr	r3, [r3, #4]
 8003ad4:	2203      	movs	r2, #3
 8003ad6:	4013      	ands	r3, r2
      if (((GPIO_Init->Mode & GPIO_MODE) == MODE_OUTPUT) ||
 8003ad8:	2b02      	cmp	r3, #2
 8003ada:	d130      	bne.n	8003b3e <HAL_GPIO_Init+0xaa>
      {
        /* Check the Speed parameter */
        assert_param(IS_GPIO_SPEED(GPIO_Init->Speed));
        /* Configure the IO Speed */
        temp = GPIOx->OSPEEDR;
 8003adc:	687b      	ldr	r3, [r7, #4]
 8003ade:	689b      	ldr	r3, [r3, #8]
 8003ae0:	613b      	str	r3, [r7, #16]
        temp &= ~(GPIO_OSPEEDER_OSPEED0 << (position * 2U));
 8003ae2:	697b      	ldr	r3, [r7, #20]
 8003ae4:	005b      	lsls	r3, r3, #1
 8003ae6:	2203      	movs	r2, #3
 8003ae8:	409a      	lsls	r2, r3
 8003aea:	0013      	movs	r3, r2
 8003aec:	43da      	mvns	r2, r3
 8003aee:	693b      	ldr	r3, [r7, #16]
 8003af0:	4013      	ands	r3, r2
 8003af2:	613b      	str	r3, [r7, #16]
        temp |= (GPIO_Init->Speed << (position * 2U));
 8003af4:	683b      	ldr	r3, [r7, #0]
 8003af6:	68da      	ldr	r2, [r3, #12]
 8003af8:	697b      	ldr	r3, [r7, #20]
 8003afa:	005b      	lsls	r3, r3, #1
 8003afc:	409a      	lsls	r2, r3
 8003afe:	0013      	movs	r3, r2
 8003b00:	693a      	ldr	r2, [r7, #16]
 8003b02:	4313      	orrs	r3, r2
 8003b04:	613b      	str	r3, [r7, #16]
        GPIOx->OSPEEDR = temp;
 8003b06:	687b      	ldr	r3, [r7, #4]
 8003b08:	693a      	ldr	r2, [r7, #16]
 8003b0a:	609a      	str	r2, [r3, #8]

        /* Configure the IO Output Type */
        temp = GPIOx->OTYPER;
 8003b0c:	687b      	ldr	r3, [r7, #4]
 8003b0e:	685b      	ldr	r3, [r3, #4]
 8003b10:	613b      	str	r3, [r7, #16]
        temp &= ~(GPIO_OTYPER_OT_0 << position) ;
 8003b12:	2201      	movs	r2, #1
 8003b14:	697b      	ldr	r3, [r7, #20]
 8003b16:	409a      	lsls	r2, r3
 8003b18:	0013      	movs	r3, r2
 8003b1a:	43da      	mvns	r2, r3
 8003b1c:	693b      	ldr	r3, [r7, #16]
 8003b1e:	4013      	ands	r3, r2
 8003b20:	613b      	str	r3, [r7, #16]
        temp |= (((GPIO_Init->Mode & OUTPUT_TYPE) >> OUTPUT_TYPE_Pos) << position);
 8003b22:	683b      	ldr	r3, [r7, #0]
 8003b24:	685b      	ldr	r3, [r3, #4]
 8003b26:	091b      	lsrs	r3, r3, #4
 8003b28:	2201      	movs	r2, #1
 8003b2a:	401a      	ands	r2, r3
 8003b2c:	697b      	ldr	r3, [r7, #20]
 8003b2e:	409a      	lsls	r2, r3
 8003b30:	0013      	movs	r3, r2
 8003b32:	693a      	ldr	r2, [r7, #16]
 8003b34:	4313      	orrs	r3, r2
 8003b36:	613b      	str	r3, [r7, #16]
        GPIOx->OTYPER = temp;
 8003b38:	687b      	ldr	r3, [r7, #4]
 8003b3a:	693a      	ldr	r2, [r7, #16]
 8003b3c:	605a      	str	r2, [r3, #4]
      }

      if ((GPIO_Init->Mode & GPIO_MODE) != MODE_ANALOG)
 8003b3e:	683b      	ldr	r3, [r7, #0]
 8003b40:	685b      	ldr	r3, [r3, #4]
 8003b42:	2203      	movs	r2, #3
 8003b44:	4013      	ands	r3, r2
 8003b46:	2b03      	cmp	r3, #3
 8003b48:	d017      	beq.n	8003b7a <HAL_GPIO_Init+0xe6>
      {
        /* Check the Pull parameter */
        assert_param(IS_GPIO_PULL(GPIO_Init->Pull));

        /* Activate the Pull-up or Pull down resistor for the current IO */
        temp = GPIOx->PUPDR;
 8003b4a:	687b      	ldr	r3, [r7, #4]
 8003b4c:	68db      	ldr	r3, [r3, #12]
 8003b4e:	613b      	str	r3, [r7, #16]
        temp &= ~(GPIO_PUPDR_PUPD0 << (position * 2U));
 8003b50:	697b      	ldr	r3, [r7, #20]
 8003b52:	005b      	lsls	r3, r3, #1
 8003b54:	2203      	movs	r2, #3
 8003b56:	409a      	lsls	r2, r3
 8003b58:	0013      	movs	r3, r2
 8003b5a:	43da      	mvns	r2, r3
 8003b5c:	693b      	ldr	r3, [r7, #16]
 8003b5e:	4013      	ands	r3, r2
 8003b60:	613b      	str	r3, [r7, #16]
        temp |= ((GPIO_Init->Pull) << (position * 2U));
 8003b62:	683b      	ldr	r3, [r7, #0]
 8003b64:	689a      	ldr	r2, [r3, #8]
 8003b66:	697b      	ldr	r3, [r7, #20]
 8003b68:	005b      	lsls	r3, r3, #1
 8003b6a:	409a      	lsls	r2, r3
 8003b6c:	0013      	movs	r3, r2
 8003b6e:	693a      	ldr	r2, [r7, #16]
 8003b70:	4313      	orrs	r3, r2
 8003b72:	613b      	str	r3, [r7, #16]
        GPIOx->PUPDR = temp;
 8003b74:	687b      	ldr	r3, [r7, #4]
 8003b76:	693a      	ldr	r2, [r7, #16]
 8003b78:	60da      	str	r2, [r3, #12]
      }

      /* In case of Alternate function mode selection */
      if ((GPIO_Init->Mode & GPIO_MODE) == MODE_AF)
 8003b7a:	683b      	ldr	r3, [r7, #0]
 8003b7c:	685b      	ldr	r3, [r3, #4]
 8003b7e:	2203      	movs	r2, #3
 8003b80:	4013      	ands	r3, r2
 8003b82:	2b02      	cmp	r3, #2
 8003b84:	d123      	bne.n	8003bce <HAL_GPIO_Init+0x13a>
        /* Check the Alternate function parameters */
        assert_param(IS_GPIO_AF_INSTANCE(GPIOx));
        assert_param(IS_GPIO_AF(GPIO_Init->Alternate));

        /* Configure Alternate function mapped with the current IO */
        temp = GPIOx->AFR[position >> 3U];
 8003b86:	697b      	ldr	r3, [r7, #20]
 8003b88:	08da      	lsrs	r2, r3, #3
 8003b8a:	687b      	ldr	r3, [r7, #4]
 8003b8c:	3208      	adds	r2, #8
 8003b8e:	0092      	lsls	r2, r2, #2
 8003b90:	58d3      	ldr	r3, [r2, r3]
 8003b92:	613b      	str	r3, [r7, #16]
        temp &= ~(0xFUL << ((uint32_t)(position & 0x07UL) * 4U));
 8003b94:	697b      	ldr	r3, [r7, #20]
 8003b96:	2207      	movs	r2, #7
 8003b98:	4013      	ands	r3, r2
 8003b9a:	009b      	lsls	r3, r3, #2
 8003b9c:	220f      	movs	r2, #15
 8003b9e:	409a      	lsls	r2, r3
 8003ba0:	0013      	movs	r3, r2
 8003ba2:	43da      	mvns	r2, r3
 8003ba4:	693b      	ldr	r3, [r7, #16]
 8003ba6:	4013      	ands	r3, r2
 8003ba8:	613b      	str	r3, [r7, #16]
        temp |= ((uint32_t)(GPIO_Init->Alternate) << (((uint32_t)position & (uint32_t)0x07U) * 4U));
 8003baa:	683b      	ldr	r3, [r7, #0]
 8003bac:	691a      	ldr	r2, [r3, #16]
 8003bae:	697b      	ldr	r3, [r7, #20]
 8003bb0:	2107      	movs	r1, #7
 8003bb2:	400b      	ands	r3, r1
 8003bb4:	009b      	lsls	r3, r3, #2
 8003bb6:	409a      	lsls	r2, r3
 8003bb8:	0013      	movs	r3, r2
 8003bba:	693a      	ldr	r2, [r7, #16]
 8003bbc:	4313      	orrs	r3, r2
 8003bbe:	613b      	str	r3, [r7, #16]
        GPIOx->AFR[position >> 3U] = temp;
 8003bc0:	697b      	ldr	r3, [r7, #20]
 8003bc2:	08da      	lsrs	r2, r3, #3
 8003bc4:	687b      	ldr	r3, [r7, #4]
 8003bc6:	3208      	adds	r2, #8
 8003bc8:	0092      	lsls	r2, r2, #2
 8003bca:	6939      	ldr	r1, [r7, #16]
 8003bcc:	50d1      	str	r1, [r2, r3]
      }

      /* Configure IO Direction mode (Input, Output, Alternate or Analog) */
      temp = GPIOx->MODER;
 8003bce:	687b      	ldr	r3, [r7, #4]
 8003bd0:	681b      	ldr	r3, [r3, #0]
 8003bd2:	613b      	str	r3, [r7, #16]
      temp &= ~(GPIO_MODER_MODE0 << (position * 2U));
 8003bd4:	697b      	ldr	r3, [r7, #20]
 8003bd6:	005b      	lsls	r3, r3, #1
 8003bd8:	2203      	movs	r2, #3
 8003bda:	409a      	lsls	r2, r3
 8003bdc:	0013      	movs	r3, r2
 8003bde:	43da      	mvns	r2, r3
 8003be0:	693b      	ldr	r3, [r7, #16]
 8003be2:	4013      	ands	r3, r2
 8003be4:	613b      	str	r3, [r7, #16]
      temp |= ((GPIO_Init->Mode & GPIO_MODE) << (position * 2U));
 8003be6:	683b      	ldr	r3, [r7, #0]
 8003be8:	685b      	ldr	r3, [r3, #4]
 8003bea:	2203      	movs	r2, #3
 8003bec:	401a      	ands	r2, r3
 8003bee:	697b      	ldr	r3, [r7, #20]
 8003bf0:	005b      	lsls	r3, r3, #1
 8003bf2:	409a      	lsls	r2, r3
 8003bf4:	0013      	movs	r3, r2
 8003bf6:	693a      	ldr	r2, [r7, #16]
 8003bf8:	4313      	orrs	r3, r2
 8003bfa:	613b      	str	r3, [r7, #16]
      GPIOx->MODER = temp;
 8003bfc:	687b      	ldr	r3, [r7, #4]
 8003bfe:	693a      	ldr	r2, [r7, #16]
 8003c00:	601a      	str	r2, [r3, #0]

      /*--------------------- EXTI Mode Configuration ------------------------*/
      /* Configure the External Interrupt or event for the current IO */
      if ((GPIO_Init->Mode & EXTI_MODE) != 0x00U)
 8003c02:	683b      	ldr	r3, [r7, #0]
 8003c04:	685a      	ldr	r2, [r3, #4]
 8003c06:	23c0      	movs	r3, #192	; 0xc0
 8003c08:	029b      	lsls	r3, r3, #10
 8003c0a:	4013      	ands	r3, r2
 8003c0c:	d100      	bne.n	8003c10 <HAL_GPIO_Init+0x17c>
 8003c0e:	e094      	b.n	8003d3a <HAL_GPIO_Init+0x2a6>
      {
        /* Enable SYSCFG Clock */
        __HAL_RCC_SYSCFG_CLK_ENABLE();
 8003c10:	4b51      	ldr	r3, [pc, #324]	; (8003d58 <HAL_GPIO_Init+0x2c4>)
 8003c12:	6b5a      	ldr	r2, [r3, #52]	; 0x34
 8003c14:	4b50      	ldr	r3, [pc, #320]	; (8003d58 <HAL_GPIO_Init+0x2c4>)
 8003c16:	2101      	movs	r1, #1
 8003c18:	430a      	orrs	r2, r1
 8003c1a:	635a      	str	r2, [r3, #52]	; 0x34

        temp = SYSCFG->EXTICR[position >> 2U];
 8003c1c:	4a4f      	ldr	r2, [pc, #316]	; (8003d5c <HAL_GPIO_Init+0x2c8>)
 8003c1e:	697b      	ldr	r3, [r7, #20]
 8003c20:	089b      	lsrs	r3, r3, #2
 8003c22:	3302      	adds	r3, #2
 8003c24:	009b      	lsls	r3, r3, #2
 8003c26:	589b      	ldr	r3, [r3, r2]
 8003c28:	613b      	str	r3, [r7, #16]
        CLEAR_BIT(temp, (0x0FUL) << (4U * (position & 0x03U)));
 8003c2a:	697b      	ldr	r3, [r7, #20]
 8003c2c:	2203      	movs	r2, #3
 8003c2e:	4013      	ands	r3, r2
 8003c30:	009b      	lsls	r3, r3, #2
 8003c32:	220f      	movs	r2, #15
 8003c34:	409a      	lsls	r2, r3
 8003c36:	0013      	movs	r3, r2
 8003c38:	43da      	mvns	r2, r3
 8003c3a:	693b      	ldr	r3, [r7, #16]
 8003c3c:	4013      	ands	r3, r2
 8003c3e:	613b      	str	r3, [r7, #16]
        SET_BIT(temp, (GPIO_GET_INDEX(GPIOx)) << (4 * (position & 0x03U)));
 8003c40:	687a      	ldr	r2, [r7, #4]
 8003c42:	23a0      	movs	r3, #160	; 0xa0
 8003c44:	05db      	lsls	r3, r3, #23
 8003c46:	429a      	cmp	r2, r3
 8003c48:	d013      	beq.n	8003c72 <HAL_GPIO_Init+0x1de>
 8003c4a:	687b      	ldr	r3, [r7, #4]
 8003c4c:	4a44      	ldr	r2, [pc, #272]	; (8003d60 <HAL_GPIO_Init+0x2cc>)
 8003c4e:	4293      	cmp	r3, r2
 8003c50:	d00d      	beq.n	8003c6e <HAL_GPIO_Init+0x1da>
 8003c52:	687b      	ldr	r3, [r7, #4]
 8003c54:	4a43      	ldr	r2, [pc, #268]	; (8003d64 <HAL_GPIO_Init+0x2d0>)
 8003c56:	4293      	cmp	r3, r2
 8003c58:	d007      	beq.n	8003c6a <HAL_GPIO_Init+0x1d6>
 8003c5a:	687b      	ldr	r3, [r7, #4]
 8003c5c:	4a42      	ldr	r2, [pc, #264]	; (8003d68 <HAL_GPIO_Init+0x2d4>)
 8003c5e:	4293      	cmp	r3, r2
 8003c60:	d101      	bne.n	8003c66 <HAL_GPIO_Init+0x1d2>
 8003c62:	2305      	movs	r3, #5
 8003c64:	e006      	b.n	8003c74 <HAL_GPIO_Init+0x1e0>
 8003c66:	2306      	movs	r3, #6
 8003c68:	e004      	b.n	8003c74 <HAL_GPIO_Init+0x1e0>
 8003c6a:	2302      	movs	r3, #2
 8003c6c:	e002      	b.n	8003c74 <HAL_GPIO_Init+0x1e0>
 8003c6e:	2301      	movs	r3, #1
 8003c70:	e000      	b.n	8003c74 <HAL_GPIO_Init+0x1e0>
 8003c72:	2300      	movs	r3, #0
 8003c74:	697a      	ldr	r2, [r7, #20]
 8003c76:	2103      	movs	r1, #3
 8003c78:	400a      	ands	r2, r1
 8003c7a:	0092      	lsls	r2, r2, #2
 8003c7c:	4093      	lsls	r3, r2
 8003c7e:	693a      	ldr	r2, [r7, #16]
 8003c80:	4313      	orrs	r3, r2
 8003c82:	613b      	str	r3, [r7, #16]
        SYSCFG->EXTICR[position >> 2U] = temp;
 8003c84:	4935      	ldr	r1, [pc, #212]	; (8003d5c <HAL_GPIO_Init+0x2c8>)
 8003c86:	697b      	ldr	r3, [r7, #20]
 8003c88:	089b      	lsrs	r3, r3, #2
 8003c8a:	3302      	adds	r3, #2
 8003c8c:	009b      	lsls	r3, r3, #2
 8003c8e:	693a      	ldr	r2, [r7, #16]
 8003c90:	505a      	str	r2, [r3, r1]

        /* Clear EXTI line configuration */
        temp = EXTI->IMR;
 8003c92:	4b36      	ldr	r3, [pc, #216]	; (8003d6c <HAL_GPIO_Init+0x2d8>)
 8003c94:	681b      	ldr	r3, [r3, #0]
 8003c96:	613b      	str	r3, [r7, #16]
        temp &= ~((uint32_t)iocurrent);
 8003c98:	68fb      	ldr	r3, [r7, #12]
 8003c9a:	43da      	mvns	r2, r3
 8003c9c:	693b      	ldr	r3, [r7, #16]
 8003c9e:	4013      	ands	r3, r2
 8003ca0:	613b      	str	r3, [r7, #16]
        if ((GPIO_Init->Mode & EXTI_IT) != 0x00U)
 8003ca2:	683b      	ldr	r3, [r7, #0]
 8003ca4:	685a      	ldr	r2, [r3, #4]
 8003ca6:	2380      	movs	r3, #128	; 0x80
 8003ca8:	025b      	lsls	r3, r3, #9
 8003caa:	4013      	ands	r3, r2
 8003cac:	d003      	beq.n	8003cb6 <HAL_GPIO_Init+0x222>
        {
          temp |= iocurrent;
 8003cae:	693a      	ldr	r2, [r7, #16]
 8003cb0:	68fb      	ldr	r3, [r7, #12]
 8003cb2:	4313      	orrs	r3, r2
 8003cb4:	613b      	str	r3, [r7, #16]
        }
        EXTI->IMR = temp;
 8003cb6:	4b2d      	ldr	r3, [pc, #180]	; (8003d6c <HAL_GPIO_Init+0x2d8>)
 8003cb8:	693a      	ldr	r2, [r7, #16]
 8003cba:	601a      	str	r2, [r3, #0]

        temp = EXTI->EMR;
 8003cbc:	4b2b      	ldr	r3, [pc, #172]	; (8003d6c <HAL_GPIO_Init+0x2d8>)
 8003cbe:	685b      	ldr	r3, [r3, #4]
 8003cc0:	613b      	str	r3, [r7, #16]
        temp &= ~((uint32_t)iocurrent);
 8003cc2:	68fb      	ldr	r3, [r7, #12]
 8003cc4:	43da      	mvns	r2, r3
 8003cc6:	693b      	ldr	r3, [r7, #16]
 8003cc8:	4013      	ands	r3, r2
 8003cca:	613b      	str	r3, [r7, #16]
        if ((GPIO_Init->Mode & EXTI_EVT) != 0x00U)
 8003ccc:	683b      	ldr	r3, [r7, #0]
 8003cce:	685a      	ldr	r2, [r3, #4]
 8003cd0:	2380      	movs	r3, #128	; 0x80
 8003cd2:	029b      	lsls	r3, r3, #10
 8003cd4:	4013      	ands	r3, r2
 8003cd6:	d003      	beq.n	8003ce0 <HAL_GPIO_Init+0x24c>
        {
          temp |= iocurrent;
 8003cd8:	693a      	ldr	r2, [r7, #16]
 8003cda:	68fb      	ldr	r3, [r7, #12]
 8003cdc:	4313      	orrs	r3, r2
 8003cde:	613b      	str	r3, [r7, #16]
        }
        EXTI->EMR = temp;
 8003ce0:	4b22      	ldr	r3, [pc, #136]	; (8003d6c <HAL_GPIO_Init+0x2d8>)
 8003ce2:	693a      	ldr	r2, [r7, #16]
 8003ce4:	605a      	str	r2, [r3, #4]

        /* Clear Rising Falling edge configuration */
        temp = EXTI->RTSR;
 8003ce6:	4b21      	ldr	r3, [pc, #132]	; (8003d6c <HAL_GPIO_Init+0x2d8>)
 8003ce8:	689b      	ldr	r3, [r3, #8]
 8003cea:	613b      	str	r3, [r7, #16]
        temp &= ~((uint32_t)iocurrent);
 8003cec:	68fb      	ldr	r3, [r7, #12]
 8003cee:	43da      	mvns	r2, r3
 8003cf0:	693b      	ldr	r3, [r7, #16]
 8003cf2:	4013      	ands	r3, r2
 8003cf4:	613b      	str	r3, [r7, #16]
        if ((GPIO_Init->Mode & TRIGGER_RISING) != 0x00U)
 8003cf6:	683b      	ldr	r3, [r7, #0]
 8003cf8:	685a      	ldr	r2, [r3, #4]
 8003cfa:	2380      	movs	r3, #128	; 0x80
 8003cfc:	035b      	lsls	r3, r3, #13
 8003cfe:	4013      	ands	r3, r2
 8003d00:	d003      	beq.n	8003d0a <HAL_GPIO_Init+0x276>
        {
          temp |= iocurrent;
 8003d02:	693a      	ldr	r2, [r7, #16]
 8003d04:	68fb      	ldr	r3, [r7, #12]
 8003d06:	4313      	orrs	r3, r2
 8003d08:	613b      	str	r3, [r7, #16]
        }
        EXTI->RTSR = temp;
 8003d0a:	4b18      	ldr	r3, [pc, #96]	; (8003d6c <HAL_GPIO_Init+0x2d8>)
 8003d0c:	693a      	ldr	r2, [r7, #16]
 8003d0e:	609a      	str	r2, [r3, #8]

        temp = EXTI->FTSR;
 8003d10:	4b16      	ldr	r3, [pc, #88]	; (8003d6c <HAL_GPIO_Init+0x2d8>)
 8003d12:	68db      	ldr	r3, [r3, #12]
 8003d14:	613b      	str	r3, [r7, #16]
        temp &= ~((uint32_t)iocurrent);
 8003d16:	68fb      	ldr	r3, [r7, #12]
 8003d18:	43da      	mvns	r2, r3
 8003d1a:	693b      	ldr	r3, [r7, #16]
 8003d1c:	4013      	ands	r3, r2
 8003d1e:	613b      	str	r3, [r7, #16]
        if ((GPIO_Init->Mode & TRIGGER_FALLING) != 0x00U)
 8003d20:	683b      	ldr	r3, [r7, #0]
 8003d22:	685a      	ldr	r2, [r3, #4]
 8003d24:	2380      	movs	r3, #128	; 0x80
 8003d26:	039b      	lsls	r3, r3, #14
 8003d28:	4013      	ands	r3, r2
 8003d2a:	d003      	beq.n	8003d34 <HAL_GPIO_Init+0x2a0>
        {
          temp |= iocurrent;
 8003d2c:	693a      	ldr	r2, [r7, #16]
 8003d2e:	68fb      	ldr	r3, [r7, #12]
 8003d30:	4313      	orrs	r3, r2
 8003d32:	613b      	str	r3, [r7, #16]
        }
        EXTI->FTSR = temp;
 8003d34:	4b0d      	ldr	r3, [pc, #52]	; (8003d6c <HAL_GPIO_Init+0x2d8>)
 8003d36:	693a      	ldr	r2, [r7, #16]
 8003d38:	60da      	str	r2, [r3, #12]
      }
    }
    position++;
 8003d3a:	697b      	ldr	r3, [r7, #20]
 8003d3c:	3301      	adds	r3, #1
 8003d3e:	617b      	str	r3, [r7, #20]
  while (((GPIO_Init->Pin) >> position) != 0)
 8003d40:	683b      	ldr	r3, [r7, #0]
 8003d42:	681a      	ldr	r2, [r3, #0]
 8003d44:	697b      	ldr	r3, [r7, #20]
 8003d46:	40da      	lsrs	r2, r3
 8003d48:	1e13      	subs	r3, r2, #0
 8003d4a:	d000      	beq.n	8003d4e <HAL_GPIO_Init+0x2ba>
 8003d4c:	e6ae      	b.n	8003aac <HAL_GPIO_Init+0x18>
  }
}
 8003d4e:	46c0      	nop			; (mov r8, r8)
 8003d50:	46c0      	nop			; (mov r8, r8)
 8003d52:	46bd      	mov	sp, r7
 8003d54:	b006      	add	sp, #24
 8003d56:	bd80      	pop	{r7, pc}
 8003d58:	40021000 	.word	0x40021000
 8003d5c:	40010000 	.word	0x40010000
 8003d60:	50000400 	.word	0x50000400
 8003d64:	50000800 	.word	0x50000800
 8003d68:	50001c00 	.word	0x50001c00
 8003d6c:	40010400 	.word	0x40010400

08003d70 <HAL_GPIO_DeInit>:
  *                   This parameter can be one of GPIO_PIN_x where x can be (0..15).
  *                   All port bits are not necessarily available on all GPIOs.
  * @retval None
  */
void HAL_GPIO_DeInit(GPIO_TypeDef  *GPIOx, uint32_t GPIO_Pin)
{
 8003d70:	b580      	push	{r7, lr}
 8003d72:	b086      	sub	sp, #24
 8003d74:	af00      	add	r7, sp, #0
 8003d76:	6078      	str	r0, [r7, #4]
 8003d78:	6039      	str	r1, [r7, #0]
  uint32_t position = 0x00U;
 8003d7a:	2300      	movs	r3, #0
 8003d7c:	617b      	str	r3, [r7, #20]
  uint32_t iocurrent = 0x00U;
 8003d7e:	2300      	movs	r3, #0
 8003d80:	613b      	str	r3, [r7, #16]
  uint32_t tmp = 0x00U;
 8003d82:	2300      	movs	r3, #0
 8003d84:	60fb      	str	r3, [r7, #12]

  /* Check the parameters */
  assert_param(IS_GPIO_PIN_AVAILABLE(GPIOx, GPIO_Pin));

  /* Configure the port pins */
  while ((GPIO_Pin >> position) != 0)
 8003d86:	e0b0      	b.n	8003eea <HAL_GPIO_DeInit+0x17a>
  {
    /* Get the IO position */
    iocurrent = (GPIO_Pin) & (1U << position);
 8003d88:	2201      	movs	r2, #1
 8003d8a:	697b      	ldr	r3, [r7, #20]
 8003d8c:	409a      	lsls	r2, r3
 8003d8e:	683b      	ldr	r3, [r7, #0]
 8003d90:	4013      	ands	r3, r2
 8003d92:	613b      	str	r3, [r7, #16]

    if (iocurrent)
 8003d94:	693b      	ldr	r3, [r7, #16]
 8003d96:	2b00      	cmp	r3, #0
 8003d98:	d100      	bne.n	8003d9c <HAL_GPIO_DeInit+0x2c>
 8003d9a:	e0a3      	b.n	8003ee4 <HAL_GPIO_DeInit+0x174>
    {
      /*------------------------- EXTI Mode Configuration --------------------*/
      /* Clear the External Interrupt or Event for the current IO */

      tmp = SYSCFG->EXTICR[position >> 2U];
 8003d9c:	4a58      	ldr	r2, [pc, #352]	; (8003f00 <HAL_GPIO_DeInit+0x190>)
 8003d9e:	697b      	ldr	r3, [r7, #20]
 8003da0:	089b      	lsrs	r3, r3, #2
 8003da2:	3302      	adds	r3, #2
 8003da4:	009b      	lsls	r3, r3, #2
 8003da6:	589b      	ldr	r3, [r3, r2]
 8003da8:	60fb      	str	r3, [r7, #12]
      tmp &= ((0x0FUL) << (4U * (position & 0x03U)));
 8003daa:	697b      	ldr	r3, [r7, #20]
 8003dac:	2203      	movs	r2, #3
 8003dae:	4013      	ands	r3, r2
 8003db0:	009b      	lsls	r3, r3, #2
 8003db2:	220f      	movs	r2, #15
 8003db4:	409a      	lsls	r2, r3
 8003db6:	68fb      	ldr	r3, [r7, #12]
 8003db8:	4013      	ands	r3, r2
 8003dba:	60fb      	str	r3, [r7, #12]
      if (tmp == (GPIO_GET_INDEX(GPIOx) << (4U * (position & 0x03U))))
 8003dbc:	687a      	ldr	r2, [r7, #4]
 8003dbe:	23a0      	movs	r3, #160	; 0xa0
 8003dc0:	05db      	lsls	r3, r3, #23
 8003dc2:	429a      	cmp	r2, r3
 8003dc4:	d013      	beq.n	8003dee <HAL_GPIO_DeInit+0x7e>
 8003dc6:	687b      	ldr	r3, [r7, #4]
 8003dc8:	4a4e      	ldr	r2, [pc, #312]	; (8003f04 <HAL_GPIO_DeInit+0x194>)
 8003dca:	4293      	cmp	r3, r2
 8003dcc:	d00d      	beq.n	8003dea <HAL_GPIO_DeInit+0x7a>
 8003dce:	687b      	ldr	r3, [r7, #4]
 8003dd0:	4a4d      	ldr	r2, [pc, #308]	; (8003f08 <HAL_GPIO_DeInit+0x198>)
 8003dd2:	4293      	cmp	r3, r2
 8003dd4:	d007      	beq.n	8003de6 <HAL_GPIO_DeInit+0x76>
 8003dd6:	687b      	ldr	r3, [r7, #4]
 8003dd8:	4a4c      	ldr	r2, [pc, #304]	; (8003f0c <HAL_GPIO_DeInit+0x19c>)
 8003dda:	4293      	cmp	r3, r2
 8003ddc:	d101      	bne.n	8003de2 <HAL_GPIO_DeInit+0x72>
 8003dde:	2305      	movs	r3, #5
 8003de0:	e006      	b.n	8003df0 <HAL_GPIO_DeInit+0x80>
 8003de2:	2306      	movs	r3, #6
 8003de4:	e004      	b.n	8003df0 <HAL_GPIO_DeInit+0x80>
 8003de6:	2302      	movs	r3, #2
 8003de8:	e002      	b.n	8003df0 <HAL_GPIO_DeInit+0x80>
 8003dea:	2301      	movs	r3, #1
 8003dec:	e000      	b.n	8003df0 <HAL_GPIO_DeInit+0x80>
 8003dee:	2300      	movs	r3, #0
 8003df0:	697a      	ldr	r2, [r7, #20]
 8003df2:	2103      	movs	r1, #3
 8003df4:	400a      	ands	r2, r1
 8003df6:	0092      	lsls	r2, r2, #2
 8003df8:	4093      	lsls	r3, r2
 8003dfa:	68fa      	ldr	r2, [r7, #12]
 8003dfc:	429a      	cmp	r2, r3
 8003dfe:	d132      	bne.n	8003e66 <HAL_GPIO_DeInit+0xf6>
      {
        /* Clear EXTI line configuration */
        EXTI->IMR &= ~((uint32_t)iocurrent);
 8003e00:	4b43      	ldr	r3, [pc, #268]	; (8003f10 <HAL_GPIO_DeInit+0x1a0>)
 8003e02:	681a      	ldr	r2, [r3, #0]
 8003e04:	693b      	ldr	r3, [r7, #16]
 8003e06:	43d9      	mvns	r1, r3
 8003e08:	4b41      	ldr	r3, [pc, #260]	; (8003f10 <HAL_GPIO_DeInit+0x1a0>)
 8003e0a:	400a      	ands	r2, r1
 8003e0c:	601a      	str	r2, [r3, #0]
        EXTI->EMR &= ~((uint32_t)iocurrent);
 8003e0e:	4b40      	ldr	r3, [pc, #256]	; (8003f10 <HAL_GPIO_DeInit+0x1a0>)
 8003e10:	685a      	ldr	r2, [r3, #4]
 8003e12:	693b      	ldr	r3, [r7, #16]
 8003e14:	43d9      	mvns	r1, r3
 8003e16:	4b3e      	ldr	r3, [pc, #248]	; (8003f10 <HAL_GPIO_DeInit+0x1a0>)
 8003e18:	400a      	ands	r2, r1
 8003e1a:	605a      	str	r2, [r3, #4]

        /* Clear Rising Falling edge configuration */
        EXTI->RTSR &= ~((uint32_t)iocurrent);
 8003e1c:	4b3c      	ldr	r3, [pc, #240]	; (8003f10 <HAL_GPIO_DeInit+0x1a0>)
 8003e1e:	689a      	ldr	r2, [r3, #8]
 8003e20:	693b      	ldr	r3, [r7, #16]
 8003e22:	43d9      	mvns	r1, r3
 8003e24:	4b3a      	ldr	r3, [pc, #232]	; (8003f10 <HAL_GPIO_DeInit+0x1a0>)
 8003e26:	400a      	ands	r2, r1
 8003e28:	609a      	str	r2, [r3, #8]
        EXTI->FTSR &= ~((uint32_t)iocurrent);
 8003e2a:	4b39      	ldr	r3, [pc, #228]	; (8003f10 <HAL_GPIO_DeInit+0x1a0>)
 8003e2c:	68da      	ldr	r2, [r3, #12]
 8003e2e:	693b      	ldr	r3, [r7, #16]
 8003e30:	43d9      	mvns	r1, r3
 8003e32:	4b37      	ldr	r3, [pc, #220]	; (8003f10 <HAL_GPIO_DeInit+0x1a0>)
 8003e34:	400a      	ands	r2, r1
 8003e36:	60da      	str	r2, [r3, #12]
        
        tmp = (0x0FUL) << (4U * (position & 0x03U));
 8003e38:	697b      	ldr	r3, [r7, #20]
 8003e3a:	2203      	movs	r2, #3
 8003e3c:	4013      	ands	r3, r2
 8003e3e:	009b      	lsls	r3, r3, #2
 8003e40:	220f      	movs	r2, #15
 8003e42:	409a      	lsls	r2, r3
 8003e44:	0013      	movs	r3, r2
 8003e46:	60fb      	str	r3, [r7, #12]
        SYSCFG->EXTICR[position >> 2U] &= ~tmp;
 8003e48:	4a2d      	ldr	r2, [pc, #180]	; (8003f00 <HAL_GPIO_DeInit+0x190>)
 8003e4a:	697b      	ldr	r3, [r7, #20]
 8003e4c:	089b      	lsrs	r3, r3, #2
 8003e4e:	3302      	adds	r3, #2
 8003e50:	009b      	lsls	r3, r3, #2
 8003e52:	589a      	ldr	r2, [r3, r2]
 8003e54:	68fb      	ldr	r3, [r7, #12]
 8003e56:	43d9      	mvns	r1, r3
 8003e58:	4829      	ldr	r0, [pc, #164]	; (8003f00 <HAL_GPIO_DeInit+0x190>)
 8003e5a:	697b      	ldr	r3, [r7, #20]
 8003e5c:	089b      	lsrs	r3, r3, #2
 8003e5e:	400a      	ands	r2, r1
 8003e60:	3302      	adds	r3, #2
 8003e62:	009b      	lsls	r3, r3, #2
 8003e64:	501a      	str	r2, [r3, r0]
      }

      /*------------------------- GPIO Mode Configuration --------------------*/
      /* Configure IO Direction in Input Floting Mode */
      GPIOx->MODER |= (GPIO_MODER_MODE0 << (position * 2U));
 8003e66:	687b      	ldr	r3, [r7, #4]
 8003e68:	681a      	ldr	r2, [r3, #0]
 8003e6a:	697b      	ldr	r3, [r7, #20]
 8003e6c:	005b      	lsls	r3, r3, #1
 8003e6e:	2103      	movs	r1, #3
 8003e70:	4099      	lsls	r1, r3
 8003e72:	000b      	movs	r3, r1
 8003e74:	431a      	orrs	r2, r3
 8003e76:	687b      	ldr	r3, [r7, #4]
 8003e78:	601a      	str	r2, [r3, #0]

      /* Configure the default Alternate Function in current IO */
      GPIOx->AFR[position >> 3U] &= ~(0xFUL << ((uint32_t)(position & 0x07UL) * 4U));
 8003e7a:	697b      	ldr	r3, [r7, #20]
 8003e7c:	08da      	lsrs	r2, r3, #3
 8003e7e:	687b      	ldr	r3, [r7, #4]
 8003e80:	3208      	adds	r2, #8
 8003e82:	0092      	lsls	r2, r2, #2
 8003e84:	58d3      	ldr	r3, [r2, r3]
 8003e86:	697a      	ldr	r2, [r7, #20]
 8003e88:	2107      	movs	r1, #7
 8003e8a:	400a      	ands	r2, r1
 8003e8c:	0092      	lsls	r2, r2, #2
 8003e8e:	210f      	movs	r1, #15
 8003e90:	4091      	lsls	r1, r2
 8003e92:	000a      	movs	r2, r1
 8003e94:	43d1      	mvns	r1, r2
 8003e96:	697a      	ldr	r2, [r7, #20]
 8003e98:	08d2      	lsrs	r2, r2, #3
 8003e9a:	4019      	ands	r1, r3
 8003e9c:	687b      	ldr	r3, [r7, #4]
 8003e9e:	3208      	adds	r2, #8
 8003ea0:	0092      	lsls	r2, r2, #2
 8003ea2:	50d1      	str	r1, [r2, r3]

      /* Deactivate the Pull-up oand Pull-down resistor for the current IO */
      GPIOx->PUPDR &= ~(GPIO_PUPDR_PUPD0 << (position * 2U));
 8003ea4:	687b      	ldr	r3, [r7, #4]
 8003ea6:	68db      	ldr	r3, [r3, #12]
 8003ea8:	697a      	ldr	r2, [r7, #20]
 8003eaa:	0052      	lsls	r2, r2, #1
 8003eac:	2103      	movs	r1, #3
 8003eae:	4091      	lsls	r1, r2
 8003eb0:	000a      	movs	r2, r1
 8003eb2:	43d2      	mvns	r2, r2
 8003eb4:	401a      	ands	r2, r3
 8003eb6:	687b      	ldr	r3, [r7, #4]
 8003eb8:	60da      	str	r2, [r3, #12]

      /* Configure the default value IO Output Type */
      GPIOx->OTYPER  &= ~(GPIO_OTYPER_OT_0 << position);
 8003eba:	687b      	ldr	r3, [r7, #4]
 8003ebc:	685b      	ldr	r3, [r3, #4]
 8003ebe:	2101      	movs	r1, #1
 8003ec0:	697a      	ldr	r2, [r7, #20]
 8003ec2:	4091      	lsls	r1, r2
 8003ec4:	000a      	movs	r2, r1
 8003ec6:	43d2      	mvns	r2, r2
 8003ec8:	401a      	ands	r2, r3
 8003eca:	687b      	ldr	r3, [r7, #4]
 8003ecc:	605a      	str	r2, [r3, #4]

      /* Configure the default value for IO Speed */
      GPIOx->OSPEEDR &= ~(GPIO_OSPEEDER_OSPEED0 << (position * 2U));
 8003ece:	687b      	ldr	r3, [r7, #4]
 8003ed0:	689b      	ldr	r3, [r3, #8]
 8003ed2:	697a      	ldr	r2, [r7, #20]
 8003ed4:	0052      	lsls	r2, r2, #1
 8003ed6:	2103      	movs	r1, #3
 8003ed8:	4091      	lsls	r1, r2
 8003eda:	000a      	movs	r2, r1
 8003edc:	43d2      	mvns	r2, r2
 8003ede:	401a      	ands	r2, r3
 8003ee0:	687b      	ldr	r3, [r7, #4]
 8003ee2:	609a      	str	r2, [r3, #8]
    }
    position++;
 8003ee4:	697b      	ldr	r3, [r7, #20]
 8003ee6:	3301      	adds	r3, #1
 8003ee8:	617b      	str	r3, [r7, #20]
  while ((GPIO_Pin >> position) != 0)
 8003eea:	683a      	ldr	r2, [r7, #0]
 8003eec:	697b      	ldr	r3, [r7, #20]
 8003eee:	40da      	lsrs	r2, r3
 8003ef0:	1e13      	subs	r3, r2, #0
 8003ef2:	d000      	beq.n	8003ef6 <HAL_GPIO_DeInit+0x186>
 8003ef4:	e748      	b.n	8003d88 <HAL_GPIO_DeInit+0x18>
  }
}
 8003ef6:	46c0      	nop			; (mov r8, r8)
 8003ef8:	46c0      	nop			; (mov r8, r8)
 8003efa:	46bd      	mov	sp, r7
 8003efc:	b006      	add	sp, #24
 8003efe:	bd80      	pop	{r7, pc}
 8003f00:	40010000 	.word	0x40010000
 8003f04:	50000400 	.word	0x50000400
 8003f08:	50000800 	.word	0x50000800
 8003f0c:	50001c00 	.word	0x50001c00
 8003f10:	40010400 	.word	0x40010400

08003f14 <HAL_GPIO_ReadPin>:
  *                   This parameter can be GPIO_PIN_x where x can be (0..15).
  *                   All port bits are not necessarily available on all GPIOs.
  * @retval The input port pin value.
  */
GPIO_PinState HAL_GPIO_ReadPin(GPIO_TypeDef *GPIOx, uint16_t GPIO_Pin)
{
 8003f14:	b580      	push	{r7, lr}
 8003f16:	b084      	sub	sp, #16
 8003f18:	af00      	add	r7, sp, #0
 8003f1a:	6078      	str	r0, [r7, #4]
 8003f1c:	000a      	movs	r2, r1
 8003f1e:	1cbb      	adds	r3, r7, #2
 8003f20:	801a      	strh	r2, [r3, #0]
  GPIO_PinState bitstatus;

  /* Check the parameters */
  assert_param(IS_GPIO_PIN_AVAILABLE(GPIOx, GPIO_Pin));

  if ((GPIOx->IDR & GPIO_Pin) != (uint32_t)GPIO_PIN_RESET)
 8003f22:	687b      	ldr	r3, [r7, #4]
 8003f24:	691b      	ldr	r3, [r3, #16]
 8003f26:	1cba      	adds	r2, r7, #2
 8003f28:	8812      	ldrh	r2, [r2, #0]
 8003f2a:	4013      	ands	r3, r2
 8003f2c:	d004      	beq.n	8003f38 <HAL_GPIO_ReadPin+0x24>
  {
    bitstatus = GPIO_PIN_SET;
 8003f2e:	230f      	movs	r3, #15
 8003f30:	18fb      	adds	r3, r7, r3
 8003f32:	2201      	movs	r2, #1
 8003f34:	701a      	strb	r2, [r3, #0]
 8003f36:	e003      	b.n	8003f40 <HAL_GPIO_ReadPin+0x2c>
  }
  else
  {
    bitstatus = GPIO_PIN_RESET;
 8003f38:	230f      	movs	r3, #15
 8003f3a:	18fb      	adds	r3, r7, r3
 8003f3c:	2200      	movs	r2, #0
 8003f3e:	701a      	strb	r2, [r3, #0]
  }
  return bitstatus;
 8003f40:	230f      	movs	r3, #15
 8003f42:	18fb      	adds	r3, r7, r3
 8003f44:	781b      	ldrb	r3, [r3, #0]
}
 8003f46:	0018      	movs	r0, r3
 8003f48:	46bd      	mov	sp, r7
 8003f4a:	b004      	add	sp, #16
 8003f4c:	bd80      	pop	{r7, pc}

08003f4e <HAL_GPIO_WritePin>:
  *                        GPIO_PIN_RESET: to clear the port pin
  *                        GPIO_PIN_SET: to set the port pin
  * @retval None
  */
void HAL_GPIO_WritePin(GPIO_TypeDef *GPIOx, uint16_t GPIO_Pin, GPIO_PinState PinState)
{
 8003f4e:	b580      	push	{r7, lr}
 8003f50:	b082      	sub	sp, #8
 8003f52:	af00      	add	r7, sp, #0
 8003f54:	6078      	str	r0, [r7, #4]
 8003f56:	0008      	movs	r0, r1
 8003f58:	0011      	movs	r1, r2
 8003f5a:	1cbb      	adds	r3, r7, #2
 8003f5c:	1c02      	adds	r2, r0, #0
 8003f5e:	801a      	strh	r2, [r3, #0]
 8003f60:	1c7b      	adds	r3, r7, #1
 8003f62:	1c0a      	adds	r2, r1, #0
 8003f64:	701a      	strb	r2, [r3, #0]
  /* Check the parameters */
  assert_param(IS_GPIO_PIN_AVAILABLE(GPIOx, GPIO_Pin));
  assert_param(IS_GPIO_PIN_ACTION(PinState));

  if (PinState != GPIO_PIN_RESET)
 8003f66:	1c7b      	adds	r3, r7, #1
 8003f68:	781b      	ldrb	r3, [r3, #0]
 8003f6a:	2b00      	cmp	r3, #0
 8003f6c:	d004      	beq.n	8003f78 <HAL_GPIO_WritePin+0x2a>
  {
    GPIOx->BSRR = GPIO_Pin;
 8003f6e:	1cbb      	adds	r3, r7, #2
 8003f70:	881a      	ldrh	r2, [r3, #0]
 8003f72:	687b      	ldr	r3, [r7, #4]
 8003f74:	619a      	str	r2, [r3, #24]
  }
  else
  {
    GPIOx->BRR = GPIO_Pin ;
  }
}
 8003f76:	e003      	b.n	8003f80 <HAL_GPIO_WritePin+0x32>
    GPIOx->BRR = GPIO_Pin ;
 8003f78:	1cbb      	adds	r3, r7, #2
 8003f7a:	881a      	ldrh	r2, [r3, #0]
 8003f7c:	687b      	ldr	r3, [r7, #4]
 8003f7e:	629a      	str	r2, [r3, #40]	; 0x28
}
 8003f80:	46c0      	nop			; (mov r8, r8)
 8003f82:	46bd      	mov	sp, r7
 8003f84:	b002      	add	sp, #8
 8003f86:	bd80      	pop	{r7, pc}

08003f88 <HAL_I2C_Init>:
  * @param  hi2c Pointer to a I2C_HandleTypeDef structure that contains
  *                the configuration information for the specified I2C.
  * @retval HAL status
  */
HAL_StatusTypeDef HAL_I2C_Init(I2C_HandleTypeDef *hi2c)
{
 8003f88:	b580      	push	{r7, lr}
 8003f8a:	b082      	sub	sp, #8
 8003f8c:	af00      	add	r7, sp, #0
 8003f8e:	6078      	str	r0, [r7, #4]
  /* Check the I2C handle allocation */
  if (hi2c == NULL)
 8003f90:	687b      	ldr	r3, [r7, #4]
 8003f92:	2b00      	cmp	r3, #0
 8003f94:	d101      	bne.n	8003f9a <HAL_I2C_Init+0x12>
  {
    return HAL_ERROR;
 8003f96:	2301      	movs	r3, #1
 8003f98:	e082      	b.n	80040a0 <HAL_I2C_Init+0x118>
  assert_param(IS_I2C_OWN_ADDRESS2(hi2c->Init.OwnAddress2));
  assert_param(IS_I2C_OWN_ADDRESS2_MASK(hi2c->Init.OwnAddress2Masks));
  assert_param(IS_I2C_GENERAL_CALL(hi2c->Init.GeneralCallMode));
  assert_param(IS_I2C_NO_STRETCH(hi2c->Init.NoStretchMode));

  if (hi2c->State == HAL_I2C_STATE_RESET)
 8003f9a:	687b      	ldr	r3, [r7, #4]
 8003f9c:	2241      	movs	r2, #65	; 0x41
 8003f9e:	5c9b      	ldrb	r3, [r3, r2]
 8003fa0:	b2db      	uxtb	r3, r3
 8003fa2:	2b00      	cmp	r3, #0
 8003fa4:	d107      	bne.n	8003fb6 <HAL_I2C_Init+0x2e>
  {
    /* Allocate lock resource and initialize it */
    hi2c->Lock = HAL_UNLOCKED;
 8003fa6:	687b      	ldr	r3, [r7, #4]
 8003fa8:	2240      	movs	r2, #64	; 0x40
 8003faa:	2100      	movs	r1, #0
 8003fac:	5499      	strb	r1, [r3, r2]

    /* Init the low level hardware : GPIO, CLOCK, CORTEX...etc */
    hi2c->MspInitCallback(hi2c);
#else
    /* Init the low level hardware : GPIO, CLOCK, CORTEX...etc */
    HAL_I2C_MspInit(hi2c);
 8003fae:	687b      	ldr	r3, [r7, #4]
 8003fb0:	0018      	movs	r0, r3
 8003fb2:	f7fe fca9 	bl	8002908 <HAL_I2C_MspInit>
#endif /* USE_HAL_I2C_REGISTER_CALLBACKS */
  }

  hi2c->State = HAL_I2C_STATE_BUSY;
 8003fb6:	687b      	ldr	r3, [r7, #4]
 8003fb8:	2241      	movs	r2, #65	; 0x41
 8003fba:	2124      	movs	r1, #36	; 0x24
 8003fbc:	5499      	strb	r1, [r3, r2]

  /* Disable the selected I2C peripheral */
  __HAL_I2C_DISABLE(hi2c);
 8003fbe:	687b      	ldr	r3, [r7, #4]
 8003fc0:	681b      	ldr	r3, [r3, #0]
 8003fc2:	681a      	ldr	r2, [r3, #0]
 8003fc4:	687b      	ldr	r3, [r7, #4]
 8003fc6:	681b      	ldr	r3, [r3, #0]
 8003fc8:	2101      	movs	r1, #1
 8003fca:	438a      	bics	r2, r1
 8003fcc:	601a      	str	r2, [r3, #0]

  /*---------------------------- I2Cx TIMINGR Configuration ------------------*/
  /* Configure I2Cx: Frequency range */
  hi2c->Instance->TIMINGR = hi2c->Init.Timing & TIMING_CLEAR_MASK;
 8003fce:	687b      	ldr	r3, [r7, #4]
 8003fd0:	685a      	ldr	r2, [r3, #4]
 8003fd2:	687b      	ldr	r3, [r7, #4]
 8003fd4:	681b      	ldr	r3, [r3, #0]
 8003fd6:	4934      	ldr	r1, [pc, #208]	; (80040a8 <HAL_I2C_Init+0x120>)
 8003fd8:	400a      	ands	r2, r1
 8003fda:	611a      	str	r2, [r3, #16]

  /*---------------------------- I2Cx OAR1 Configuration ---------------------*/
  /* Disable Own Address1 before set the Own Address1 configuration */
  hi2c->Instance->OAR1 &= ~I2C_OAR1_OA1EN;
 8003fdc:	687b      	ldr	r3, [r7, #4]
 8003fde:	681b      	ldr	r3, [r3, #0]
 8003fe0:	689a      	ldr	r2, [r3, #8]
 8003fe2:	687b      	ldr	r3, [r7, #4]
 8003fe4:	681b      	ldr	r3, [r3, #0]
 8003fe6:	4931      	ldr	r1, [pc, #196]	; (80040ac <HAL_I2C_Init+0x124>)
 8003fe8:	400a      	ands	r2, r1
 8003fea:	609a      	str	r2, [r3, #8]

  /* Configure I2Cx: Own Address1 and ack own address1 mode */
  if (hi2c->Init.AddressingMode == I2C_ADDRESSINGMODE_7BIT)
 8003fec:	687b      	ldr	r3, [r7, #4]
 8003fee:	68db      	ldr	r3, [r3, #12]
 8003ff0:	2b01      	cmp	r3, #1
 8003ff2:	d108      	bne.n	8004006 <HAL_I2C_Init+0x7e>
  {
    hi2c->Instance->OAR1 = (I2C_OAR1_OA1EN | hi2c->Init.OwnAddress1);
 8003ff4:	687b      	ldr	r3, [r7, #4]
 8003ff6:	689a      	ldr	r2, [r3, #8]
 8003ff8:	687b      	ldr	r3, [r7, #4]
 8003ffa:	681b      	ldr	r3, [r3, #0]
 8003ffc:	2180      	movs	r1, #128	; 0x80
 8003ffe:	0209      	lsls	r1, r1, #8
 8004000:	430a      	orrs	r2, r1
 8004002:	609a      	str	r2, [r3, #8]
 8004004:	e007      	b.n	8004016 <HAL_I2C_Init+0x8e>
  }
  else /* I2C_ADDRESSINGMODE_10BIT */
  {
    hi2c->Instance->OAR1 = (I2C_OAR1_OA1EN | I2C_OAR1_OA1MODE | hi2c->Init.OwnAddress1);
 8004006:	687b      	ldr	r3, [r7, #4]
 8004008:	689a      	ldr	r2, [r3, #8]
 800400a:	687b      	ldr	r3, [r7, #4]
 800400c:	681b      	ldr	r3, [r3, #0]
 800400e:	2184      	movs	r1, #132	; 0x84
 8004010:	0209      	lsls	r1, r1, #8
 8004012:	430a      	orrs	r2, r1
 8004014:	609a      	str	r2, [r3, #8]
  }

  /*---------------------------- I2Cx CR2 Configuration ----------------------*/
  /* Configure I2Cx: Addressing Master mode */
  if (hi2c->Init.AddressingMode == I2C_ADDRESSINGMODE_10BIT)
 8004016:	687b      	ldr	r3, [r7, #4]
 8004018:	68db      	ldr	r3, [r3, #12]
 800401a:	2b02      	cmp	r3, #2
 800401c:	d104      	bne.n	8004028 <HAL_I2C_Init+0xa0>
  {
    hi2c->Instance->CR2 = (I2C_CR2_ADD10);
 800401e:	687b      	ldr	r3, [r7, #4]
 8004020:	681b      	ldr	r3, [r3, #0]
 8004022:	2280      	movs	r2, #128	; 0x80
 8004024:	0112      	lsls	r2, r2, #4
 8004026:	605a      	str	r2, [r3, #4]
  }
  /* Enable the AUTOEND by default, and enable NACK (should be disable only during Slave process */
  hi2c->Instance->CR2 |= (I2C_CR2_AUTOEND | I2C_CR2_NACK);
 8004028:	687b      	ldr	r3, [r7, #4]
 800402a:	681b      	ldr	r3, [r3, #0]
 800402c:	685a      	ldr	r2, [r3, #4]
 800402e:	687b      	ldr	r3, [r7, #4]
 8004030:	681b      	ldr	r3, [r3, #0]
 8004032:	491f      	ldr	r1, [pc, #124]	; (80040b0 <HAL_I2C_Init+0x128>)
 8004034:	430a      	orrs	r2, r1
 8004036:	605a      	str	r2, [r3, #4]

  /*---------------------------- I2Cx OAR2 Configuration ---------------------*/
  /* Disable Own Address2 before set the Own Address2 configuration */
  hi2c->Instance->OAR2 &= ~I2C_DUALADDRESS_ENABLE;
 8004038:	687b      	ldr	r3, [r7, #4]
 800403a:	681b      	ldr	r3, [r3, #0]
 800403c:	68da      	ldr	r2, [r3, #12]
 800403e:	687b      	ldr	r3, [r7, #4]
 8004040:	681b      	ldr	r3, [r3, #0]
 8004042:	491a      	ldr	r1, [pc, #104]	; (80040ac <HAL_I2C_Init+0x124>)
 8004044:	400a      	ands	r2, r1
 8004046:	60da      	str	r2, [r3, #12]

  /* Configure I2Cx: Dual mode and Own Address2 */
  hi2c->Instance->OAR2 = (hi2c->Init.DualAddressMode | hi2c->Init.OwnAddress2 | \
 8004048:	687b      	ldr	r3, [r7, #4]
 800404a:	691a      	ldr	r2, [r3, #16]
 800404c:	687b      	ldr	r3, [r7, #4]
 800404e:	695b      	ldr	r3, [r3, #20]
 8004050:	431a      	orrs	r2, r3
 8004052:	0011      	movs	r1, r2
                          (hi2c->Init.OwnAddress2Masks << 8));
 8004054:	687b      	ldr	r3, [r7, #4]
 8004056:	699b      	ldr	r3, [r3, #24]
 8004058:	021a      	lsls	r2, r3, #8
  hi2c->Instance->OAR2 = (hi2c->Init.DualAddressMode | hi2c->Init.OwnAddress2 | \
 800405a:	687b      	ldr	r3, [r7, #4]
 800405c:	681b      	ldr	r3, [r3, #0]
 800405e:	430a      	orrs	r2, r1
 8004060:	60da      	str	r2, [r3, #12]

  /*---------------------------- I2Cx CR1 Configuration ----------------------*/
  /* Configure I2Cx: Generalcall and NoStretch mode */
  hi2c->Instance->CR1 = (hi2c->Init.GeneralCallMode | hi2c->Init.NoStretchMode);
 8004062:	687b      	ldr	r3, [r7, #4]
 8004064:	69d9      	ldr	r1, [r3, #28]
 8004066:	687b      	ldr	r3, [r7, #4]
 8004068:	6a1a      	ldr	r2, [r3, #32]
 800406a:	687b      	ldr	r3, [r7, #4]
 800406c:	681b      	ldr	r3, [r3, #0]
 800406e:	430a      	orrs	r2, r1
 8004070:	601a      	str	r2, [r3, #0]

  /* Enable the selected I2C peripheral */
  __HAL_I2C_ENABLE(hi2c);
 8004072:	687b      	ldr	r3, [r7, #4]
 8004074:	681b      	ldr	r3, [r3, #0]
 8004076:	681a      	ldr	r2, [r3, #0]
 8004078:	687b      	ldr	r3, [r7, #4]
 800407a:	681b      	ldr	r3, [r3, #0]
 800407c:	2101      	movs	r1, #1
 800407e:	430a      	orrs	r2, r1
 8004080:	601a      	str	r2, [r3, #0]

  hi2c->ErrorCode = HAL_I2C_ERROR_NONE;
 8004082:	687b      	ldr	r3, [r7, #4]
 8004084:	2200      	movs	r2, #0
 8004086:	645a      	str	r2, [r3, #68]	; 0x44
  hi2c->State = HAL_I2C_STATE_READY;
 8004088:	687b      	ldr	r3, [r7, #4]
 800408a:	2241      	movs	r2, #65	; 0x41
 800408c:	2120      	movs	r1, #32
 800408e:	5499      	strb	r1, [r3, r2]
  hi2c->PreviousState = I2C_STATE_NONE;
 8004090:	687b      	ldr	r3, [r7, #4]
 8004092:	2200      	movs	r2, #0
 8004094:	631a      	str	r2, [r3, #48]	; 0x30
  hi2c->Mode = HAL_I2C_MODE_NONE;
 8004096:	687b      	ldr	r3, [r7, #4]
 8004098:	2242      	movs	r2, #66	; 0x42
 800409a:	2100      	movs	r1, #0
 800409c:	5499      	strb	r1, [r3, r2]

  return HAL_OK;
 800409e:	2300      	movs	r3, #0
}
 80040a0:	0018      	movs	r0, r3
 80040a2:	46bd      	mov	sp, r7
 80040a4:	b002      	add	sp, #8
 80040a6:	bd80      	pop	{r7, pc}
 80040a8:	f0ffffff 	.word	0xf0ffffff
 80040ac:	ffff7fff 	.word	0xffff7fff
 80040b0:	02008000 	.word	0x02008000

080040b4 <HAL_I2C_DeInit>:
  * @param  hi2c Pointer to a I2C_HandleTypeDef structure that contains
  *                the configuration information for the specified I2C.
  * @retval HAL status
  */
HAL_StatusTypeDef HAL_I2C_DeInit(I2C_HandleTypeDef *hi2c)
{
 80040b4:	b580      	push	{r7, lr}
 80040b6:	b082      	sub	sp, #8
 80040b8:	af00      	add	r7, sp, #0
 80040ba:	6078      	str	r0, [r7, #4]
  /* Check the I2C handle allocation */
  if (hi2c == NULL)
 80040bc:	687b      	ldr	r3, [r7, #4]
 80040be:	2b00      	cmp	r3, #0
 80040c0:	d101      	bne.n	80040c6 <HAL_I2C_DeInit+0x12>
  {
    return HAL_ERROR;
 80040c2:	2301      	movs	r3, #1
 80040c4:	e022      	b.n	800410c <HAL_I2C_DeInit+0x58>
  }

  /* Check the parameters */
  assert_param(IS_I2C_ALL_INSTANCE(hi2c->Instance));

  hi2c->State = HAL_I2C_STATE_BUSY;
 80040c6:	687b      	ldr	r3, [r7, #4]
 80040c8:	2241      	movs	r2, #65	; 0x41
 80040ca:	2124      	movs	r1, #36	; 0x24
 80040cc:	5499      	strb	r1, [r3, r2]

  /* Disable the I2C Peripheral Clock */
  __HAL_I2C_DISABLE(hi2c);
 80040ce:	687b      	ldr	r3, [r7, #4]
 80040d0:	681b      	ldr	r3, [r3, #0]
 80040d2:	681a      	ldr	r2, [r3, #0]
 80040d4:	687b      	ldr	r3, [r7, #4]
 80040d6:	681b      	ldr	r3, [r3, #0]
 80040d8:	2101      	movs	r1, #1
 80040da:	438a      	bics	r2, r1
 80040dc:	601a      	str	r2, [r3, #0]

  /* DeInit the low level hardware: GPIO, CLOCK, NVIC */
  hi2c->MspDeInitCallback(hi2c);
#else
  /* DeInit the low level hardware: GPIO, CLOCK, NVIC */
  HAL_I2C_MspDeInit(hi2c);
 80040de:	687b      	ldr	r3, [r7, #4]
 80040e0:	0018      	movs	r0, r3
 80040e2:	f7fe fc55 	bl	8002990 <HAL_I2C_MspDeInit>
#endif /* USE_HAL_I2C_REGISTER_CALLBACKS */

  hi2c->ErrorCode = HAL_I2C_ERROR_NONE;
 80040e6:	687b      	ldr	r3, [r7, #4]
 80040e8:	2200      	movs	r2, #0
 80040ea:	645a      	str	r2, [r3, #68]	; 0x44
  hi2c->State = HAL_I2C_STATE_RESET;
 80040ec:	687b      	ldr	r3, [r7, #4]
 80040ee:	2241      	movs	r2, #65	; 0x41
 80040f0:	2100      	movs	r1, #0
 80040f2:	5499      	strb	r1, [r3, r2]
  hi2c->PreviousState = I2C_STATE_NONE;
 80040f4:	687b      	ldr	r3, [r7, #4]
 80040f6:	2200      	movs	r2, #0
 80040f8:	631a      	str	r2, [r3, #48]	; 0x30
  hi2c->Mode = HAL_I2C_MODE_NONE;
 80040fa:	687b      	ldr	r3, [r7, #4]
 80040fc:	2242      	movs	r2, #66	; 0x42
 80040fe:	2100      	movs	r1, #0
 8004100:	5499      	strb	r1, [r3, r2]

  /* Release Lock */
  __HAL_UNLOCK(hi2c);
 8004102:	687b      	ldr	r3, [r7, #4]
 8004104:	2240      	movs	r2, #64	; 0x40
 8004106:	2100      	movs	r1, #0
 8004108:	5499      	strb	r1, [r3, r2]

  return HAL_OK;
 800410a:	2300      	movs	r3, #0
}
 800410c:	0018      	movs	r0, r3
 800410e:	46bd      	mov	sp, r7
 8004110:	b002      	add	sp, #8
 8004112:	bd80      	pop	{r7, pc}

08004114 <HAL_I2C_Master_Transmit>:
  * @param  Timeout Timeout duration
  * @retval HAL status
  */
HAL_StatusTypeDef HAL_I2C_Master_Transmit(I2C_HandleTypeDef *hi2c, uint16_t DevAddress, uint8_t *pData,
                                          uint16_t Size, uint32_t Timeout)
{
 8004114:	b590      	push	{r4, r7, lr}
 8004116:	b089      	sub	sp, #36	; 0x24
 8004118:	af02      	add	r7, sp, #8
 800411a:	60f8      	str	r0, [r7, #12]
 800411c:	0008      	movs	r0, r1
 800411e:	607a      	str	r2, [r7, #4]
 8004120:	0019      	movs	r1, r3
 8004122:	230a      	movs	r3, #10
 8004124:	18fb      	adds	r3, r7, r3
 8004126:	1c02      	adds	r2, r0, #0
 8004128:	801a      	strh	r2, [r3, #0]
 800412a:	2308      	movs	r3, #8
 800412c:	18fb      	adds	r3, r7, r3
 800412e:	1c0a      	adds	r2, r1, #0
 8004130:	801a      	strh	r2, [r3, #0]
  uint32_t tickstart;

  if (hi2c->State == HAL_I2C_STATE_READY)
 8004132:	68fb      	ldr	r3, [r7, #12]
 8004134:	2241      	movs	r2, #65	; 0x41
 8004136:	5c9b      	ldrb	r3, [r3, r2]
 8004138:	b2db      	uxtb	r3, r3
 800413a:	2b20      	cmp	r3, #32
 800413c:	d000      	beq.n	8004140 <HAL_I2C_Master_Transmit+0x2c>
 800413e:	e0e7      	b.n	8004310 <HAL_I2C_Master_Transmit+0x1fc>
  {
    /* Process Locked */
    __HAL_LOCK(hi2c);
 8004140:	68fb      	ldr	r3, [r7, #12]
 8004142:	2240      	movs	r2, #64	; 0x40
 8004144:	5c9b      	ldrb	r3, [r3, r2]
 8004146:	2b01      	cmp	r3, #1
 8004148:	d101      	bne.n	800414e <HAL_I2C_Master_Transmit+0x3a>
 800414a:	2302      	movs	r3, #2
 800414c:	e0e1      	b.n	8004312 <HAL_I2C_Master_Transmit+0x1fe>
 800414e:	68fb      	ldr	r3, [r7, #12]
 8004150:	2240      	movs	r2, #64	; 0x40
 8004152:	2101      	movs	r1, #1
 8004154:	5499      	strb	r1, [r3, r2]

    /* Init tickstart for timeout management*/
    tickstart = HAL_GetTick();
 8004156:	f7fe fdfb 	bl	8002d50 <HAL_GetTick>
 800415a:	0003      	movs	r3, r0
 800415c:	617b      	str	r3, [r7, #20]

    if (I2C_WaitOnFlagUntilTimeout(hi2c, I2C_FLAG_BUSY, SET, I2C_TIMEOUT_BUSY, tickstart) != HAL_OK)
 800415e:	2380      	movs	r3, #128	; 0x80
 8004160:	0219      	lsls	r1, r3, #8
 8004162:	68f8      	ldr	r0, [r7, #12]
 8004164:	697b      	ldr	r3, [r7, #20]
 8004166:	9300      	str	r3, [sp, #0]
 8004168:	2319      	movs	r3, #25
 800416a:	2201      	movs	r2, #1
 800416c:	f000 fa04 	bl	8004578 <I2C_WaitOnFlagUntilTimeout>
 8004170:	1e03      	subs	r3, r0, #0
 8004172:	d001      	beq.n	8004178 <HAL_I2C_Master_Transmit+0x64>
    {
      return HAL_ERROR;
 8004174:	2301      	movs	r3, #1
 8004176:	e0cc      	b.n	8004312 <HAL_I2C_Master_Transmit+0x1fe>
    }

    hi2c->State     = HAL_I2C_STATE_BUSY_TX;
 8004178:	68fb      	ldr	r3, [r7, #12]
 800417a:	2241      	movs	r2, #65	; 0x41
 800417c:	2121      	movs	r1, #33	; 0x21
 800417e:	5499      	strb	r1, [r3, r2]
    hi2c->Mode      = HAL_I2C_MODE_MASTER;
 8004180:	68fb      	ldr	r3, [r7, #12]
 8004182:	2242      	movs	r2, #66	; 0x42
 8004184:	2110      	movs	r1, #16
 8004186:	5499      	strb	r1, [r3, r2]
    hi2c->ErrorCode = HAL_I2C_ERROR_NONE;
 8004188:	68fb      	ldr	r3, [r7, #12]
 800418a:	2200      	movs	r2, #0
 800418c:	645a      	str	r2, [r3, #68]	; 0x44

    /* Prepare transfer parameters */
    hi2c->pBuffPtr  = pData;
 800418e:	68fb      	ldr	r3, [r7, #12]
 8004190:	687a      	ldr	r2, [r7, #4]
 8004192:	625a      	str	r2, [r3, #36]	; 0x24
    hi2c->XferCount = Size;
 8004194:	68fb      	ldr	r3, [r7, #12]
 8004196:	2208      	movs	r2, #8
 8004198:	18ba      	adds	r2, r7, r2
 800419a:	8812      	ldrh	r2, [r2, #0]
 800419c:	855a      	strh	r2, [r3, #42]	; 0x2a
    hi2c->XferISR   = NULL;
 800419e:	68fb      	ldr	r3, [r7, #12]
 80041a0:	2200      	movs	r2, #0
 80041a2:	635a      	str	r2, [r3, #52]	; 0x34

    /* Send Slave Address */
    /* Set NBYTES to write and reload if hi2c->XferCount > MAX_NBYTE_SIZE and generate RESTART */
    if (hi2c->XferCount > MAX_NBYTE_SIZE)
 80041a4:	68fb      	ldr	r3, [r7, #12]
 80041a6:	8d5b      	ldrh	r3, [r3, #42]	; 0x2a
 80041a8:	b29b      	uxth	r3, r3
 80041aa:	2bff      	cmp	r3, #255	; 0xff
 80041ac:	d911      	bls.n	80041d2 <HAL_I2C_Master_Transmit+0xbe>
    {
      hi2c->XferSize = MAX_NBYTE_SIZE;
 80041ae:	68fb      	ldr	r3, [r7, #12]
 80041b0:	22ff      	movs	r2, #255	; 0xff
 80041b2:	851a      	strh	r2, [r3, #40]	; 0x28
      I2C_TransferConfig(hi2c, DevAddress, (uint8_t)hi2c->XferSize, I2C_RELOAD_MODE,
 80041b4:	68fb      	ldr	r3, [r7, #12]
 80041b6:	8d1b      	ldrh	r3, [r3, #40]	; 0x28
 80041b8:	b2da      	uxtb	r2, r3
 80041ba:	2380      	movs	r3, #128	; 0x80
 80041bc:	045c      	lsls	r4, r3, #17
 80041be:	230a      	movs	r3, #10
 80041c0:	18fb      	adds	r3, r7, r3
 80041c2:	8819      	ldrh	r1, [r3, #0]
 80041c4:	68f8      	ldr	r0, [r7, #12]
 80041c6:	4b55      	ldr	r3, [pc, #340]	; (800431c <HAL_I2C_Master_Transmit+0x208>)
 80041c8:	9300      	str	r3, [sp, #0]
 80041ca:	0023      	movs	r3, r4
 80041cc:	f000 fb74 	bl	80048b8 <I2C_TransferConfig>
 80041d0:	e075      	b.n	80042be <HAL_I2C_Master_Transmit+0x1aa>
                         I2C_GENERATE_START_WRITE);
    }
    else
    {
      hi2c->XferSize = hi2c->XferCount;
 80041d2:	68fb      	ldr	r3, [r7, #12]
 80041d4:	8d5b      	ldrh	r3, [r3, #42]	; 0x2a
 80041d6:	b29a      	uxth	r2, r3
 80041d8:	68fb      	ldr	r3, [r7, #12]
 80041da:	851a      	strh	r2, [r3, #40]	; 0x28
      I2C_TransferConfig(hi2c, DevAddress, (uint8_t)hi2c->XferSize, I2C_AUTOEND_MODE,
 80041dc:	68fb      	ldr	r3, [r7, #12]
 80041de:	8d1b      	ldrh	r3, [r3, #40]	; 0x28
 80041e0:	b2da      	uxtb	r2, r3
 80041e2:	2380      	movs	r3, #128	; 0x80
 80041e4:	049c      	lsls	r4, r3, #18
 80041e6:	230a      	movs	r3, #10
 80041e8:	18fb      	adds	r3, r7, r3
 80041ea:	8819      	ldrh	r1, [r3, #0]
 80041ec:	68f8      	ldr	r0, [r7, #12]
 80041ee:	4b4b      	ldr	r3, [pc, #300]	; (800431c <HAL_I2C_Master_Transmit+0x208>)
 80041f0:	9300      	str	r3, [sp, #0]
 80041f2:	0023      	movs	r3, r4
 80041f4:	f000 fb60 	bl	80048b8 <I2C_TransferConfig>
                         I2C_GENERATE_START_WRITE);
    }

    while (hi2c->XferCount > 0U)
 80041f8:	e061      	b.n	80042be <HAL_I2C_Master_Transmit+0x1aa>
    {
      /* Wait until TXIS flag is set */
      if (I2C_WaitOnTXISFlagUntilTimeout(hi2c, Timeout, tickstart) != HAL_OK)
 80041fa:	697a      	ldr	r2, [r7, #20]
 80041fc:	6ab9      	ldr	r1, [r7, #40]	; 0x28
 80041fe:	68fb      	ldr	r3, [r7, #12]
 8004200:	0018      	movs	r0, r3
 8004202:	f000 f9f8 	bl	80045f6 <I2C_WaitOnTXISFlagUntilTimeout>
 8004206:	1e03      	subs	r3, r0, #0
 8004208:	d001      	beq.n	800420e <HAL_I2C_Master_Transmit+0xfa>
      {
        return HAL_ERROR;
 800420a:	2301      	movs	r3, #1
 800420c:	e081      	b.n	8004312 <HAL_I2C_Master_Transmit+0x1fe>
      }
      /* Write data to TXDR */
      hi2c->Instance->TXDR = *hi2c->pBuffPtr;
 800420e:	68fb      	ldr	r3, [r7, #12]
 8004210:	6a5b      	ldr	r3, [r3, #36]	; 0x24
 8004212:	781a      	ldrb	r2, [r3, #0]
 8004214:	68fb      	ldr	r3, [r7, #12]
 8004216:	681b      	ldr	r3, [r3, #0]
 8004218:	629a      	str	r2, [r3, #40]	; 0x28

      /* Increment Buffer pointer */
      hi2c->pBuffPtr++;
 800421a:	68fb      	ldr	r3, [r7, #12]
 800421c:	6a5b      	ldr	r3, [r3, #36]	; 0x24
 800421e:	1c5a      	adds	r2, r3, #1
 8004220:	68fb      	ldr	r3, [r7, #12]
 8004222:	625a      	str	r2, [r3, #36]	; 0x24

      hi2c->XferCount--;
 8004224:	68fb      	ldr	r3, [r7, #12]
 8004226:	8d5b      	ldrh	r3, [r3, #42]	; 0x2a
 8004228:	b29b      	uxth	r3, r3
 800422a:	3b01      	subs	r3, #1
 800422c:	b29a      	uxth	r2, r3
 800422e:	68fb      	ldr	r3, [r7, #12]
 8004230:	855a      	strh	r2, [r3, #42]	; 0x2a
      hi2c->XferSize--;
 8004232:	68fb      	ldr	r3, [r7, #12]
 8004234:	8d1b      	ldrh	r3, [r3, #40]	; 0x28
 8004236:	3b01      	subs	r3, #1
 8004238:	b29a      	uxth	r2, r3
 800423a:	68fb      	ldr	r3, [r7, #12]
 800423c:	851a      	strh	r2, [r3, #40]	; 0x28

      if ((hi2c->XferCount != 0U) && (hi2c->XferSize == 0U))
 800423e:	68fb      	ldr	r3, [r7, #12]
 8004240:	8d5b      	ldrh	r3, [r3, #42]	; 0x2a
 8004242:	b29b      	uxth	r3, r3
 8004244:	2b00      	cmp	r3, #0
 8004246:	d03a      	beq.n	80042be <HAL_I2C_Master_Transmit+0x1aa>
 8004248:	68fb      	ldr	r3, [r7, #12]
 800424a:	8d1b      	ldrh	r3, [r3, #40]	; 0x28
 800424c:	2b00      	cmp	r3, #0
 800424e:	d136      	bne.n	80042be <HAL_I2C_Master_Transmit+0x1aa>
      {
        /* Wait until TCR flag is set */
        if (I2C_WaitOnFlagUntilTimeout(hi2c, I2C_FLAG_TCR, RESET, Timeout, tickstart) != HAL_OK)
 8004250:	6aba      	ldr	r2, [r7, #40]	; 0x28
 8004252:	68f8      	ldr	r0, [r7, #12]
 8004254:	697b      	ldr	r3, [r7, #20]
 8004256:	9300      	str	r3, [sp, #0]
 8004258:	0013      	movs	r3, r2
 800425a:	2200      	movs	r2, #0
 800425c:	2180      	movs	r1, #128	; 0x80
 800425e:	f000 f98b 	bl	8004578 <I2C_WaitOnFlagUntilTimeout>
 8004262:	1e03      	subs	r3, r0, #0
 8004264:	d001      	beq.n	800426a <HAL_I2C_Master_Transmit+0x156>
        {
          return HAL_ERROR;
 8004266:	2301      	movs	r3, #1
 8004268:	e053      	b.n	8004312 <HAL_I2C_Master_Transmit+0x1fe>
        }

        if (hi2c->XferCount > MAX_NBYTE_SIZE)
 800426a:	68fb      	ldr	r3, [r7, #12]
 800426c:	8d5b      	ldrh	r3, [r3, #42]	; 0x2a
 800426e:	b29b      	uxth	r3, r3
 8004270:	2bff      	cmp	r3, #255	; 0xff
 8004272:	d911      	bls.n	8004298 <HAL_I2C_Master_Transmit+0x184>
        {
          hi2c->XferSize = MAX_NBYTE_SIZE;
 8004274:	68fb      	ldr	r3, [r7, #12]
 8004276:	22ff      	movs	r2, #255	; 0xff
 8004278:	851a      	strh	r2, [r3, #40]	; 0x28
          I2C_TransferConfig(hi2c, DevAddress, (uint8_t)hi2c->XferSize, I2C_RELOAD_MODE,
 800427a:	68fb      	ldr	r3, [r7, #12]
 800427c:	8d1b      	ldrh	r3, [r3, #40]	; 0x28
 800427e:	b2da      	uxtb	r2, r3
 8004280:	2380      	movs	r3, #128	; 0x80
 8004282:	045c      	lsls	r4, r3, #17
 8004284:	230a      	movs	r3, #10
 8004286:	18fb      	adds	r3, r7, r3
 8004288:	8819      	ldrh	r1, [r3, #0]
 800428a:	68f8      	ldr	r0, [r7, #12]
 800428c:	2300      	movs	r3, #0
 800428e:	9300      	str	r3, [sp, #0]
 8004290:	0023      	movs	r3, r4
 8004292:	f000 fb11 	bl	80048b8 <I2C_TransferConfig>
 8004296:	e012      	b.n	80042be <HAL_I2C_Master_Transmit+0x1aa>
                             I2C_NO_STARTSTOP);
        }
        else
        {
          hi2c->XferSize = hi2c->XferCount;
 8004298:	68fb      	ldr	r3, [r7, #12]
 800429a:	8d5b      	ldrh	r3, [r3, #42]	; 0x2a
 800429c:	b29a      	uxth	r2, r3
 800429e:	68fb      	ldr	r3, [r7, #12]
 80042a0:	851a      	strh	r2, [r3, #40]	; 0x28
          I2C_TransferConfig(hi2c, DevAddress, (uint8_t)hi2c->XferSize, I2C_AUTOEND_MODE,
 80042a2:	68fb      	ldr	r3, [r7, #12]
 80042a4:	8d1b      	ldrh	r3, [r3, #40]	; 0x28
 80042a6:	b2da      	uxtb	r2, r3
 80042a8:	2380      	movs	r3, #128	; 0x80
 80042aa:	049c      	lsls	r4, r3, #18
 80042ac:	230a      	movs	r3, #10
 80042ae:	18fb      	adds	r3, r7, r3
 80042b0:	8819      	ldrh	r1, [r3, #0]
 80042b2:	68f8      	ldr	r0, [r7, #12]
 80042b4:	2300      	movs	r3, #0
 80042b6:	9300      	str	r3, [sp, #0]
 80042b8:	0023      	movs	r3, r4
 80042ba:	f000 fafd 	bl	80048b8 <I2C_TransferConfig>
    while (hi2c->XferCount > 0U)
 80042be:	68fb      	ldr	r3, [r7, #12]
 80042c0:	8d5b      	ldrh	r3, [r3, #42]	; 0x2a
 80042c2:	b29b      	uxth	r3, r3
 80042c4:	2b00      	cmp	r3, #0
 80042c6:	d198      	bne.n	80041fa <HAL_I2C_Master_Transmit+0xe6>
      }
    }

    /* No need to Check TC flag, with AUTOEND mode the stop is automatically generated */
    /* Wait until STOPF flag is set */
    if (I2C_WaitOnSTOPFlagUntilTimeout(hi2c, Timeout, tickstart) != HAL_OK)
 80042c8:	697a      	ldr	r2, [r7, #20]
 80042ca:	6ab9      	ldr	r1, [r7, #40]	; 0x28
 80042cc:	68fb      	ldr	r3, [r7, #12]
 80042ce:	0018      	movs	r0, r3
 80042d0:	f000 f9d0 	bl	8004674 <I2C_WaitOnSTOPFlagUntilTimeout>
 80042d4:	1e03      	subs	r3, r0, #0
 80042d6:	d001      	beq.n	80042dc <HAL_I2C_Master_Transmit+0x1c8>
    {
      return HAL_ERROR;
 80042d8:	2301      	movs	r3, #1
 80042da:	e01a      	b.n	8004312 <HAL_I2C_Master_Transmit+0x1fe>
    }

    /* Clear STOP Flag */
    __HAL_I2C_CLEAR_FLAG(hi2c, I2C_FLAG_STOPF);
 80042dc:	68fb      	ldr	r3, [r7, #12]
 80042de:	681b      	ldr	r3, [r3, #0]
 80042e0:	2220      	movs	r2, #32
 80042e2:	61da      	str	r2, [r3, #28]

    /* Clear Configuration Register 2 */
    I2C_RESET_CR2(hi2c);
 80042e4:	68fb      	ldr	r3, [r7, #12]
 80042e6:	681b      	ldr	r3, [r3, #0]
 80042e8:	685a      	ldr	r2, [r3, #4]
 80042ea:	68fb      	ldr	r3, [r7, #12]
 80042ec:	681b      	ldr	r3, [r3, #0]
 80042ee:	490c      	ldr	r1, [pc, #48]	; (8004320 <HAL_I2C_Master_Transmit+0x20c>)
 80042f0:	400a      	ands	r2, r1
 80042f2:	605a      	str	r2, [r3, #4]

    hi2c->State = HAL_I2C_STATE_READY;
 80042f4:	68fb      	ldr	r3, [r7, #12]
 80042f6:	2241      	movs	r2, #65	; 0x41
 80042f8:	2120      	movs	r1, #32
 80042fa:	5499      	strb	r1, [r3, r2]
    hi2c->Mode  = HAL_I2C_MODE_NONE;
 80042fc:	68fb      	ldr	r3, [r7, #12]
 80042fe:	2242      	movs	r2, #66	; 0x42
 8004300:	2100      	movs	r1, #0
 8004302:	5499      	strb	r1, [r3, r2]

    /* Process Unlocked */
    __HAL_UNLOCK(hi2c);
 8004304:	68fb      	ldr	r3, [r7, #12]
 8004306:	2240      	movs	r2, #64	; 0x40
 8004308:	2100      	movs	r1, #0
 800430a:	5499      	strb	r1, [r3, r2]

    return HAL_OK;
 800430c:	2300      	movs	r3, #0
 800430e:	e000      	b.n	8004312 <HAL_I2C_Master_Transmit+0x1fe>
  }
  else
  {
    return HAL_BUSY;
 8004310:	2302      	movs	r3, #2
  }
}
 8004312:	0018      	movs	r0, r3
 8004314:	46bd      	mov	sp, r7
 8004316:	b007      	add	sp, #28
 8004318:	bd90      	pop	{r4, r7, pc}
 800431a:	46c0      	nop			; (mov r8, r8)
 800431c:	80002000 	.word	0x80002000
 8004320:	fe00e800 	.word	0xfe00e800

08004324 <HAL_I2C_Master_Receive>:
  * @param  Timeout Timeout duration
  * @retval HAL status
  */
HAL_StatusTypeDef HAL_I2C_Master_Receive(I2C_HandleTypeDef *hi2c, uint16_t DevAddress, uint8_t *pData,
                                         uint16_t Size, uint32_t Timeout)
{
 8004324:	b590      	push	{r4, r7, lr}
 8004326:	b089      	sub	sp, #36	; 0x24
 8004328:	af02      	add	r7, sp, #8
 800432a:	60f8      	str	r0, [r7, #12]
 800432c:	0008      	movs	r0, r1
 800432e:	607a      	str	r2, [r7, #4]
 8004330:	0019      	movs	r1, r3
 8004332:	230a      	movs	r3, #10
 8004334:	18fb      	adds	r3, r7, r3
 8004336:	1c02      	adds	r2, r0, #0
 8004338:	801a      	strh	r2, [r3, #0]
 800433a:	2308      	movs	r3, #8
 800433c:	18fb      	adds	r3, r7, r3
 800433e:	1c0a      	adds	r2, r1, #0
 8004340:	801a      	strh	r2, [r3, #0]
  uint32_t tickstart;

  if (hi2c->State == HAL_I2C_STATE_READY)
 8004342:	68fb      	ldr	r3, [r7, #12]
 8004344:	2241      	movs	r2, #65	; 0x41
 8004346:	5c9b      	ldrb	r3, [r3, r2]
 8004348:	b2db      	uxtb	r3, r3
 800434a:	2b20      	cmp	r3, #32
 800434c:	d000      	beq.n	8004350 <HAL_I2C_Master_Receive+0x2c>
 800434e:	e0e8      	b.n	8004522 <HAL_I2C_Master_Receive+0x1fe>
  {
    /* Process Locked */
    __HAL_LOCK(hi2c);
 8004350:	68fb      	ldr	r3, [r7, #12]
 8004352:	2240      	movs	r2, #64	; 0x40
 8004354:	5c9b      	ldrb	r3, [r3, r2]
 8004356:	2b01      	cmp	r3, #1
 8004358:	d101      	bne.n	800435e <HAL_I2C_Master_Receive+0x3a>
 800435a:	2302      	movs	r3, #2
 800435c:	e0e2      	b.n	8004524 <HAL_I2C_Master_Receive+0x200>
 800435e:	68fb      	ldr	r3, [r7, #12]
 8004360:	2240      	movs	r2, #64	; 0x40
 8004362:	2101      	movs	r1, #1
 8004364:	5499      	strb	r1, [r3, r2]

    /* Init tickstart for timeout management*/
    tickstart = HAL_GetTick();
 8004366:	f7fe fcf3 	bl	8002d50 <HAL_GetTick>
 800436a:	0003      	movs	r3, r0
 800436c:	617b      	str	r3, [r7, #20]

    if (I2C_WaitOnFlagUntilTimeout(hi2c, I2C_FLAG_BUSY, SET, I2C_TIMEOUT_BUSY, tickstart) != HAL_OK)
 800436e:	2380      	movs	r3, #128	; 0x80
 8004370:	0219      	lsls	r1, r3, #8
 8004372:	68f8      	ldr	r0, [r7, #12]
 8004374:	697b      	ldr	r3, [r7, #20]
 8004376:	9300      	str	r3, [sp, #0]
 8004378:	2319      	movs	r3, #25
 800437a:	2201      	movs	r2, #1
 800437c:	f000 f8fc 	bl	8004578 <I2C_WaitOnFlagUntilTimeout>
 8004380:	1e03      	subs	r3, r0, #0
 8004382:	d001      	beq.n	8004388 <HAL_I2C_Master_Receive+0x64>
    {
      return HAL_ERROR;
 8004384:	2301      	movs	r3, #1
 8004386:	e0cd      	b.n	8004524 <HAL_I2C_Master_Receive+0x200>
    }

    hi2c->State     = HAL_I2C_STATE_BUSY_RX;
 8004388:	68fb      	ldr	r3, [r7, #12]
 800438a:	2241      	movs	r2, #65	; 0x41
 800438c:	2122      	movs	r1, #34	; 0x22
 800438e:	5499      	strb	r1, [r3, r2]
    hi2c->Mode      = HAL_I2C_MODE_MASTER;
 8004390:	68fb      	ldr	r3, [r7, #12]
 8004392:	2242      	movs	r2, #66	; 0x42
 8004394:	2110      	movs	r1, #16
 8004396:	5499      	strb	r1, [r3, r2]
    hi2c->ErrorCode = HAL_I2C_ERROR_NONE;
 8004398:	68fb      	ldr	r3, [r7, #12]
 800439a:	2200      	movs	r2, #0
 800439c:	645a      	str	r2, [r3, #68]	; 0x44

    /* Prepare transfer parameters */
    hi2c->pBuffPtr  = pData;
 800439e:	68fb      	ldr	r3, [r7, #12]
 80043a0:	687a      	ldr	r2, [r7, #4]
 80043a2:	625a      	str	r2, [r3, #36]	; 0x24
    hi2c->XferCount = Size;
 80043a4:	68fb      	ldr	r3, [r7, #12]
 80043a6:	2208      	movs	r2, #8
 80043a8:	18ba      	adds	r2, r7, r2
 80043aa:	8812      	ldrh	r2, [r2, #0]
 80043ac:	855a      	strh	r2, [r3, #42]	; 0x2a
    hi2c->XferISR   = NULL;
 80043ae:	68fb      	ldr	r3, [r7, #12]
 80043b0:	2200      	movs	r2, #0
 80043b2:	635a      	str	r2, [r3, #52]	; 0x34

    /* Send Slave Address */
    /* Set NBYTES to write and reload if hi2c->XferCount > MAX_NBYTE_SIZE and generate RESTART */
    if (hi2c->XferCount > MAX_NBYTE_SIZE)
 80043b4:	68fb      	ldr	r3, [r7, #12]
 80043b6:	8d5b      	ldrh	r3, [r3, #42]	; 0x2a
 80043b8:	b29b      	uxth	r3, r3
 80043ba:	2bff      	cmp	r3, #255	; 0xff
 80043bc:	d911      	bls.n	80043e2 <HAL_I2C_Master_Receive+0xbe>
    {
      hi2c->XferSize = MAX_NBYTE_SIZE;
 80043be:	68fb      	ldr	r3, [r7, #12]
 80043c0:	22ff      	movs	r2, #255	; 0xff
 80043c2:	851a      	strh	r2, [r3, #40]	; 0x28
      I2C_TransferConfig(hi2c, DevAddress, (uint8_t)hi2c->XferSize, I2C_RELOAD_MODE,
 80043c4:	68fb      	ldr	r3, [r7, #12]
 80043c6:	8d1b      	ldrh	r3, [r3, #40]	; 0x28
 80043c8:	b2da      	uxtb	r2, r3
 80043ca:	2380      	movs	r3, #128	; 0x80
 80043cc:	045c      	lsls	r4, r3, #17
 80043ce:	230a      	movs	r3, #10
 80043d0:	18fb      	adds	r3, r7, r3
 80043d2:	8819      	ldrh	r1, [r3, #0]
 80043d4:	68f8      	ldr	r0, [r7, #12]
 80043d6:	4b55      	ldr	r3, [pc, #340]	; (800452c <HAL_I2C_Master_Receive+0x208>)
 80043d8:	9300      	str	r3, [sp, #0]
 80043da:	0023      	movs	r3, r4
 80043dc:	f000 fa6c 	bl	80048b8 <I2C_TransferConfig>
 80043e0:	e076      	b.n	80044d0 <HAL_I2C_Master_Receive+0x1ac>
                         I2C_GENERATE_START_READ);
    }
    else
    {
      hi2c->XferSize = hi2c->XferCount;
 80043e2:	68fb      	ldr	r3, [r7, #12]
 80043e4:	8d5b      	ldrh	r3, [r3, #42]	; 0x2a
 80043e6:	b29a      	uxth	r2, r3
 80043e8:	68fb      	ldr	r3, [r7, #12]
 80043ea:	851a      	strh	r2, [r3, #40]	; 0x28
      I2C_TransferConfig(hi2c, DevAddress, (uint8_t)hi2c->XferSize, I2C_AUTOEND_MODE,
 80043ec:	68fb      	ldr	r3, [r7, #12]
 80043ee:	8d1b      	ldrh	r3, [r3, #40]	; 0x28
 80043f0:	b2da      	uxtb	r2, r3
 80043f2:	2380      	movs	r3, #128	; 0x80
 80043f4:	049c      	lsls	r4, r3, #18
 80043f6:	230a      	movs	r3, #10
 80043f8:	18fb      	adds	r3, r7, r3
 80043fa:	8819      	ldrh	r1, [r3, #0]
 80043fc:	68f8      	ldr	r0, [r7, #12]
 80043fe:	4b4b      	ldr	r3, [pc, #300]	; (800452c <HAL_I2C_Master_Receive+0x208>)
 8004400:	9300      	str	r3, [sp, #0]
 8004402:	0023      	movs	r3, r4
 8004404:	f000 fa58 	bl	80048b8 <I2C_TransferConfig>
                         I2C_GENERATE_START_READ);
    }

    while (hi2c->XferCount > 0U)
 8004408:	e062      	b.n	80044d0 <HAL_I2C_Master_Receive+0x1ac>
    {
      /* Wait until RXNE flag is set */
      if (I2C_WaitOnRXNEFlagUntilTimeout(hi2c, Timeout, tickstart) != HAL_OK)
 800440a:	697a      	ldr	r2, [r7, #20]
 800440c:	6ab9      	ldr	r1, [r7, #40]	; 0x28
 800440e:	68fb      	ldr	r3, [r7, #12]
 8004410:	0018      	movs	r0, r3
 8004412:	f000 f96b 	bl	80046ec <I2C_WaitOnRXNEFlagUntilTimeout>
 8004416:	1e03      	subs	r3, r0, #0
 8004418:	d001      	beq.n	800441e <HAL_I2C_Master_Receive+0xfa>
      {
        return HAL_ERROR;
 800441a:	2301      	movs	r3, #1
 800441c:	e082      	b.n	8004524 <HAL_I2C_Master_Receive+0x200>
      }

      /* Read data from RXDR */
      *hi2c->pBuffPtr = (uint8_t)hi2c->Instance->RXDR;
 800441e:	68fb      	ldr	r3, [r7, #12]
 8004420:	681b      	ldr	r3, [r3, #0]
 8004422:	6a5a      	ldr	r2, [r3, #36]	; 0x24
 8004424:	68fb      	ldr	r3, [r7, #12]
 8004426:	6a5b      	ldr	r3, [r3, #36]	; 0x24
 8004428:	b2d2      	uxtb	r2, r2
 800442a:	701a      	strb	r2, [r3, #0]

      /* Increment Buffer pointer */
      hi2c->pBuffPtr++;
 800442c:	68fb      	ldr	r3, [r7, #12]
 800442e:	6a5b      	ldr	r3, [r3, #36]	; 0x24
 8004430:	1c5a      	adds	r2, r3, #1
 8004432:	68fb      	ldr	r3, [r7, #12]
 8004434:	625a      	str	r2, [r3, #36]	; 0x24

      hi2c->XferSize--;
 8004436:	68fb      	ldr	r3, [r7, #12]
 8004438:	8d1b      	ldrh	r3, [r3, #40]	; 0x28
 800443a:	3b01      	subs	r3, #1
 800443c:	b29a      	uxth	r2, r3
 800443e:	68fb      	ldr	r3, [r7, #12]
 8004440:	851a      	strh	r2, [r3, #40]	; 0x28
      hi2c->XferCount--;
 8004442:	68fb      	ldr	r3, [r7, #12]
 8004444:	8d5b      	ldrh	r3, [r3, #42]	; 0x2a
 8004446:	b29b      	uxth	r3, r3
 8004448:	3b01      	subs	r3, #1
 800444a:	b29a      	uxth	r2, r3
 800444c:	68fb      	ldr	r3, [r7, #12]
 800444e:	855a      	strh	r2, [r3, #42]	; 0x2a

      if ((hi2c->XferCount != 0U) && (hi2c->XferSize == 0U))
 8004450:	68fb      	ldr	r3, [r7, #12]
 8004452:	8d5b      	ldrh	r3, [r3, #42]	; 0x2a
 8004454:	b29b      	uxth	r3, r3
 8004456:	2b00      	cmp	r3, #0
 8004458:	d03a      	beq.n	80044d0 <HAL_I2C_Master_Receive+0x1ac>
 800445a:	68fb      	ldr	r3, [r7, #12]
 800445c:	8d1b      	ldrh	r3, [r3, #40]	; 0x28
 800445e:	2b00      	cmp	r3, #0
 8004460:	d136      	bne.n	80044d0 <HAL_I2C_Master_Receive+0x1ac>
      {
        /* Wait until TCR flag is set */
        if (I2C_WaitOnFlagUntilTimeout(hi2c, I2C_FLAG_TCR, RESET, Timeout, tickstart) != HAL_OK)
 8004462:	6aba      	ldr	r2, [r7, #40]	; 0x28
 8004464:	68f8      	ldr	r0, [r7, #12]
 8004466:	697b      	ldr	r3, [r7, #20]
 8004468:	9300      	str	r3, [sp, #0]
 800446a:	0013      	movs	r3, r2
 800446c:	2200      	movs	r2, #0
 800446e:	2180      	movs	r1, #128	; 0x80
 8004470:	f000 f882 	bl	8004578 <I2C_WaitOnFlagUntilTimeout>
 8004474:	1e03      	subs	r3, r0, #0
 8004476:	d001      	beq.n	800447c <HAL_I2C_Master_Receive+0x158>
        {
          return HAL_ERROR;
 8004478:	2301      	movs	r3, #1
 800447a:	e053      	b.n	8004524 <HAL_I2C_Master_Receive+0x200>
        }

        if (hi2c->XferCount > MAX_NBYTE_SIZE)
 800447c:	68fb      	ldr	r3, [r7, #12]
 800447e:	8d5b      	ldrh	r3, [r3, #42]	; 0x2a
 8004480:	b29b      	uxth	r3, r3
 8004482:	2bff      	cmp	r3, #255	; 0xff
 8004484:	d911      	bls.n	80044aa <HAL_I2C_Master_Receive+0x186>
        {
          hi2c->XferSize = MAX_NBYTE_SIZE;
 8004486:	68fb      	ldr	r3, [r7, #12]
 8004488:	22ff      	movs	r2, #255	; 0xff
 800448a:	851a      	strh	r2, [r3, #40]	; 0x28
          I2C_TransferConfig(hi2c, DevAddress, (uint8_t)hi2c->XferSize, I2C_RELOAD_MODE,
 800448c:	68fb      	ldr	r3, [r7, #12]
 800448e:	8d1b      	ldrh	r3, [r3, #40]	; 0x28
 8004490:	b2da      	uxtb	r2, r3
 8004492:	2380      	movs	r3, #128	; 0x80
 8004494:	045c      	lsls	r4, r3, #17
 8004496:	230a      	movs	r3, #10
 8004498:	18fb      	adds	r3, r7, r3
 800449a:	8819      	ldrh	r1, [r3, #0]
 800449c:	68f8      	ldr	r0, [r7, #12]
 800449e:	2300      	movs	r3, #0
 80044a0:	9300      	str	r3, [sp, #0]
 80044a2:	0023      	movs	r3, r4
 80044a4:	f000 fa08 	bl	80048b8 <I2C_TransferConfig>
 80044a8:	e012      	b.n	80044d0 <HAL_I2C_Master_Receive+0x1ac>
                             I2C_NO_STARTSTOP);
        }
        else
        {
          hi2c->XferSize = hi2c->XferCount;
 80044aa:	68fb      	ldr	r3, [r7, #12]
 80044ac:	8d5b      	ldrh	r3, [r3, #42]	; 0x2a
 80044ae:	b29a      	uxth	r2, r3
 80044b0:	68fb      	ldr	r3, [r7, #12]
 80044b2:	851a      	strh	r2, [r3, #40]	; 0x28
          I2C_TransferConfig(hi2c, DevAddress, (uint8_t)hi2c->XferSize, I2C_AUTOEND_MODE,
 80044b4:	68fb      	ldr	r3, [r7, #12]
 80044b6:	8d1b      	ldrh	r3, [r3, #40]	; 0x28
 80044b8:	b2da      	uxtb	r2, r3
 80044ba:	2380      	movs	r3, #128	; 0x80
 80044bc:	049c      	lsls	r4, r3, #18
 80044be:	230a      	movs	r3, #10
 80044c0:	18fb      	adds	r3, r7, r3
 80044c2:	8819      	ldrh	r1, [r3, #0]
 80044c4:	68f8      	ldr	r0, [r7, #12]
 80044c6:	2300      	movs	r3, #0
 80044c8:	9300      	str	r3, [sp, #0]
 80044ca:	0023      	movs	r3, r4
 80044cc:	f000 f9f4 	bl	80048b8 <I2C_TransferConfig>
    while (hi2c->XferCount > 0U)
 80044d0:	68fb      	ldr	r3, [r7, #12]
 80044d2:	8d5b      	ldrh	r3, [r3, #42]	; 0x2a
 80044d4:	b29b      	uxth	r3, r3
 80044d6:	2b00      	cmp	r3, #0
 80044d8:	d197      	bne.n	800440a <HAL_I2C_Master_Receive+0xe6>
      }
    }

    /* No need to Check TC flag, with AUTOEND mode the stop is automatically generated */
    /* Wait until STOPF flag is set */
    if (I2C_WaitOnSTOPFlagUntilTimeout(hi2c, Timeout, tickstart) != HAL_OK)
 80044da:	697a      	ldr	r2, [r7, #20]
 80044dc:	6ab9      	ldr	r1, [r7, #40]	; 0x28
 80044de:	68fb      	ldr	r3, [r7, #12]
 80044e0:	0018      	movs	r0, r3
 80044e2:	f000 f8c7 	bl	8004674 <I2C_WaitOnSTOPFlagUntilTimeout>
 80044e6:	1e03      	subs	r3, r0, #0
 80044e8:	d001      	beq.n	80044ee <HAL_I2C_Master_Receive+0x1ca>
    {
      return HAL_ERROR;
 80044ea:	2301      	movs	r3, #1
 80044ec:	e01a      	b.n	8004524 <HAL_I2C_Master_Receive+0x200>
    }

    /* Clear STOP Flag */
    __HAL_I2C_CLEAR_FLAG(hi2c, I2C_FLAG_STOPF);
 80044ee:	68fb      	ldr	r3, [r7, #12]
 80044f0:	681b      	ldr	r3, [r3, #0]
 80044f2:	2220      	movs	r2, #32
 80044f4:	61da      	str	r2, [r3, #28]

    /* Clear Configuration Register 2 */
    I2C_RESET_CR2(hi2c);
 80044f6:	68fb      	ldr	r3, [r7, #12]
 80044f8:	681b      	ldr	r3, [r3, #0]
 80044fa:	685a      	ldr	r2, [r3, #4]
 80044fc:	68fb      	ldr	r3, [r7, #12]
 80044fe:	681b      	ldr	r3, [r3, #0]
 8004500:	490b      	ldr	r1, [pc, #44]	; (8004530 <HAL_I2C_Master_Receive+0x20c>)
 8004502:	400a      	ands	r2, r1
 8004504:	605a      	str	r2, [r3, #4]

    hi2c->State = HAL_I2C_STATE_READY;
 8004506:	68fb      	ldr	r3, [r7, #12]
 8004508:	2241      	movs	r2, #65	; 0x41
 800450a:	2120      	movs	r1, #32
 800450c:	5499      	strb	r1, [r3, r2]
    hi2c->Mode  = HAL_I2C_MODE_NONE;
 800450e:	68fb      	ldr	r3, [r7, #12]
 8004510:	2242      	movs	r2, #66	; 0x42
 8004512:	2100      	movs	r1, #0
 8004514:	5499      	strb	r1, [r3, r2]

    /* Process Unlocked */
    __HAL_UNLOCK(hi2c);
 8004516:	68fb      	ldr	r3, [r7, #12]
 8004518:	2240      	movs	r2, #64	; 0x40
 800451a:	2100      	movs	r1, #0
 800451c:	5499      	strb	r1, [r3, r2]

    return HAL_OK;
 800451e:	2300      	movs	r3, #0
 8004520:	e000      	b.n	8004524 <HAL_I2C_Master_Receive+0x200>
  }
  else
  {
    return HAL_BUSY;
 8004522:	2302      	movs	r3, #2
  }
}
 8004524:	0018      	movs	r0, r3
 8004526:	46bd      	mov	sp, r7
 8004528:	b007      	add	sp, #28
 800452a:	bd90      	pop	{r4, r7, pc}
 800452c:	80002400 	.word	0x80002400
 8004530:	fe00e800 	.word	0xfe00e800

08004534 <I2C_Flush_TXDR>:
  * @brief  I2C Tx data register flush process.
  * @param  hi2c I2C handle.
  * @retval None
  */
static void I2C_Flush_TXDR(I2C_HandleTypeDef *hi2c)
{
 8004534:	b580      	push	{r7, lr}
 8004536:	b082      	sub	sp, #8
 8004538:	af00      	add	r7, sp, #0
 800453a:	6078      	str	r0, [r7, #4]
  /* If a pending TXIS flag is set */
  /* Write a dummy data in TXDR to clear it */
  if (__HAL_I2C_GET_FLAG(hi2c, I2C_FLAG_TXIS) != RESET)
 800453c:	687b      	ldr	r3, [r7, #4]
 800453e:	681b      	ldr	r3, [r3, #0]
 8004540:	699b      	ldr	r3, [r3, #24]
 8004542:	2202      	movs	r2, #2
 8004544:	4013      	ands	r3, r2
 8004546:	2b02      	cmp	r3, #2
 8004548:	d103      	bne.n	8004552 <I2C_Flush_TXDR+0x1e>
  {
    hi2c->Instance->TXDR = 0x00U;
 800454a:	687b      	ldr	r3, [r7, #4]
 800454c:	681b      	ldr	r3, [r3, #0]
 800454e:	2200      	movs	r2, #0
 8004550:	629a      	str	r2, [r3, #40]	; 0x28
  }

  /* Flush TX register if not empty */
  if (__HAL_I2C_GET_FLAG(hi2c, I2C_FLAG_TXE) == RESET)
 8004552:	687b      	ldr	r3, [r7, #4]
 8004554:	681b      	ldr	r3, [r3, #0]
 8004556:	699b      	ldr	r3, [r3, #24]
 8004558:	2201      	movs	r2, #1
 800455a:	4013      	ands	r3, r2
 800455c:	2b01      	cmp	r3, #1
 800455e:	d007      	beq.n	8004570 <I2C_Flush_TXDR+0x3c>
  {
    __HAL_I2C_CLEAR_FLAG(hi2c, I2C_FLAG_TXE);
 8004560:	687b      	ldr	r3, [r7, #4]
 8004562:	681b      	ldr	r3, [r3, #0]
 8004564:	699a      	ldr	r2, [r3, #24]
 8004566:	687b      	ldr	r3, [r7, #4]
 8004568:	681b      	ldr	r3, [r3, #0]
 800456a:	2101      	movs	r1, #1
 800456c:	430a      	orrs	r2, r1
 800456e:	619a      	str	r2, [r3, #24]
  }
}
 8004570:	46c0      	nop			; (mov r8, r8)
 8004572:	46bd      	mov	sp, r7
 8004574:	b002      	add	sp, #8
 8004576:	bd80      	pop	{r7, pc}

08004578 <I2C_WaitOnFlagUntilTimeout>:
  * @param  Tickstart Tick start value
  * @retval HAL status
  */
static HAL_StatusTypeDef I2C_WaitOnFlagUntilTimeout(I2C_HandleTypeDef *hi2c, uint32_t Flag, FlagStatus Status,
                                                    uint32_t Timeout, uint32_t Tickstart)
{
 8004578:	b580      	push	{r7, lr}
 800457a:	b084      	sub	sp, #16
 800457c:	af00      	add	r7, sp, #0
 800457e:	60f8      	str	r0, [r7, #12]
 8004580:	60b9      	str	r1, [r7, #8]
 8004582:	603b      	str	r3, [r7, #0]
 8004584:	1dfb      	adds	r3, r7, #7
 8004586:	701a      	strb	r2, [r3, #0]
  while (__HAL_I2C_GET_FLAG(hi2c, Flag) == Status)
 8004588:	e021      	b.n	80045ce <I2C_WaitOnFlagUntilTimeout+0x56>
  {
    /* Check for the Timeout */
    if (Timeout != HAL_MAX_DELAY)
 800458a:	683b      	ldr	r3, [r7, #0]
 800458c:	3301      	adds	r3, #1
 800458e:	d01e      	beq.n	80045ce <I2C_WaitOnFlagUntilTimeout+0x56>
    {
      if (((HAL_GetTick() - Tickstart) > Timeout) || (Timeout == 0U))
 8004590:	f7fe fbde 	bl	8002d50 <HAL_GetTick>
 8004594:	0002      	movs	r2, r0
 8004596:	69bb      	ldr	r3, [r7, #24]
 8004598:	1ad3      	subs	r3, r2, r3
 800459a:	683a      	ldr	r2, [r7, #0]
 800459c:	429a      	cmp	r2, r3
 800459e:	d302      	bcc.n	80045a6 <I2C_WaitOnFlagUntilTimeout+0x2e>
 80045a0:	683b      	ldr	r3, [r7, #0]
 80045a2:	2b00      	cmp	r3, #0
 80045a4:	d113      	bne.n	80045ce <I2C_WaitOnFlagUntilTimeout+0x56>
      {
        hi2c->ErrorCode |= HAL_I2C_ERROR_TIMEOUT;
 80045a6:	68fb      	ldr	r3, [r7, #12]
 80045a8:	6c5b      	ldr	r3, [r3, #68]	; 0x44
 80045aa:	2220      	movs	r2, #32
 80045ac:	431a      	orrs	r2, r3
 80045ae:	68fb      	ldr	r3, [r7, #12]
 80045b0:	645a      	str	r2, [r3, #68]	; 0x44
        hi2c->State = HAL_I2C_STATE_READY;
 80045b2:	68fb      	ldr	r3, [r7, #12]
 80045b4:	2241      	movs	r2, #65	; 0x41
 80045b6:	2120      	movs	r1, #32
 80045b8:	5499      	strb	r1, [r3, r2]
        hi2c->Mode = HAL_I2C_MODE_NONE;
 80045ba:	68fb      	ldr	r3, [r7, #12]
 80045bc:	2242      	movs	r2, #66	; 0x42
 80045be:	2100      	movs	r1, #0
 80045c0:	5499      	strb	r1, [r3, r2]

        /* Process Unlocked */
        __HAL_UNLOCK(hi2c);
 80045c2:	68fb      	ldr	r3, [r7, #12]
 80045c4:	2240      	movs	r2, #64	; 0x40
 80045c6:	2100      	movs	r1, #0
 80045c8:	5499      	strb	r1, [r3, r2]
        return HAL_ERROR;
 80045ca:	2301      	movs	r3, #1
 80045cc:	e00f      	b.n	80045ee <I2C_WaitOnFlagUntilTimeout+0x76>
  while (__HAL_I2C_GET_FLAG(hi2c, Flag) == Status)
 80045ce:	68fb      	ldr	r3, [r7, #12]
 80045d0:	681b      	ldr	r3, [r3, #0]
 80045d2:	699b      	ldr	r3, [r3, #24]
 80045d4:	68ba      	ldr	r2, [r7, #8]
 80045d6:	4013      	ands	r3, r2
 80045d8:	68ba      	ldr	r2, [r7, #8]
 80045da:	1ad3      	subs	r3, r2, r3
 80045dc:	425a      	negs	r2, r3
 80045de:	4153      	adcs	r3, r2
 80045e0:	b2db      	uxtb	r3, r3
 80045e2:	001a      	movs	r2, r3
 80045e4:	1dfb      	adds	r3, r7, #7
 80045e6:	781b      	ldrb	r3, [r3, #0]
 80045e8:	429a      	cmp	r2, r3
 80045ea:	d0ce      	beq.n	800458a <I2C_WaitOnFlagUntilTimeout+0x12>
      }
    }
  }
  return HAL_OK;
 80045ec:	2300      	movs	r3, #0
}
 80045ee:	0018      	movs	r0, r3
 80045f0:	46bd      	mov	sp, r7
 80045f2:	b004      	add	sp, #16
 80045f4:	bd80      	pop	{r7, pc}

080045f6 <I2C_WaitOnTXISFlagUntilTimeout>:
  * @param  Tickstart Tick start value
  * @retval HAL status
  */
static HAL_StatusTypeDef I2C_WaitOnTXISFlagUntilTimeout(I2C_HandleTypeDef *hi2c, uint32_t Timeout,
                                                        uint32_t Tickstart)
{
 80045f6:	b580      	push	{r7, lr}
 80045f8:	b084      	sub	sp, #16
 80045fa:	af00      	add	r7, sp, #0
 80045fc:	60f8      	str	r0, [r7, #12]
 80045fe:	60b9      	str	r1, [r7, #8]
 8004600:	607a      	str	r2, [r7, #4]
  while (__HAL_I2C_GET_FLAG(hi2c, I2C_FLAG_TXIS) == RESET)
 8004602:	e02b      	b.n	800465c <I2C_WaitOnTXISFlagUntilTimeout+0x66>
  {
    /* Check if a NACK is detected */
    if (I2C_IsAcknowledgeFailed(hi2c, Timeout, Tickstart) != HAL_OK)
 8004604:	687a      	ldr	r2, [r7, #4]
 8004606:	68b9      	ldr	r1, [r7, #8]
 8004608:	68fb      	ldr	r3, [r7, #12]
 800460a:	0018      	movs	r0, r3
 800460c:	f000 f8da 	bl	80047c4 <I2C_IsAcknowledgeFailed>
 8004610:	1e03      	subs	r3, r0, #0
 8004612:	d001      	beq.n	8004618 <I2C_WaitOnTXISFlagUntilTimeout+0x22>
    {
      return HAL_ERROR;
 8004614:	2301      	movs	r3, #1
 8004616:	e029      	b.n	800466c <I2C_WaitOnTXISFlagUntilTimeout+0x76>
    }

    /* Check for the Timeout */
    if (Timeout != HAL_MAX_DELAY)
 8004618:	68bb      	ldr	r3, [r7, #8]
 800461a:	3301      	adds	r3, #1
 800461c:	d01e      	beq.n	800465c <I2C_WaitOnTXISFlagUntilTimeout+0x66>
    {
      if (((HAL_GetTick() - Tickstart) > Timeout) || (Timeout == 0U))
 800461e:	f7fe fb97 	bl	8002d50 <HAL_GetTick>
 8004622:	0002      	movs	r2, r0
 8004624:	687b      	ldr	r3, [r7, #4]
 8004626:	1ad3      	subs	r3, r2, r3
 8004628:	68ba      	ldr	r2, [r7, #8]
 800462a:	429a      	cmp	r2, r3
 800462c:	d302      	bcc.n	8004634 <I2C_WaitOnTXISFlagUntilTimeout+0x3e>
 800462e:	68bb      	ldr	r3, [r7, #8]
 8004630:	2b00      	cmp	r3, #0
 8004632:	d113      	bne.n	800465c <I2C_WaitOnTXISFlagUntilTimeout+0x66>
      {
        hi2c->ErrorCode |= HAL_I2C_ERROR_TIMEOUT;
 8004634:	68fb      	ldr	r3, [r7, #12]
 8004636:	6c5b      	ldr	r3, [r3, #68]	; 0x44
 8004638:	2220      	movs	r2, #32
 800463a:	431a      	orrs	r2, r3
 800463c:	68fb      	ldr	r3, [r7, #12]
 800463e:	645a      	str	r2, [r3, #68]	; 0x44
        hi2c->State = HAL_I2C_STATE_READY;
 8004640:	68fb      	ldr	r3, [r7, #12]
 8004642:	2241      	movs	r2, #65	; 0x41
 8004644:	2120      	movs	r1, #32
 8004646:	5499      	strb	r1, [r3, r2]
        hi2c->Mode = HAL_I2C_MODE_NONE;
 8004648:	68fb      	ldr	r3, [r7, #12]
 800464a:	2242      	movs	r2, #66	; 0x42
 800464c:	2100      	movs	r1, #0
 800464e:	5499      	strb	r1, [r3, r2]

        /* Process Unlocked */
        __HAL_UNLOCK(hi2c);
 8004650:	68fb      	ldr	r3, [r7, #12]
 8004652:	2240      	movs	r2, #64	; 0x40
 8004654:	2100      	movs	r1, #0
 8004656:	5499      	strb	r1, [r3, r2]

        return HAL_ERROR;
 8004658:	2301      	movs	r3, #1
 800465a:	e007      	b.n	800466c <I2C_WaitOnTXISFlagUntilTimeout+0x76>
  while (__HAL_I2C_GET_FLAG(hi2c, I2C_FLAG_TXIS) == RESET)
 800465c:	68fb      	ldr	r3, [r7, #12]
 800465e:	681b      	ldr	r3, [r3, #0]
 8004660:	699b      	ldr	r3, [r3, #24]
 8004662:	2202      	movs	r2, #2
 8004664:	4013      	ands	r3, r2
 8004666:	2b02      	cmp	r3, #2
 8004668:	d1cc      	bne.n	8004604 <I2C_WaitOnTXISFlagUntilTimeout+0xe>
      }
    }
  }
  return HAL_OK;
 800466a:	2300      	movs	r3, #0
}
 800466c:	0018      	movs	r0, r3
 800466e:	46bd      	mov	sp, r7
 8004670:	b004      	add	sp, #16
 8004672:	bd80      	pop	{r7, pc}

08004674 <I2C_WaitOnSTOPFlagUntilTimeout>:
  * @param  Tickstart Tick start value
  * @retval HAL status
  */
static HAL_StatusTypeDef I2C_WaitOnSTOPFlagUntilTimeout(I2C_HandleTypeDef *hi2c, uint32_t Timeout,
                                                        uint32_t Tickstart)
{
 8004674:	b580      	push	{r7, lr}
 8004676:	b084      	sub	sp, #16
 8004678:	af00      	add	r7, sp, #0
 800467a:	60f8      	str	r0, [r7, #12]
 800467c:	60b9      	str	r1, [r7, #8]
 800467e:	607a      	str	r2, [r7, #4]
  while (__HAL_I2C_GET_FLAG(hi2c, I2C_FLAG_STOPF) == RESET)
 8004680:	e028      	b.n	80046d4 <I2C_WaitOnSTOPFlagUntilTimeout+0x60>
  {
    /* Check if a NACK is detected */
    if (I2C_IsAcknowledgeFailed(hi2c, Timeout, Tickstart) != HAL_OK)
 8004682:	687a      	ldr	r2, [r7, #4]
 8004684:	68b9      	ldr	r1, [r7, #8]
 8004686:	68fb      	ldr	r3, [r7, #12]
 8004688:	0018      	movs	r0, r3
 800468a:	f000 f89b 	bl	80047c4 <I2C_IsAcknowledgeFailed>
 800468e:	1e03      	subs	r3, r0, #0
 8004690:	d001      	beq.n	8004696 <I2C_WaitOnSTOPFlagUntilTimeout+0x22>
    {
      return HAL_ERROR;
 8004692:	2301      	movs	r3, #1
 8004694:	e026      	b.n	80046e4 <I2C_WaitOnSTOPFlagUntilTimeout+0x70>
    }

    /* Check for the Timeout */
    if (((HAL_GetTick() - Tickstart) > Timeout) || (Timeout == 0U))
 8004696:	f7fe fb5b 	bl	8002d50 <HAL_GetTick>
 800469a:	0002      	movs	r2, r0
 800469c:	687b      	ldr	r3, [r7, #4]
 800469e:	1ad3      	subs	r3, r2, r3
 80046a0:	68ba      	ldr	r2, [r7, #8]
 80046a2:	429a      	cmp	r2, r3
 80046a4:	d302      	bcc.n	80046ac <I2C_WaitOnSTOPFlagUntilTimeout+0x38>
 80046a6:	68bb      	ldr	r3, [r7, #8]
 80046a8:	2b00      	cmp	r3, #0
 80046aa:	d113      	bne.n	80046d4 <I2C_WaitOnSTOPFlagUntilTimeout+0x60>
    {
      hi2c->ErrorCode |= HAL_I2C_ERROR_TIMEOUT;
 80046ac:	68fb      	ldr	r3, [r7, #12]
 80046ae:	6c5b      	ldr	r3, [r3, #68]	; 0x44
 80046b0:	2220      	movs	r2, #32
 80046b2:	431a      	orrs	r2, r3
 80046b4:	68fb      	ldr	r3, [r7, #12]
 80046b6:	645a      	str	r2, [r3, #68]	; 0x44
      hi2c->State = HAL_I2C_STATE_READY;
 80046b8:	68fb      	ldr	r3, [r7, #12]
 80046ba:	2241      	movs	r2, #65	; 0x41
 80046bc:	2120      	movs	r1, #32
 80046be:	5499      	strb	r1, [r3, r2]
      hi2c->Mode = HAL_I2C_MODE_NONE;
 80046c0:	68fb      	ldr	r3, [r7, #12]
 80046c2:	2242      	movs	r2, #66	; 0x42
 80046c4:	2100      	movs	r1, #0
 80046c6:	5499      	strb	r1, [r3, r2]

      /* Process Unlocked */
      __HAL_UNLOCK(hi2c);
 80046c8:	68fb      	ldr	r3, [r7, #12]
 80046ca:	2240      	movs	r2, #64	; 0x40
 80046cc:	2100      	movs	r1, #0
 80046ce:	5499      	strb	r1, [r3, r2]

      return HAL_ERROR;
 80046d0:	2301      	movs	r3, #1
 80046d2:	e007      	b.n	80046e4 <I2C_WaitOnSTOPFlagUntilTimeout+0x70>
  while (__HAL_I2C_GET_FLAG(hi2c, I2C_FLAG_STOPF) == RESET)
 80046d4:	68fb      	ldr	r3, [r7, #12]
 80046d6:	681b      	ldr	r3, [r3, #0]
 80046d8:	699b      	ldr	r3, [r3, #24]
 80046da:	2220      	movs	r2, #32
 80046dc:	4013      	ands	r3, r2
 80046de:	2b20      	cmp	r3, #32
 80046e0:	d1cf      	bne.n	8004682 <I2C_WaitOnSTOPFlagUntilTimeout+0xe>
    }
  }
  return HAL_OK;
 80046e2:	2300      	movs	r3, #0
}
 80046e4:	0018      	movs	r0, r3
 80046e6:	46bd      	mov	sp, r7
 80046e8:	b004      	add	sp, #16
 80046ea:	bd80      	pop	{r7, pc}

080046ec <I2C_WaitOnRXNEFlagUntilTimeout>:
  * @param  Tickstart Tick start value
  * @retval HAL status
  */
static HAL_StatusTypeDef I2C_WaitOnRXNEFlagUntilTimeout(I2C_HandleTypeDef *hi2c, uint32_t Timeout,
                                                        uint32_t Tickstart)
{
 80046ec:	b580      	push	{r7, lr}
 80046ee:	b084      	sub	sp, #16
 80046f0:	af00      	add	r7, sp, #0
 80046f2:	60f8      	str	r0, [r7, #12]
 80046f4:	60b9      	str	r1, [r7, #8]
 80046f6:	607a      	str	r2, [r7, #4]
  while (__HAL_I2C_GET_FLAG(hi2c, I2C_FLAG_RXNE) == RESET)
 80046f8:	e055      	b.n	80047a6 <I2C_WaitOnRXNEFlagUntilTimeout+0xba>
  {
    /* Check if a NACK is detected */
    if (I2C_IsAcknowledgeFailed(hi2c, Timeout, Tickstart) != HAL_OK)
 80046fa:	687a      	ldr	r2, [r7, #4]
 80046fc:	68b9      	ldr	r1, [r7, #8]
 80046fe:	68fb      	ldr	r3, [r7, #12]
 8004700:	0018      	movs	r0, r3
 8004702:	f000 f85f 	bl	80047c4 <I2C_IsAcknowledgeFailed>
 8004706:	1e03      	subs	r3, r0, #0
 8004708:	d001      	beq.n	800470e <I2C_WaitOnRXNEFlagUntilTimeout+0x22>
    {
      return HAL_ERROR;
 800470a:	2301      	movs	r3, #1
 800470c:	e053      	b.n	80047b6 <I2C_WaitOnRXNEFlagUntilTimeout+0xca>
    }

    /* Check if a STOPF is detected */
    if (__HAL_I2C_GET_FLAG(hi2c, I2C_FLAG_STOPF) == SET)
 800470e:	68fb      	ldr	r3, [r7, #12]
 8004710:	681b      	ldr	r3, [r3, #0]
 8004712:	699b      	ldr	r3, [r3, #24]
 8004714:	2220      	movs	r2, #32
 8004716:	4013      	ands	r3, r2
 8004718:	2b20      	cmp	r3, #32
 800471a:	d129      	bne.n	8004770 <I2C_WaitOnRXNEFlagUntilTimeout+0x84>
    {
      /* Check if an RXNE is pending */
      /* Store Last receive data if any */
      if ((__HAL_I2C_GET_FLAG(hi2c, I2C_FLAG_RXNE) == SET) && (hi2c->XferSize > 0U))
 800471c:	68fb      	ldr	r3, [r7, #12]
 800471e:	681b      	ldr	r3, [r3, #0]
 8004720:	699b      	ldr	r3, [r3, #24]
 8004722:	2204      	movs	r2, #4
 8004724:	4013      	ands	r3, r2
 8004726:	2b04      	cmp	r3, #4
 8004728:	d105      	bne.n	8004736 <I2C_WaitOnRXNEFlagUntilTimeout+0x4a>
 800472a:	68fb      	ldr	r3, [r7, #12]
 800472c:	8d1b      	ldrh	r3, [r3, #40]	; 0x28
 800472e:	2b00      	cmp	r3, #0
 8004730:	d001      	beq.n	8004736 <I2C_WaitOnRXNEFlagUntilTimeout+0x4a>
      {
        /* Return HAL_OK */
        /* The Reading of data from RXDR will be done in caller function */
        return HAL_OK;
 8004732:	2300      	movs	r3, #0
 8004734:	e03f      	b.n	80047b6 <I2C_WaitOnRXNEFlagUntilTimeout+0xca>
      }
      else
      {
        /* Clear STOP Flag */
        __HAL_I2C_CLEAR_FLAG(hi2c, I2C_FLAG_STOPF);
 8004736:	68fb      	ldr	r3, [r7, #12]
 8004738:	681b      	ldr	r3, [r3, #0]
 800473a:	2220      	movs	r2, #32
 800473c:	61da      	str	r2, [r3, #28]

        /* Clear Configuration Register 2 */
        I2C_RESET_CR2(hi2c);
 800473e:	68fb      	ldr	r3, [r7, #12]
 8004740:	681b      	ldr	r3, [r3, #0]
 8004742:	685a      	ldr	r2, [r3, #4]
 8004744:	68fb      	ldr	r3, [r7, #12]
 8004746:	681b      	ldr	r3, [r3, #0]
 8004748:	491d      	ldr	r1, [pc, #116]	; (80047c0 <I2C_WaitOnRXNEFlagUntilTimeout+0xd4>)
 800474a:	400a      	ands	r2, r1
 800474c:	605a      	str	r2, [r3, #4]

        hi2c->ErrorCode = HAL_I2C_ERROR_NONE;
 800474e:	68fb      	ldr	r3, [r7, #12]
 8004750:	2200      	movs	r2, #0
 8004752:	645a      	str	r2, [r3, #68]	; 0x44
        hi2c->State = HAL_I2C_STATE_READY;
 8004754:	68fb      	ldr	r3, [r7, #12]
 8004756:	2241      	movs	r2, #65	; 0x41
 8004758:	2120      	movs	r1, #32
 800475a:	5499      	strb	r1, [r3, r2]
        hi2c->Mode = HAL_I2C_MODE_NONE;
 800475c:	68fb      	ldr	r3, [r7, #12]
 800475e:	2242      	movs	r2, #66	; 0x42
 8004760:	2100      	movs	r1, #0
 8004762:	5499      	strb	r1, [r3, r2]

        /* Process Unlocked */
        __HAL_UNLOCK(hi2c);
 8004764:	68fb      	ldr	r3, [r7, #12]
 8004766:	2240      	movs	r2, #64	; 0x40
 8004768:	2100      	movs	r1, #0
 800476a:	5499      	strb	r1, [r3, r2]

        return HAL_ERROR;
 800476c:	2301      	movs	r3, #1
 800476e:	e022      	b.n	80047b6 <I2C_WaitOnRXNEFlagUntilTimeout+0xca>
      }
    }

    /* Check for the Timeout */
    if (((HAL_GetTick() - Tickstart) > Timeout) || (Timeout == 0U))
 8004770:	f7fe faee 	bl	8002d50 <HAL_GetTick>
 8004774:	0002      	movs	r2, r0
 8004776:	687b      	ldr	r3, [r7, #4]
 8004778:	1ad3      	subs	r3, r2, r3
 800477a:	68ba      	ldr	r2, [r7, #8]
 800477c:	429a      	cmp	r2, r3
 800477e:	d302      	bcc.n	8004786 <I2C_WaitOnRXNEFlagUntilTimeout+0x9a>
 8004780:	68bb      	ldr	r3, [r7, #8]
 8004782:	2b00      	cmp	r3, #0
 8004784:	d10f      	bne.n	80047a6 <I2C_WaitOnRXNEFlagUntilTimeout+0xba>
    {
      hi2c->ErrorCode |= HAL_I2C_ERROR_TIMEOUT;
 8004786:	68fb      	ldr	r3, [r7, #12]
 8004788:	6c5b      	ldr	r3, [r3, #68]	; 0x44
 800478a:	2220      	movs	r2, #32
 800478c:	431a      	orrs	r2, r3
 800478e:	68fb      	ldr	r3, [r7, #12]
 8004790:	645a      	str	r2, [r3, #68]	; 0x44
      hi2c->State = HAL_I2C_STATE_READY;
 8004792:	68fb      	ldr	r3, [r7, #12]
 8004794:	2241      	movs	r2, #65	; 0x41
 8004796:	2120      	movs	r1, #32
 8004798:	5499      	strb	r1, [r3, r2]

      /* Process Unlocked */
      __HAL_UNLOCK(hi2c);
 800479a:	68fb      	ldr	r3, [r7, #12]
 800479c:	2240      	movs	r2, #64	; 0x40
 800479e:	2100      	movs	r1, #0
 80047a0:	5499      	strb	r1, [r3, r2]

      return HAL_ERROR;
 80047a2:	2301      	movs	r3, #1
 80047a4:	e007      	b.n	80047b6 <I2C_WaitOnRXNEFlagUntilTimeout+0xca>
  while (__HAL_I2C_GET_FLAG(hi2c, I2C_FLAG_RXNE) == RESET)
 80047a6:	68fb      	ldr	r3, [r7, #12]
 80047a8:	681b      	ldr	r3, [r3, #0]
 80047aa:	699b      	ldr	r3, [r3, #24]
 80047ac:	2204      	movs	r2, #4
 80047ae:	4013      	ands	r3, r2
 80047b0:	2b04      	cmp	r3, #4
 80047b2:	d1a2      	bne.n	80046fa <I2C_WaitOnRXNEFlagUntilTimeout+0xe>
    }
  }
  return HAL_OK;
 80047b4:	2300      	movs	r3, #0
}
 80047b6:	0018      	movs	r0, r3
 80047b8:	46bd      	mov	sp, r7
 80047ba:	b004      	add	sp, #16
 80047bc:	bd80      	pop	{r7, pc}
 80047be:	46c0      	nop			; (mov r8, r8)
 80047c0:	fe00e800 	.word	0xfe00e800

080047c4 <I2C_IsAcknowledgeFailed>:
  * @param  Timeout Timeout duration
  * @param  Tickstart Tick start value
  * @retval HAL status
  */
static HAL_StatusTypeDef I2C_IsAcknowledgeFailed(I2C_HandleTypeDef *hi2c, uint32_t Timeout, uint32_t Tickstart)
{
 80047c4:	b580      	push	{r7, lr}
 80047c6:	b084      	sub	sp, #16
 80047c8:	af00      	add	r7, sp, #0
 80047ca:	60f8      	str	r0, [r7, #12]
 80047cc:	60b9      	str	r1, [r7, #8]
 80047ce:	607a      	str	r2, [r7, #4]
  if (__HAL_I2C_GET_FLAG(hi2c, I2C_FLAG_AF) == SET)
 80047d0:	68fb      	ldr	r3, [r7, #12]
 80047d2:	681b      	ldr	r3, [r3, #0]
 80047d4:	699b      	ldr	r3, [r3, #24]
 80047d6:	2210      	movs	r2, #16
 80047d8:	4013      	ands	r3, r2
 80047da:	2b10      	cmp	r3, #16
 80047dc:	d164      	bne.n	80048a8 <I2C_IsAcknowledgeFailed+0xe4>
  {
    /* In case of Soft End condition, generate the STOP condition */
    if (I2C_GET_STOP_MODE(hi2c) != I2C_AUTOEND_MODE)
 80047de:	68fb      	ldr	r3, [r7, #12]
 80047e0:	681b      	ldr	r3, [r3, #0]
 80047e2:	685a      	ldr	r2, [r3, #4]
 80047e4:	2380      	movs	r3, #128	; 0x80
 80047e6:	049b      	lsls	r3, r3, #18
 80047e8:	401a      	ands	r2, r3
 80047ea:	2380      	movs	r3, #128	; 0x80
 80047ec:	049b      	lsls	r3, r3, #18
 80047ee:	429a      	cmp	r2, r3
 80047f0:	d02b      	beq.n	800484a <I2C_IsAcknowledgeFailed+0x86>
    {
      /* Generate Stop */
      hi2c->Instance->CR2 |= I2C_CR2_STOP;
 80047f2:	68fb      	ldr	r3, [r7, #12]
 80047f4:	681b      	ldr	r3, [r3, #0]
 80047f6:	685a      	ldr	r2, [r3, #4]
 80047f8:	68fb      	ldr	r3, [r7, #12]
 80047fa:	681b      	ldr	r3, [r3, #0]
 80047fc:	2180      	movs	r1, #128	; 0x80
 80047fe:	01c9      	lsls	r1, r1, #7
 8004800:	430a      	orrs	r2, r1
 8004802:	605a      	str	r2, [r3, #4]
    }
    /* Wait until STOP Flag is reset */
    /* AutoEnd should be initiate after AF */
    while (__HAL_I2C_GET_FLAG(hi2c, I2C_FLAG_STOPF) == RESET)
 8004804:	e021      	b.n	800484a <I2C_IsAcknowledgeFailed+0x86>
    {
      /* Check for the Timeout */
      if (Timeout != HAL_MAX_DELAY)
 8004806:	68bb      	ldr	r3, [r7, #8]
 8004808:	3301      	adds	r3, #1
 800480a:	d01e      	beq.n	800484a <I2C_IsAcknowledgeFailed+0x86>
      {
        if (((HAL_GetTick() - Tickstart) > Timeout) || (Timeout == 0U))
 800480c:	f7fe faa0 	bl	8002d50 <HAL_GetTick>
 8004810:	0002      	movs	r2, r0
 8004812:	687b      	ldr	r3, [r7, #4]
 8004814:	1ad3      	subs	r3, r2, r3
 8004816:	68ba      	ldr	r2, [r7, #8]
 8004818:	429a      	cmp	r2, r3
 800481a:	d302      	bcc.n	8004822 <I2C_IsAcknowledgeFailed+0x5e>
 800481c:	68bb      	ldr	r3, [r7, #8]
 800481e:	2b00      	cmp	r3, #0
 8004820:	d113      	bne.n	800484a <I2C_IsAcknowledgeFailed+0x86>
        {
          hi2c->ErrorCode |= HAL_I2C_ERROR_TIMEOUT;
 8004822:	68fb      	ldr	r3, [r7, #12]
 8004824:	6c5b      	ldr	r3, [r3, #68]	; 0x44
 8004826:	2220      	movs	r2, #32
 8004828:	431a      	orrs	r2, r3
 800482a:	68fb      	ldr	r3, [r7, #12]
 800482c:	645a      	str	r2, [r3, #68]	; 0x44
          hi2c->State = HAL_I2C_STATE_READY;
 800482e:	68fb      	ldr	r3, [r7, #12]
 8004830:	2241      	movs	r2, #65	; 0x41
 8004832:	2120      	movs	r1, #32
 8004834:	5499      	strb	r1, [r3, r2]
          hi2c->Mode = HAL_I2C_MODE_NONE;
 8004836:	68fb      	ldr	r3, [r7, #12]
 8004838:	2242      	movs	r2, #66	; 0x42
 800483a:	2100      	movs	r1, #0
 800483c:	5499      	strb	r1, [r3, r2]

          /* Process Unlocked */
          __HAL_UNLOCK(hi2c);
 800483e:	68fb      	ldr	r3, [r7, #12]
 8004840:	2240      	movs	r2, #64	; 0x40
 8004842:	2100      	movs	r1, #0
 8004844:	5499      	strb	r1, [r3, r2]

          return HAL_ERROR;
 8004846:	2301      	movs	r3, #1
 8004848:	e02f      	b.n	80048aa <I2C_IsAcknowledgeFailed+0xe6>
    while (__HAL_I2C_GET_FLAG(hi2c, I2C_FLAG_STOPF) == RESET)
 800484a:	68fb      	ldr	r3, [r7, #12]
 800484c:	681b      	ldr	r3, [r3, #0]
 800484e:	699b      	ldr	r3, [r3, #24]
 8004850:	2220      	movs	r2, #32
 8004852:	4013      	ands	r3, r2
 8004854:	2b20      	cmp	r3, #32
 8004856:	d1d6      	bne.n	8004806 <I2C_IsAcknowledgeFailed+0x42>
        }
      }
    }

    /* Clear NACKF Flag */
    __HAL_I2C_CLEAR_FLAG(hi2c, I2C_FLAG_AF);
 8004858:	68fb      	ldr	r3, [r7, #12]
 800485a:	681b      	ldr	r3, [r3, #0]
 800485c:	2210      	movs	r2, #16
 800485e:	61da      	str	r2, [r3, #28]

    /* Clear STOP Flag */
    __HAL_I2C_CLEAR_FLAG(hi2c, I2C_FLAG_STOPF);
 8004860:	68fb      	ldr	r3, [r7, #12]
 8004862:	681b      	ldr	r3, [r3, #0]
 8004864:	2220      	movs	r2, #32
 8004866:	61da      	str	r2, [r3, #28]

    /* Flush TX register */
    I2C_Flush_TXDR(hi2c);
 8004868:	68fb      	ldr	r3, [r7, #12]
 800486a:	0018      	movs	r0, r3
 800486c:	f7ff fe62 	bl	8004534 <I2C_Flush_TXDR>

    /* Clear Configuration Register 2 */
    I2C_RESET_CR2(hi2c);
 8004870:	68fb      	ldr	r3, [r7, #12]
 8004872:	681b      	ldr	r3, [r3, #0]
 8004874:	685a      	ldr	r2, [r3, #4]
 8004876:	68fb      	ldr	r3, [r7, #12]
 8004878:	681b      	ldr	r3, [r3, #0]
 800487a:	490e      	ldr	r1, [pc, #56]	; (80048b4 <I2C_IsAcknowledgeFailed+0xf0>)
 800487c:	400a      	ands	r2, r1
 800487e:	605a      	str	r2, [r3, #4]

    hi2c->ErrorCode |= HAL_I2C_ERROR_AF;
 8004880:	68fb      	ldr	r3, [r7, #12]
 8004882:	6c5b      	ldr	r3, [r3, #68]	; 0x44
 8004884:	2204      	movs	r2, #4
 8004886:	431a      	orrs	r2, r3
 8004888:	68fb      	ldr	r3, [r7, #12]
 800488a:	645a      	str	r2, [r3, #68]	; 0x44
    hi2c->State = HAL_I2C_STATE_READY;
 800488c:	68fb      	ldr	r3, [r7, #12]
 800488e:	2241      	movs	r2, #65	; 0x41
 8004890:	2120      	movs	r1, #32
 8004892:	5499      	strb	r1, [r3, r2]
    hi2c->Mode = HAL_I2C_MODE_NONE;
 8004894:	68fb      	ldr	r3, [r7, #12]
 8004896:	2242      	movs	r2, #66	; 0x42
 8004898:	2100      	movs	r1, #0
 800489a:	5499      	strb	r1, [r3, r2]

    /* Process Unlocked */
    __HAL_UNLOCK(hi2c);
 800489c:	68fb      	ldr	r3, [r7, #12]
 800489e:	2240      	movs	r2, #64	; 0x40
 80048a0:	2100      	movs	r1, #0
 80048a2:	5499      	strb	r1, [r3, r2]

    return HAL_ERROR;
 80048a4:	2301      	movs	r3, #1
 80048a6:	e000      	b.n	80048aa <I2C_IsAcknowledgeFailed+0xe6>
  }
  return HAL_OK;
 80048a8:	2300      	movs	r3, #0
}
 80048aa:	0018      	movs	r0, r3
 80048ac:	46bd      	mov	sp, r7
 80048ae:	b004      	add	sp, #16
 80048b0:	bd80      	pop	{r7, pc}
 80048b2:	46c0      	nop			; (mov r8, r8)
 80048b4:	fe00e800 	.word	0xfe00e800

080048b8 <I2C_TransferConfig>:
  *     @arg @ref I2C_GENERATE_START_WRITE Generate Restart for write request.
  * @retval None
  */
static void I2C_TransferConfig(I2C_HandleTypeDef *hi2c, uint16_t DevAddress, uint8_t Size, uint32_t Mode,
                               uint32_t Request)
{
 80048b8:	b590      	push	{r4, r7, lr}
 80048ba:	b085      	sub	sp, #20
 80048bc:	af00      	add	r7, sp, #0
 80048be:	60f8      	str	r0, [r7, #12]
 80048c0:	0008      	movs	r0, r1
 80048c2:	0011      	movs	r1, r2
 80048c4:	607b      	str	r3, [r7, #4]
 80048c6:	240a      	movs	r4, #10
 80048c8:	193b      	adds	r3, r7, r4
 80048ca:	1c02      	adds	r2, r0, #0
 80048cc:	801a      	strh	r2, [r3, #0]
 80048ce:	2009      	movs	r0, #9
 80048d0:	183b      	adds	r3, r7, r0
 80048d2:	1c0a      	adds	r2, r1, #0
 80048d4:	701a      	strb	r2, [r3, #0]
  assert_param(IS_I2C_ALL_INSTANCE(hi2c->Instance));
  assert_param(IS_TRANSFER_MODE(Mode));
  assert_param(IS_TRANSFER_REQUEST(Request));

  /* update CR2 register */
  MODIFY_REG(hi2c->Instance->CR2,
 80048d6:	68fb      	ldr	r3, [r7, #12]
 80048d8:	681b      	ldr	r3, [r3, #0]
 80048da:	685b      	ldr	r3, [r3, #4]
 80048dc:	6a3a      	ldr	r2, [r7, #32]
 80048de:	0d51      	lsrs	r1, r2, #21
 80048e0:	2280      	movs	r2, #128	; 0x80
 80048e2:	00d2      	lsls	r2, r2, #3
 80048e4:	400a      	ands	r2, r1
 80048e6:	490e      	ldr	r1, [pc, #56]	; (8004920 <I2C_TransferConfig+0x68>)
 80048e8:	430a      	orrs	r2, r1
 80048ea:	43d2      	mvns	r2, r2
 80048ec:	401a      	ands	r2, r3
 80048ee:	0011      	movs	r1, r2
 80048f0:	193b      	adds	r3, r7, r4
 80048f2:	881b      	ldrh	r3, [r3, #0]
 80048f4:	059b      	lsls	r3, r3, #22
 80048f6:	0d9a      	lsrs	r2, r3, #22
 80048f8:	183b      	adds	r3, r7, r0
 80048fa:	781b      	ldrb	r3, [r3, #0]
 80048fc:	0418      	lsls	r0, r3, #16
 80048fe:	23ff      	movs	r3, #255	; 0xff
 8004900:	041b      	lsls	r3, r3, #16
 8004902:	4003      	ands	r3, r0
 8004904:	431a      	orrs	r2, r3
 8004906:	687b      	ldr	r3, [r7, #4]
 8004908:	431a      	orrs	r2, r3
 800490a:	6a3b      	ldr	r3, [r7, #32]
 800490c:	431a      	orrs	r2, r3
 800490e:	68fb      	ldr	r3, [r7, #12]
 8004910:	681b      	ldr	r3, [r3, #0]
 8004912:	430a      	orrs	r2, r1
 8004914:	605a      	str	r2, [r3, #4]
               (I2C_CR2_RD_WRN & (uint32_t)(Request >> (31U - I2C_CR2_RD_WRN_Pos))) | \
               I2C_CR2_START | I2C_CR2_STOP)), \
             (uint32_t)(((uint32_t)DevAddress & I2C_CR2_SADD) | \
                        (((uint32_t)Size << I2C_CR2_NBYTES_Pos) & I2C_CR2_NBYTES) | \
                        (uint32_t)Mode | (uint32_t)Request));
}
 8004916:	46c0      	nop			; (mov r8, r8)
 8004918:	46bd      	mov	sp, r7
 800491a:	b005      	add	sp, #20
 800491c:	bd90      	pop	{r4, r7, pc}
 800491e:	46c0      	nop			; (mov r8, r8)
 8004920:	03ff63ff 	.word	0x03ff63ff

08004924 <HAL_I2CEx_ConfigAnalogFilter>:
  *                the configuration information for the specified I2Cx peripheral.
  * @param  AnalogFilter New state of the Analog filter.
  * @retval HAL status
  */
HAL_StatusTypeDef HAL_I2CEx_ConfigAnalogFilter(I2C_HandleTypeDef *hi2c, uint32_t AnalogFilter)
{
 8004924:	b580      	push	{r7, lr}
 8004926:	b082      	sub	sp, #8
 8004928:	af00      	add	r7, sp, #0
 800492a:	6078      	str	r0, [r7, #4]
 800492c:	6039      	str	r1, [r7, #0]
  /* Check the parameters */
  assert_param(IS_I2C_ALL_INSTANCE(hi2c->Instance));
  assert_param(IS_I2C_ANALOG_FILTER(AnalogFilter));

  if (hi2c->State == HAL_I2C_STATE_READY)
 800492e:	687b      	ldr	r3, [r7, #4]
 8004930:	2241      	movs	r2, #65	; 0x41
 8004932:	5c9b      	ldrb	r3, [r3, r2]
 8004934:	b2db      	uxtb	r3, r3
 8004936:	2b20      	cmp	r3, #32
 8004938:	d138      	bne.n	80049ac <HAL_I2CEx_ConfigAnalogFilter+0x88>
  {
    /* Process Locked */
    __HAL_LOCK(hi2c);
 800493a:	687b      	ldr	r3, [r7, #4]
 800493c:	2240      	movs	r2, #64	; 0x40
 800493e:	5c9b      	ldrb	r3, [r3, r2]
 8004940:	2b01      	cmp	r3, #1
 8004942:	d101      	bne.n	8004948 <HAL_I2CEx_ConfigAnalogFilter+0x24>
 8004944:	2302      	movs	r3, #2
 8004946:	e032      	b.n	80049ae <HAL_I2CEx_ConfigAnalogFilter+0x8a>
 8004948:	687b      	ldr	r3, [r7, #4]
 800494a:	2240      	movs	r2, #64	; 0x40
 800494c:	2101      	movs	r1, #1
 800494e:	5499      	strb	r1, [r3, r2]

    hi2c->State = HAL_I2C_STATE_BUSY;
 8004950:	687b      	ldr	r3, [r7, #4]
 8004952:	2241      	movs	r2, #65	; 0x41
 8004954:	2124      	movs	r1, #36	; 0x24
 8004956:	5499      	strb	r1, [r3, r2]

    /* Disable the selected I2C peripheral */
    __HAL_I2C_DISABLE(hi2c);
 8004958:	687b      	ldr	r3, [r7, #4]
 800495a:	681b      	ldr	r3, [r3, #0]
 800495c:	681a      	ldr	r2, [r3, #0]
 800495e:	687b      	ldr	r3, [r7, #4]
 8004960:	681b      	ldr	r3, [r3, #0]
 8004962:	2101      	movs	r1, #1
 8004964:	438a      	bics	r2, r1
 8004966:	601a      	str	r2, [r3, #0]

    /* Reset I2Cx ANOFF bit */
    hi2c->Instance->CR1 &= ~(I2C_CR1_ANFOFF);
 8004968:	687b      	ldr	r3, [r7, #4]
 800496a:	681b      	ldr	r3, [r3, #0]
 800496c:	681a      	ldr	r2, [r3, #0]
 800496e:	687b      	ldr	r3, [r7, #4]
 8004970:	681b      	ldr	r3, [r3, #0]
 8004972:	4911      	ldr	r1, [pc, #68]	; (80049b8 <HAL_I2CEx_ConfigAnalogFilter+0x94>)
 8004974:	400a      	ands	r2, r1
 8004976:	601a      	str	r2, [r3, #0]

    /* Set analog filter bit*/
    hi2c->Instance->CR1 |= AnalogFilter;
 8004978:	687b      	ldr	r3, [r7, #4]
 800497a:	681b      	ldr	r3, [r3, #0]
 800497c:	6819      	ldr	r1, [r3, #0]
 800497e:	687b      	ldr	r3, [r7, #4]
 8004980:	681b      	ldr	r3, [r3, #0]
 8004982:	683a      	ldr	r2, [r7, #0]
 8004984:	430a      	orrs	r2, r1
 8004986:	601a      	str	r2, [r3, #0]

    __HAL_I2C_ENABLE(hi2c);
 8004988:	687b      	ldr	r3, [r7, #4]
 800498a:	681b      	ldr	r3, [r3, #0]
 800498c:	681a      	ldr	r2, [r3, #0]
 800498e:	687b      	ldr	r3, [r7, #4]
 8004990:	681b      	ldr	r3, [r3, #0]
 8004992:	2101      	movs	r1, #1
 8004994:	430a      	orrs	r2, r1
 8004996:	601a      	str	r2, [r3, #0]

    hi2c->State = HAL_I2C_STATE_READY;
 8004998:	687b      	ldr	r3, [r7, #4]
 800499a:	2241      	movs	r2, #65	; 0x41
 800499c:	2120      	movs	r1, #32
 800499e:	5499      	strb	r1, [r3, r2]

    /* Process Unlocked */
    __HAL_UNLOCK(hi2c);
 80049a0:	687b      	ldr	r3, [r7, #4]
 80049a2:	2240      	movs	r2, #64	; 0x40
 80049a4:	2100      	movs	r1, #0
 80049a6:	5499      	strb	r1, [r3, r2]

    return HAL_OK;
 80049a8:	2300      	movs	r3, #0
 80049aa:	e000      	b.n	80049ae <HAL_I2CEx_ConfigAnalogFilter+0x8a>
  }
  else
  {
    return HAL_BUSY;
 80049ac:	2302      	movs	r3, #2
  }
}
 80049ae:	0018      	movs	r0, r3
 80049b0:	46bd      	mov	sp, r7
 80049b2:	b002      	add	sp, #8
 80049b4:	bd80      	pop	{r7, pc}
 80049b6:	46c0      	nop			; (mov r8, r8)
 80049b8:	ffffefff 	.word	0xffffefff

080049bc <HAL_I2CEx_ConfigDigitalFilter>:
  *                the configuration information for the specified I2Cx peripheral.
  * @param  DigitalFilter Coefficient of digital noise filter between Min_Data=0x00 and Max_Data=0x0F.
  * @retval HAL status
  */
HAL_StatusTypeDef HAL_I2CEx_ConfigDigitalFilter(I2C_HandleTypeDef *hi2c, uint32_t DigitalFilter)
{
 80049bc:	b580      	push	{r7, lr}
 80049be:	b084      	sub	sp, #16
 80049c0:	af00      	add	r7, sp, #0
 80049c2:	6078      	str	r0, [r7, #4]
 80049c4:	6039      	str	r1, [r7, #0]

  /* Check the parameters */
  assert_param(IS_I2C_ALL_INSTANCE(hi2c->Instance));
  assert_param(IS_I2C_DIGITAL_FILTER(DigitalFilter));

  if (hi2c->State == HAL_I2C_STATE_READY)
 80049c6:	687b      	ldr	r3, [r7, #4]
 80049c8:	2241      	movs	r2, #65	; 0x41
 80049ca:	5c9b      	ldrb	r3, [r3, r2]
 80049cc:	b2db      	uxtb	r3, r3
 80049ce:	2b20      	cmp	r3, #32
 80049d0:	d139      	bne.n	8004a46 <HAL_I2CEx_ConfigDigitalFilter+0x8a>
  {
    /* Process Locked */
    __HAL_LOCK(hi2c);
 80049d2:	687b      	ldr	r3, [r7, #4]
 80049d4:	2240      	movs	r2, #64	; 0x40
 80049d6:	5c9b      	ldrb	r3, [r3, r2]
 80049d8:	2b01      	cmp	r3, #1
 80049da:	d101      	bne.n	80049e0 <HAL_I2CEx_ConfigDigitalFilter+0x24>
 80049dc:	2302      	movs	r3, #2
 80049de:	e033      	b.n	8004a48 <HAL_I2CEx_ConfigDigitalFilter+0x8c>
 80049e0:	687b      	ldr	r3, [r7, #4]
 80049e2:	2240      	movs	r2, #64	; 0x40
 80049e4:	2101      	movs	r1, #1
 80049e6:	5499      	strb	r1, [r3, r2]

    hi2c->State = HAL_I2C_STATE_BUSY;
 80049e8:	687b      	ldr	r3, [r7, #4]
 80049ea:	2241      	movs	r2, #65	; 0x41
 80049ec:	2124      	movs	r1, #36	; 0x24
 80049ee:	5499      	strb	r1, [r3, r2]

    /* Disable the selected I2C peripheral */
    __HAL_I2C_DISABLE(hi2c);
 80049f0:	687b      	ldr	r3, [r7, #4]
 80049f2:	681b      	ldr	r3, [r3, #0]
 80049f4:	681a      	ldr	r2, [r3, #0]
 80049f6:	687b      	ldr	r3, [r7, #4]
 80049f8:	681b      	ldr	r3, [r3, #0]
 80049fa:	2101      	movs	r1, #1
 80049fc:	438a      	bics	r2, r1
 80049fe:	601a      	str	r2, [r3, #0]

    /* Get the old register value */
    tmpreg = hi2c->Instance->CR1;
 8004a00:	687b      	ldr	r3, [r7, #4]
 8004a02:	681b      	ldr	r3, [r3, #0]
 8004a04:	681b      	ldr	r3, [r3, #0]
 8004a06:	60fb      	str	r3, [r7, #12]

    /* Reset I2Cx DNF bits [11:8] */
    tmpreg &= ~(I2C_CR1_DNF);
 8004a08:	68fb      	ldr	r3, [r7, #12]
 8004a0a:	4a11      	ldr	r2, [pc, #68]	; (8004a50 <HAL_I2CEx_ConfigDigitalFilter+0x94>)
 8004a0c:	4013      	ands	r3, r2
 8004a0e:	60fb      	str	r3, [r7, #12]

    /* Set I2Cx DNF coefficient */
    tmpreg |= DigitalFilter << 8U;
 8004a10:	683b      	ldr	r3, [r7, #0]
 8004a12:	021b      	lsls	r3, r3, #8
 8004a14:	68fa      	ldr	r2, [r7, #12]
 8004a16:	4313      	orrs	r3, r2
 8004a18:	60fb      	str	r3, [r7, #12]

    /* Store the new register value */
    hi2c->Instance->CR1 = tmpreg;
 8004a1a:	687b      	ldr	r3, [r7, #4]
 8004a1c:	681b      	ldr	r3, [r3, #0]
 8004a1e:	68fa      	ldr	r2, [r7, #12]
 8004a20:	601a      	str	r2, [r3, #0]

    __HAL_I2C_ENABLE(hi2c);
 8004a22:	687b      	ldr	r3, [r7, #4]
 8004a24:	681b      	ldr	r3, [r3, #0]
 8004a26:	681a      	ldr	r2, [r3, #0]
 8004a28:	687b      	ldr	r3, [r7, #4]
 8004a2a:	681b      	ldr	r3, [r3, #0]
 8004a2c:	2101      	movs	r1, #1
 8004a2e:	430a      	orrs	r2, r1
 8004a30:	601a      	str	r2, [r3, #0]

    hi2c->State = HAL_I2C_STATE_READY;
 8004a32:	687b      	ldr	r3, [r7, #4]
 8004a34:	2241      	movs	r2, #65	; 0x41
 8004a36:	2120      	movs	r1, #32
 8004a38:	5499      	strb	r1, [r3, r2]

    /* Process Unlocked */
    __HAL_UNLOCK(hi2c);
 8004a3a:	687b      	ldr	r3, [r7, #4]
 8004a3c:	2240      	movs	r2, #64	; 0x40
 8004a3e:	2100      	movs	r1, #0
 8004a40:	5499      	strb	r1, [r3, r2]

    return HAL_OK;
 8004a42:	2300      	movs	r3, #0
 8004a44:	e000      	b.n	8004a48 <HAL_I2CEx_ConfigDigitalFilter+0x8c>
  }
  else
  {
    return HAL_BUSY;
 8004a46:	2302      	movs	r3, #2
  }
}
 8004a48:	0018      	movs	r0, r3
 8004a4a:	46bd      	mov	sp, r7
 8004a4c:	b004      	add	sp, #16
 8004a4e:	bd80      	pop	{r7, pc}
 8004a50:	fffff0ff 	.word	0xfffff0ff

08004a54 <HAL_PWR_EnableWakeUpPin>:
  *           @arg PWR_WAKEUP_PIN2
  *           @arg PWR_WAKEUP_PIN3 for stm32l07xxx and stm32l08xxx devices only.
  * @retval None
  */
void HAL_PWR_EnableWakeUpPin(uint32_t WakeUpPinx)
{
 8004a54:	b580      	push	{r7, lr}
 8004a56:	b082      	sub	sp, #8
 8004a58:	af00      	add	r7, sp, #0
 8004a5a:	6078      	str	r0, [r7, #4]
  /* Check the parameter */
  assert_param(IS_PWR_WAKEUP_PIN(WakeUpPinx));
  /* Enable the EWUPx pin */
  SET_BIT(PWR->CSR, WakeUpPinx);
 8004a5c:	4b04      	ldr	r3, [pc, #16]	; (8004a70 <HAL_PWR_EnableWakeUpPin+0x1c>)
 8004a5e:	6859      	ldr	r1, [r3, #4]
 8004a60:	4b03      	ldr	r3, [pc, #12]	; (8004a70 <HAL_PWR_EnableWakeUpPin+0x1c>)
 8004a62:	687a      	ldr	r2, [r7, #4]
 8004a64:	430a      	orrs	r2, r1
 8004a66:	605a      	str	r2, [r3, #4]
}
 8004a68:	46c0      	nop			; (mov r8, r8)
 8004a6a:	46bd      	mov	sp, r7
 8004a6c:	b002      	add	sp, #8
 8004a6e:	bd80      	pop	{r7, pc}
 8004a70:	40007000 	.word	0x40007000

08004a74 <HAL_PWR_DisableWakeUpPin>:
  *           @arg PWR_WAKEUP_PIN2  
  *           @arg PWR_WAKEUP_PIN3  for stm32l07xxx and stm32l08xxx devices only.
  * @retval None
  */
void HAL_PWR_DisableWakeUpPin(uint32_t WakeUpPinx)
{
 8004a74:	b580      	push	{r7, lr}
 8004a76:	b082      	sub	sp, #8
 8004a78:	af00      	add	r7, sp, #0
 8004a7a:	6078      	str	r0, [r7, #4]
  /* Check the parameter */
  assert_param(IS_PWR_WAKEUP_PIN(WakeUpPinx));
  /* Disable the EWUPx pin */
  CLEAR_BIT(PWR->CSR, WakeUpPinx);
 8004a7c:	4b05      	ldr	r3, [pc, #20]	; (8004a94 <HAL_PWR_DisableWakeUpPin+0x20>)
 8004a7e:	685a      	ldr	r2, [r3, #4]
 8004a80:	687b      	ldr	r3, [r7, #4]
 8004a82:	43d9      	mvns	r1, r3
 8004a84:	4b03      	ldr	r3, [pc, #12]	; (8004a94 <HAL_PWR_DisableWakeUpPin+0x20>)
 8004a86:	400a      	ands	r2, r1
 8004a88:	605a      	str	r2, [r3, #4]
}
 8004a8a:	46c0      	nop			; (mov r8, r8)
 8004a8c:	46bd      	mov	sp, r7
 8004a8e:	b002      	add	sp, #8
 8004a90:	bd80      	pop	{r7, pc}
 8004a92:	46c0      	nop			; (mov r8, r8)
 8004a94:	40007000 	.word	0x40007000

08004a98 <HAL_PWR_EnterSTANDBYMode>:
  *          - WKUP pin 3 (PE06) if enabled, for stm32l07xxx and stm32l08xxx devices only.
  *          - WKUP pin 3 (PA02) if enabled, for stm32l031xx devices only.
  * @retval None
  */
void HAL_PWR_EnterSTANDBYMode(void)
{
 8004a98:	b580      	push	{r7, lr}
 8004a9a:	af00      	add	r7, sp, #0
  /* Select Standby mode */
  SET_BIT(PWR->CR, PWR_CR_PDDS);
 8004a9c:	4b07      	ldr	r3, [pc, #28]	; (8004abc <HAL_PWR_EnterSTANDBYMode+0x24>)
 8004a9e:	681a      	ldr	r2, [r3, #0]
 8004aa0:	4b06      	ldr	r3, [pc, #24]	; (8004abc <HAL_PWR_EnterSTANDBYMode+0x24>)
 8004aa2:	2102      	movs	r1, #2
 8004aa4:	430a      	orrs	r2, r1
 8004aa6:	601a      	str	r2, [r3, #0]

  /* Set SLEEPDEEP bit of Cortex System Control Register */
  SET_BIT(SCB->SCR, SCB_SCR_SLEEPDEEP_Msk);
 8004aa8:	4b05      	ldr	r3, [pc, #20]	; (8004ac0 <HAL_PWR_EnterSTANDBYMode+0x28>)
 8004aaa:	691a      	ldr	r2, [r3, #16]
 8004aac:	4b04      	ldr	r3, [pc, #16]	; (8004ac0 <HAL_PWR_EnterSTANDBYMode+0x28>)
 8004aae:	2104      	movs	r1, #4
 8004ab0:	430a      	orrs	r2, r1
 8004ab2:	611a      	str	r2, [r3, #16]
  /* This option is used to ensure that store operations are completed */
#if defined ( __CC_ARM)
  __force_stores();
#endif
  /* Request Wait For Interrupt */
  __WFI();
 8004ab4:	bf30      	wfi
}
 8004ab6:	46c0      	nop			; (mov r8, r8)
 8004ab8:	46bd      	mov	sp, r7
 8004aba:	bd80      	pop	{r7, pc}
 8004abc:	40007000 	.word	0x40007000
 8004ac0:	e000ed00 	.word	0xe000ed00

08004ac4 <HAL_RCC_OscConfig>:
  *         supported by this macro. User should request a transition to HSE Off
  *         first and then HSE On or HSE Bypass.
  * @retval HAL status
  */
HAL_StatusTypeDef HAL_RCC_OscConfig(RCC_OscInitTypeDef  *RCC_OscInitStruct)
{
 8004ac4:	b5b0      	push	{r4, r5, r7, lr}
 8004ac6:	b08a      	sub	sp, #40	; 0x28
 8004ac8:	af00      	add	r7, sp, #0
 8004aca:	6078      	str	r0, [r7, #4]
  uint32_t hsi_state;
  HAL_StatusTypeDef status;
  uint32_t sysclk_source, pll_config;

  /* Check Null pointer */
  if(RCC_OscInitStruct == NULL)
 8004acc:	687b      	ldr	r3, [r7, #4]
 8004ace:	2b00      	cmp	r3, #0
 8004ad0:	d102      	bne.n	8004ad8 <HAL_RCC_OscConfig+0x14>
  {
    return HAL_ERROR;
 8004ad2:	2301      	movs	r3, #1
 8004ad4:	f000 fb6c 	bl	80051b0 <HAL_RCC_OscConfig+0x6ec>
  }

  /* Check the parameters */
  assert_param(IS_RCC_OSCILLATORTYPE(RCC_OscInitStruct->OscillatorType));

  sysclk_source = __HAL_RCC_GET_SYSCLK_SOURCE();
 8004ad8:	4bc8      	ldr	r3, [pc, #800]	; (8004dfc <HAL_RCC_OscConfig+0x338>)
 8004ada:	68db      	ldr	r3, [r3, #12]
 8004adc:	220c      	movs	r2, #12
 8004ade:	4013      	ands	r3, r2
 8004ae0:	61fb      	str	r3, [r7, #28]
  pll_config = __HAL_RCC_GET_PLL_OSCSOURCE();
 8004ae2:	4bc6      	ldr	r3, [pc, #792]	; (8004dfc <HAL_RCC_OscConfig+0x338>)
 8004ae4:	68da      	ldr	r2, [r3, #12]
 8004ae6:	2380      	movs	r3, #128	; 0x80
 8004ae8:	025b      	lsls	r3, r3, #9
 8004aea:	4013      	ands	r3, r2
 8004aec:	61bb      	str	r3, [r7, #24]

  /*------------------------------- HSE Configuration ------------------------*/
  if(((RCC_OscInitStruct->OscillatorType) & RCC_OSCILLATORTYPE_HSE) == RCC_OSCILLATORTYPE_HSE)
 8004aee:	687b      	ldr	r3, [r7, #4]
 8004af0:	681b      	ldr	r3, [r3, #0]
 8004af2:	2201      	movs	r2, #1
 8004af4:	4013      	ands	r3, r2
 8004af6:	d100      	bne.n	8004afa <HAL_RCC_OscConfig+0x36>
 8004af8:	e07d      	b.n	8004bf6 <HAL_RCC_OscConfig+0x132>
  {
    /* Check the parameters */
    assert_param(IS_RCC_HSE(RCC_OscInitStruct->HSEState));

    /* When the HSE is used as system clock or clock source for PLL in these cases it is not allowed to be disabled */
    if((sysclk_source == RCC_SYSCLKSOURCE_STATUS_HSE)
 8004afa:	69fb      	ldr	r3, [r7, #28]
 8004afc:	2b08      	cmp	r3, #8
 8004afe:	d007      	beq.n	8004b10 <HAL_RCC_OscConfig+0x4c>
       || ((sysclk_source == RCC_SYSCLKSOURCE_STATUS_PLLCLK) && (pll_config == RCC_PLLSOURCE_HSE)))
 8004b00:	69fb      	ldr	r3, [r7, #28]
 8004b02:	2b0c      	cmp	r3, #12
 8004b04:	d112      	bne.n	8004b2c <HAL_RCC_OscConfig+0x68>
 8004b06:	69ba      	ldr	r2, [r7, #24]
 8004b08:	2380      	movs	r3, #128	; 0x80
 8004b0a:	025b      	lsls	r3, r3, #9
 8004b0c:	429a      	cmp	r2, r3
 8004b0e:	d10d      	bne.n	8004b2c <HAL_RCC_OscConfig+0x68>
    {
      if((__HAL_RCC_GET_FLAG(RCC_FLAG_HSERDY) != 0U) && (RCC_OscInitStruct->HSEState == RCC_HSE_OFF))
 8004b10:	4bba      	ldr	r3, [pc, #744]	; (8004dfc <HAL_RCC_OscConfig+0x338>)
 8004b12:	681a      	ldr	r2, [r3, #0]
 8004b14:	2380      	movs	r3, #128	; 0x80
 8004b16:	029b      	lsls	r3, r3, #10
 8004b18:	4013      	ands	r3, r2
 8004b1a:	d100      	bne.n	8004b1e <HAL_RCC_OscConfig+0x5a>
 8004b1c:	e06a      	b.n	8004bf4 <HAL_RCC_OscConfig+0x130>
 8004b1e:	687b      	ldr	r3, [r7, #4]
 8004b20:	685b      	ldr	r3, [r3, #4]
 8004b22:	2b00      	cmp	r3, #0
 8004b24:	d166      	bne.n	8004bf4 <HAL_RCC_OscConfig+0x130>
      {
        return HAL_ERROR;
 8004b26:	2301      	movs	r3, #1
 8004b28:	f000 fb42 	bl	80051b0 <HAL_RCC_OscConfig+0x6ec>
      }
    }
    else
    {
      /* Set the new HSE configuration ---------------------------------------*/
      __HAL_RCC_HSE_CONFIG(RCC_OscInitStruct->HSEState);
 8004b2c:	687b      	ldr	r3, [r7, #4]
 8004b2e:	685a      	ldr	r2, [r3, #4]
 8004b30:	2380      	movs	r3, #128	; 0x80
 8004b32:	025b      	lsls	r3, r3, #9
 8004b34:	429a      	cmp	r2, r3
 8004b36:	d107      	bne.n	8004b48 <HAL_RCC_OscConfig+0x84>
 8004b38:	4bb0      	ldr	r3, [pc, #704]	; (8004dfc <HAL_RCC_OscConfig+0x338>)
 8004b3a:	681a      	ldr	r2, [r3, #0]
 8004b3c:	4baf      	ldr	r3, [pc, #700]	; (8004dfc <HAL_RCC_OscConfig+0x338>)
 8004b3e:	2180      	movs	r1, #128	; 0x80
 8004b40:	0249      	lsls	r1, r1, #9
 8004b42:	430a      	orrs	r2, r1
 8004b44:	601a      	str	r2, [r3, #0]
 8004b46:	e027      	b.n	8004b98 <HAL_RCC_OscConfig+0xd4>
 8004b48:	687b      	ldr	r3, [r7, #4]
 8004b4a:	685a      	ldr	r2, [r3, #4]
 8004b4c:	23a0      	movs	r3, #160	; 0xa0
 8004b4e:	02db      	lsls	r3, r3, #11
 8004b50:	429a      	cmp	r2, r3
 8004b52:	d10e      	bne.n	8004b72 <HAL_RCC_OscConfig+0xae>
 8004b54:	4ba9      	ldr	r3, [pc, #676]	; (8004dfc <HAL_RCC_OscConfig+0x338>)
 8004b56:	681a      	ldr	r2, [r3, #0]
 8004b58:	4ba8      	ldr	r3, [pc, #672]	; (8004dfc <HAL_RCC_OscConfig+0x338>)
 8004b5a:	2180      	movs	r1, #128	; 0x80
 8004b5c:	02c9      	lsls	r1, r1, #11
 8004b5e:	430a      	orrs	r2, r1
 8004b60:	601a      	str	r2, [r3, #0]
 8004b62:	4ba6      	ldr	r3, [pc, #664]	; (8004dfc <HAL_RCC_OscConfig+0x338>)
 8004b64:	681a      	ldr	r2, [r3, #0]
 8004b66:	4ba5      	ldr	r3, [pc, #660]	; (8004dfc <HAL_RCC_OscConfig+0x338>)
 8004b68:	2180      	movs	r1, #128	; 0x80
 8004b6a:	0249      	lsls	r1, r1, #9
 8004b6c:	430a      	orrs	r2, r1
 8004b6e:	601a      	str	r2, [r3, #0]
 8004b70:	e012      	b.n	8004b98 <HAL_RCC_OscConfig+0xd4>
 8004b72:	4ba2      	ldr	r3, [pc, #648]	; (8004dfc <HAL_RCC_OscConfig+0x338>)
 8004b74:	681a      	ldr	r2, [r3, #0]
 8004b76:	4ba1      	ldr	r3, [pc, #644]	; (8004dfc <HAL_RCC_OscConfig+0x338>)
 8004b78:	49a1      	ldr	r1, [pc, #644]	; (8004e00 <HAL_RCC_OscConfig+0x33c>)
 8004b7a:	400a      	ands	r2, r1
 8004b7c:	601a      	str	r2, [r3, #0]
 8004b7e:	4b9f      	ldr	r3, [pc, #636]	; (8004dfc <HAL_RCC_OscConfig+0x338>)
 8004b80:	681a      	ldr	r2, [r3, #0]
 8004b82:	2380      	movs	r3, #128	; 0x80
 8004b84:	025b      	lsls	r3, r3, #9
 8004b86:	4013      	ands	r3, r2
 8004b88:	60fb      	str	r3, [r7, #12]
 8004b8a:	68fb      	ldr	r3, [r7, #12]
 8004b8c:	4b9b      	ldr	r3, [pc, #620]	; (8004dfc <HAL_RCC_OscConfig+0x338>)
 8004b8e:	681a      	ldr	r2, [r3, #0]
 8004b90:	4b9a      	ldr	r3, [pc, #616]	; (8004dfc <HAL_RCC_OscConfig+0x338>)
 8004b92:	499c      	ldr	r1, [pc, #624]	; (8004e04 <HAL_RCC_OscConfig+0x340>)
 8004b94:	400a      	ands	r2, r1
 8004b96:	601a      	str	r2, [r3, #0]

      /* Check the HSE State */
      if(RCC_OscInitStruct->HSEState != RCC_HSE_OFF)
 8004b98:	687b      	ldr	r3, [r7, #4]
 8004b9a:	685b      	ldr	r3, [r3, #4]
 8004b9c:	2b00      	cmp	r3, #0
 8004b9e:	d014      	beq.n	8004bca <HAL_RCC_OscConfig+0x106>
      {
        /* Get Start Tick */
        tickstart = HAL_GetTick();
 8004ba0:	f7fe f8d6 	bl	8002d50 <HAL_GetTick>
 8004ba4:	0003      	movs	r3, r0
 8004ba6:	617b      	str	r3, [r7, #20]

        /* Wait till HSE is ready */
        while(__HAL_RCC_GET_FLAG(RCC_FLAG_HSERDY) == 0U)
 8004ba8:	e008      	b.n	8004bbc <HAL_RCC_OscConfig+0xf8>
        {
          if((HAL_GetTick() - tickstart ) > HSE_TIMEOUT_VALUE)
 8004baa:	f7fe f8d1 	bl	8002d50 <HAL_GetTick>
 8004bae:	0002      	movs	r2, r0
 8004bb0:	697b      	ldr	r3, [r7, #20]
 8004bb2:	1ad3      	subs	r3, r2, r3
 8004bb4:	2b64      	cmp	r3, #100	; 0x64
 8004bb6:	d901      	bls.n	8004bbc <HAL_RCC_OscConfig+0xf8>
          {
            return HAL_TIMEOUT;
 8004bb8:	2303      	movs	r3, #3
 8004bba:	e2f9      	b.n	80051b0 <HAL_RCC_OscConfig+0x6ec>
        while(__HAL_RCC_GET_FLAG(RCC_FLAG_HSERDY) == 0U)
 8004bbc:	4b8f      	ldr	r3, [pc, #572]	; (8004dfc <HAL_RCC_OscConfig+0x338>)
 8004bbe:	681a      	ldr	r2, [r3, #0]
 8004bc0:	2380      	movs	r3, #128	; 0x80
 8004bc2:	029b      	lsls	r3, r3, #10
 8004bc4:	4013      	ands	r3, r2
 8004bc6:	d0f0      	beq.n	8004baa <HAL_RCC_OscConfig+0xe6>
 8004bc8:	e015      	b.n	8004bf6 <HAL_RCC_OscConfig+0x132>
        }
      }
      else
      {
        /* Get Start Tick */
        tickstart = HAL_GetTick();
 8004bca:	f7fe f8c1 	bl	8002d50 <HAL_GetTick>
 8004bce:	0003      	movs	r3, r0
 8004bd0:	617b      	str	r3, [r7, #20]

        /* Wait till HSE is disabled */
        while(__HAL_RCC_GET_FLAG(RCC_FLAG_HSERDY) != 0U)
 8004bd2:	e008      	b.n	8004be6 <HAL_RCC_OscConfig+0x122>
        {
           if((HAL_GetTick() - tickstart ) > HSE_TIMEOUT_VALUE)
 8004bd4:	f7fe f8bc 	bl	8002d50 <HAL_GetTick>
 8004bd8:	0002      	movs	r2, r0
 8004bda:	697b      	ldr	r3, [r7, #20]
 8004bdc:	1ad3      	subs	r3, r2, r3
 8004bde:	2b64      	cmp	r3, #100	; 0x64
 8004be0:	d901      	bls.n	8004be6 <HAL_RCC_OscConfig+0x122>
          {
            return HAL_TIMEOUT;
 8004be2:	2303      	movs	r3, #3
 8004be4:	e2e4      	b.n	80051b0 <HAL_RCC_OscConfig+0x6ec>
        while(__HAL_RCC_GET_FLAG(RCC_FLAG_HSERDY) != 0U)
 8004be6:	4b85      	ldr	r3, [pc, #532]	; (8004dfc <HAL_RCC_OscConfig+0x338>)
 8004be8:	681a      	ldr	r2, [r3, #0]
 8004bea:	2380      	movs	r3, #128	; 0x80
 8004bec:	029b      	lsls	r3, r3, #10
 8004bee:	4013      	ands	r3, r2
 8004bf0:	d1f0      	bne.n	8004bd4 <HAL_RCC_OscConfig+0x110>
 8004bf2:	e000      	b.n	8004bf6 <HAL_RCC_OscConfig+0x132>
      if((__HAL_RCC_GET_FLAG(RCC_FLAG_HSERDY) != 0U) && (RCC_OscInitStruct->HSEState == RCC_HSE_OFF))
 8004bf4:	46c0      	nop			; (mov r8, r8)
        }
      }
    }
  }
  /*----------------------------- HSI Configuration --------------------------*/
  if(((RCC_OscInitStruct->OscillatorType) & RCC_OSCILLATORTYPE_HSI) == RCC_OSCILLATORTYPE_HSI)
 8004bf6:	687b      	ldr	r3, [r7, #4]
 8004bf8:	681b      	ldr	r3, [r3, #0]
 8004bfa:	2202      	movs	r2, #2
 8004bfc:	4013      	ands	r3, r2
 8004bfe:	d100      	bne.n	8004c02 <HAL_RCC_OscConfig+0x13e>
 8004c00:	e099      	b.n	8004d36 <HAL_RCC_OscConfig+0x272>
  {
    /* Check the parameters */
    assert_param(IS_RCC_HSI(RCC_OscInitStruct->HSIState));
    assert_param(IS_RCC_CALIBRATION_VALUE(RCC_OscInitStruct->HSICalibrationValue));

    hsi_state = RCC_OscInitStruct->HSIState;
 8004c02:	687b      	ldr	r3, [r7, #4]
 8004c04:	68db      	ldr	r3, [r3, #12]
 8004c06:	627b      	str	r3, [r7, #36]	; 0x24

#if defined(RCC_CR_HSIOUTEN)
    if((hsi_state & RCC_HSI_OUTEN) != 0U)
 8004c08:	6a7b      	ldr	r3, [r7, #36]	; 0x24
 8004c0a:	2220      	movs	r2, #32
 8004c0c:	4013      	ands	r3, r2
 8004c0e:	d009      	beq.n	8004c24 <HAL_RCC_OscConfig+0x160>
    {
      /* HSI Output enable for timer requested */
      SET_BIT(RCC->CR, RCC_CR_HSIOUTEN);
 8004c10:	4b7a      	ldr	r3, [pc, #488]	; (8004dfc <HAL_RCC_OscConfig+0x338>)
 8004c12:	681a      	ldr	r2, [r3, #0]
 8004c14:	4b79      	ldr	r3, [pc, #484]	; (8004dfc <HAL_RCC_OscConfig+0x338>)
 8004c16:	2120      	movs	r1, #32
 8004c18:	430a      	orrs	r2, r1
 8004c1a:	601a      	str	r2, [r3, #0]

      hsi_state &= ~RCC_CR_HSIOUTEN;
 8004c1c:	6a7b      	ldr	r3, [r7, #36]	; 0x24
 8004c1e:	2220      	movs	r2, #32
 8004c20:	4393      	bics	r3, r2
 8004c22:	627b      	str	r3, [r7, #36]	; 0x24
    }
#endif

    /* Check if HSI is used as system clock or as PLL source when PLL is selected as system clock */
    if((sysclk_source == RCC_SYSCLKSOURCE_STATUS_HSI)
 8004c24:	69fb      	ldr	r3, [r7, #28]
 8004c26:	2b04      	cmp	r3, #4
 8004c28:	d005      	beq.n	8004c36 <HAL_RCC_OscConfig+0x172>
       || ((sysclk_source == RCC_SYSCLKSOURCE_STATUS_PLLCLK) && (pll_config == RCC_PLLSOURCE_HSI)))
 8004c2a:	69fb      	ldr	r3, [r7, #28]
 8004c2c:	2b0c      	cmp	r3, #12
 8004c2e:	d13e      	bne.n	8004cae <HAL_RCC_OscConfig+0x1ea>
 8004c30:	69bb      	ldr	r3, [r7, #24]
 8004c32:	2b00      	cmp	r3, #0
 8004c34:	d13b      	bne.n	8004cae <HAL_RCC_OscConfig+0x1ea>
    {
      /* When HSI is used as system clock it will not disabled */
      if((__HAL_RCC_GET_FLAG(RCC_FLAG_HSIRDY) != 0U) && (hsi_state == RCC_HSI_OFF))
 8004c36:	4b71      	ldr	r3, [pc, #452]	; (8004dfc <HAL_RCC_OscConfig+0x338>)
 8004c38:	681b      	ldr	r3, [r3, #0]
 8004c3a:	2204      	movs	r2, #4
 8004c3c:	4013      	ands	r3, r2
 8004c3e:	d004      	beq.n	8004c4a <HAL_RCC_OscConfig+0x186>
 8004c40:	6a7b      	ldr	r3, [r7, #36]	; 0x24
 8004c42:	2b00      	cmp	r3, #0
 8004c44:	d101      	bne.n	8004c4a <HAL_RCC_OscConfig+0x186>
      {
        return HAL_ERROR;
 8004c46:	2301      	movs	r3, #1
 8004c48:	e2b2      	b.n	80051b0 <HAL_RCC_OscConfig+0x6ec>
      }
      /* Otherwise, just the calibration and HSI or HSIdiv4 are allowed */
      else
      {
        /* Adjusts the Internal High Speed oscillator (HSI) calibration value.*/
        __HAL_RCC_HSI_CALIBRATIONVALUE_ADJUST(RCC_OscInitStruct->HSICalibrationValue);
 8004c4a:	4b6c      	ldr	r3, [pc, #432]	; (8004dfc <HAL_RCC_OscConfig+0x338>)
 8004c4c:	685b      	ldr	r3, [r3, #4]
 8004c4e:	4a6e      	ldr	r2, [pc, #440]	; (8004e08 <HAL_RCC_OscConfig+0x344>)
 8004c50:	4013      	ands	r3, r2
 8004c52:	0019      	movs	r1, r3
 8004c54:	687b      	ldr	r3, [r7, #4]
 8004c56:	691b      	ldr	r3, [r3, #16]
 8004c58:	021a      	lsls	r2, r3, #8
 8004c5a:	4b68      	ldr	r3, [pc, #416]	; (8004dfc <HAL_RCC_OscConfig+0x338>)
 8004c5c:	430a      	orrs	r2, r1
 8004c5e:	605a      	str	r2, [r3, #4]

        /* Enable the Internal High Speed oscillator (HSI or HSIdiv4) */
        __HAL_RCC_HSI_CONFIG(hsi_state);
 8004c60:	4b66      	ldr	r3, [pc, #408]	; (8004dfc <HAL_RCC_OscConfig+0x338>)
 8004c62:	681b      	ldr	r3, [r3, #0]
 8004c64:	2209      	movs	r2, #9
 8004c66:	4393      	bics	r3, r2
 8004c68:	0019      	movs	r1, r3
 8004c6a:	4b64      	ldr	r3, [pc, #400]	; (8004dfc <HAL_RCC_OscConfig+0x338>)
 8004c6c:	6a7a      	ldr	r2, [r7, #36]	; 0x24
 8004c6e:	430a      	orrs	r2, r1
 8004c70:	601a      	str	r2, [r3, #0]
      }

      /* Update the SystemCoreClock global variable */
      SystemCoreClock = HAL_RCC_GetSysClockFreq() >> AHBPrescTable[(RCC->CFGR & RCC_CFGR_HPRE)>> RCC_CFGR_HPRE_Pos];
 8004c72:	f000 fbeb 	bl	800544c <HAL_RCC_GetSysClockFreq>
 8004c76:	0001      	movs	r1, r0
 8004c78:	4b60      	ldr	r3, [pc, #384]	; (8004dfc <HAL_RCC_OscConfig+0x338>)
 8004c7a:	68db      	ldr	r3, [r3, #12]
 8004c7c:	091b      	lsrs	r3, r3, #4
 8004c7e:	220f      	movs	r2, #15
 8004c80:	4013      	ands	r3, r2
 8004c82:	4a62      	ldr	r2, [pc, #392]	; (8004e0c <HAL_RCC_OscConfig+0x348>)
 8004c84:	5cd3      	ldrb	r3, [r2, r3]
 8004c86:	000a      	movs	r2, r1
 8004c88:	40da      	lsrs	r2, r3
 8004c8a:	4b61      	ldr	r3, [pc, #388]	; (8004e10 <HAL_RCC_OscConfig+0x34c>)
 8004c8c:	601a      	str	r2, [r3, #0]

      /* Configure the source of time base considering new system clocks settings*/
      status = HAL_InitTick (uwTickPrio);
 8004c8e:	4b61      	ldr	r3, [pc, #388]	; (8004e14 <HAL_RCC_OscConfig+0x350>)
 8004c90:	681b      	ldr	r3, [r3, #0]
 8004c92:	2513      	movs	r5, #19
 8004c94:	197c      	adds	r4, r7, r5
 8004c96:	0018      	movs	r0, r3
 8004c98:	f7fe f814 	bl	8002cc4 <HAL_InitTick>
 8004c9c:	0003      	movs	r3, r0
 8004c9e:	7023      	strb	r3, [r4, #0]
      if(status != HAL_OK)
 8004ca0:	197b      	adds	r3, r7, r5
 8004ca2:	781b      	ldrb	r3, [r3, #0]
 8004ca4:	2b00      	cmp	r3, #0
 8004ca6:	d046      	beq.n	8004d36 <HAL_RCC_OscConfig+0x272>
      {
        return status;
 8004ca8:	197b      	adds	r3, r7, r5
 8004caa:	781b      	ldrb	r3, [r3, #0]
 8004cac:	e280      	b.n	80051b0 <HAL_RCC_OscConfig+0x6ec>
      }
    }
    else
    {
      /* Check the HSI State */
      if(hsi_state != RCC_HSI_OFF)
 8004cae:	6a7b      	ldr	r3, [r7, #36]	; 0x24
 8004cb0:	2b00      	cmp	r3, #0
 8004cb2:	d027      	beq.n	8004d04 <HAL_RCC_OscConfig+0x240>
      {
        /* Enable the Internal High Speed oscillator (HSI or HSIdiv4) */
        __HAL_RCC_HSI_CONFIG(hsi_state);
 8004cb4:	4b51      	ldr	r3, [pc, #324]	; (8004dfc <HAL_RCC_OscConfig+0x338>)
 8004cb6:	681b      	ldr	r3, [r3, #0]
 8004cb8:	2209      	movs	r2, #9
 8004cba:	4393      	bics	r3, r2
 8004cbc:	0019      	movs	r1, r3
 8004cbe:	4b4f      	ldr	r3, [pc, #316]	; (8004dfc <HAL_RCC_OscConfig+0x338>)
 8004cc0:	6a7a      	ldr	r2, [r7, #36]	; 0x24
 8004cc2:	430a      	orrs	r2, r1
 8004cc4:	601a      	str	r2, [r3, #0]

        /* Get Start Tick */
        tickstart = HAL_GetTick();
 8004cc6:	f7fe f843 	bl	8002d50 <HAL_GetTick>
 8004cca:	0003      	movs	r3, r0
 8004ccc:	617b      	str	r3, [r7, #20]

        /* Wait till HSI is ready */
        while(__HAL_RCC_GET_FLAG(RCC_FLAG_HSIRDY) == 0U)
 8004cce:	e008      	b.n	8004ce2 <HAL_RCC_OscConfig+0x21e>
        {
          if((HAL_GetTick() - tickstart ) > HSI_TIMEOUT_VALUE)
 8004cd0:	f7fe f83e 	bl	8002d50 <HAL_GetTick>
 8004cd4:	0002      	movs	r2, r0
 8004cd6:	697b      	ldr	r3, [r7, #20]
 8004cd8:	1ad3      	subs	r3, r2, r3
 8004cda:	2b02      	cmp	r3, #2
 8004cdc:	d901      	bls.n	8004ce2 <HAL_RCC_OscConfig+0x21e>
          {
            return HAL_TIMEOUT;
 8004cde:	2303      	movs	r3, #3
 8004ce0:	e266      	b.n	80051b0 <HAL_RCC_OscConfig+0x6ec>
        while(__HAL_RCC_GET_FLAG(RCC_FLAG_HSIRDY) == 0U)
 8004ce2:	4b46      	ldr	r3, [pc, #280]	; (8004dfc <HAL_RCC_OscConfig+0x338>)
 8004ce4:	681b      	ldr	r3, [r3, #0]
 8004ce6:	2204      	movs	r2, #4
 8004ce8:	4013      	ands	r3, r2
 8004cea:	d0f1      	beq.n	8004cd0 <HAL_RCC_OscConfig+0x20c>
          }
        }

        /* Adjusts the Internal High Speed oscillator (HSI) calibration value.*/
        __HAL_RCC_HSI_CALIBRATIONVALUE_ADJUST(RCC_OscInitStruct->HSICalibrationValue);
 8004cec:	4b43      	ldr	r3, [pc, #268]	; (8004dfc <HAL_RCC_OscConfig+0x338>)
 8004cee:	685b      	ldr	r3, [r3, #4]
 8004cf0:	4a45      	ldr	r2, [pc, #276]	; (8004e08 <HAL_RCC_OscConfig+0x344>)
 8004cf2:	4013      	ands	r3, r2
 8004cf4:	0019      	movs	r1, r3
 8004cf6:	687b      	ldr	r3, [r7, #4]
 8004cf8:	691b      	ldr	r3, [r3, #16]
 8004cfa:	021a      	lsls	r2, r3, #8
 8004cfc:	4b3f      	ldr	r3, [pc, #252]	; (8004dfc <HAL_RCC_OscConfig+0x338>)
 8004cfe:	430a      	orrs	r2, r1
 8004d00:	605a      	str	r2, [r3, #4]
 8004d02:	e018      	b.n	8004d36 <HAL_RCC_OscConfig+0x272>
      }
      else
      {
        /* Disable the Internal High Speed oscillator (HSI). */
        __HAL_RCC_HSI_DISABLE();
 8004d04:	4b3d      	ldr	r3, [pc, #244]	; (8004dfc <HAL_RCC_OscConfig+0x338>)
 8004d06:	681a      	ldr	r2, [r3, #0]
 8004d08:	4b3c      	ldr	r3, [pc, #240]	; (8004dfc <HAL_RCC_OscConfig+0x338>)
 8004d0a:	2101      	movs	r1, #1
 8004d0c:	438a      	bics	r2, r1
 8004d0e:	601a      	str	r2, [r3, #0]

        /* Get Start Tick */
        tickstart = HAL_GetTick();
 8004d10:	f7fe f81e 	bl	8002d50 <HAL_GetTick>
 8004d14:	0003      	movs	r3, r0
 8004d16:	617b      	str	r3, [r7, #20]

        /* Wait till HSI is disabled */
        while(__HAL_RCC_GET_FLAG(RCC_FLAG_HSIRDY) != 0U)
 8004d18:	e008      	b.n	8004d2c <HAL_RCC_OscConfig+0x268>
        {
          if((HAL_GetTick() - tickstart ) > HSI_TIMEOUT_VALUE)
 8004d1a:	f7fe f819 	bl	8002d50 <HAL_GetTick>
 8004d1e:	0002      	movs	r2, r0
 8004d20:	697b      	ldr	r3, [r7, #20]
 8004d22:	1ad3      	subs	r3, r2, r3
 8004d24:	2b02      	cmp	r3, #2
 8004d26:	d901      	bls.n	8004d2c <HAL_RCC_OscConfig+0x268>
          {
            return HAL_TIMEOUT;
 8004d28:	2303      	movs	r3, #3
 8004d2a:	e241      	b.n	80051b0 <HAL_RCC_OscConfig+0x6ec>
        while(__HAL_RCC_GET_FLAG(RCC_FLAG_HSIRDY) != 0U)
 8004d2c:	4b33      	ldr	r3, [pc, #204]	; (8004dfc <HAL_RCC_OscConfig+0x338>)
 8004d2e:	681b      	ldr	r3, [r3, #0]
 8004d30:	2204      	movs	r2, #4
 8004d32:	4013      	ands	r3, r2
 8004d34:	d1f1      	bne.n	8004d1a <HAL_RCC_OscConfig+0x256>
        }
      }
    }
  }
  /*----------------------------- MSI Configuration --------------------------*/
  if(((RCC_OscInitStruct->OscillatorType) & RCC_OSCILLATORTYPE_MSI) == RCC_OSCILLATORTYPE_MSI)
 8004d36:	687b      	ldr	r3, [r7, #4]
 8004d38:	681b      	ldr	r3, [r3, #0]
 8004d3a:	2210      	movs	r2, #16
 8004d3c:	4013      	ands	r3, r2
 8004d3e:	d100      	bne.n	8004d42 <HAL_RCC_OscConfig+0x27e>
 8004d40:	e0a1      	b.n	8004e86 <HAL_RCC_OscConfig+0x3c2>
  {
    /* When the MSI is used as system clock it will not be disabled */
    if(sysclk_source == RCC_CFGR_SWS_MSI)
 8004d42:	69fb      	ldr	r3, [r7, #28]
 8004d44:	2b00      	cmp	r3, #0
 8004d46:	d140      	bne.n	8004dca <HAL_RCC_OscConfig+0x306>
    {
      if((__HAL_RCC_GET_FLAG(RCC_FLAG_MSIRDY) != 0U) && (RCC_OscInitStruct->MSIState == RCC_MSI_OFF))
 8004d48:	4b2c      	ldr	r3, [pc, #176]	; (8004dfc <HAL_RCC_OscConfig+0x338>)
 8004d4a:	681a      	ldr	r2, [r3, #0]
 8004d4c:	2380      	movs	r3, #128	; 0x80
 8004d4e:	009b      	lsls	r3, r3, #2
 8004d50:	4013      	ands	r3, r2
 8004d52:	d005      	beq.n	8004d60 <HAL_RCC_OscConfig+0x29c>
 8004d54:	687b      	ldr	r3, [r7, #4]
 8004d56:	699b      	ldr	r3, [r3, #24]
 8004d58:	2b00      	cmp	r3, #0
 8004d5a:	d101      	bne.n	8004d60 <HAL_RCC_OscConfig+0x29c>
      {
        return HAL_ERROR;
 8004d5c:	2301      	movs	r3, #1
 8004d5e:	e227      	b.n	80051b0 <HAL_RCC_OscConfig+0x6ec>
        /* Check MSICalibrationValue and MSIClockRange input parameters */
        assert_param(IS_RCC_MSICALIBRATION_VALUE(RCC_OscInitStruct->MSICalibrationValue));
        assert_param(IS_RCC_MSI_CLOCK_RANGE(RCC_OscInitStruct->MSIClockRange));

        /* Selects the Multiple Speed oscillator (MSI) clock range .*/
        __HAL_RCC_MSI_RANGE_CONFIG(RCC_OscInitStruct->MSIClockRange);
 8004d60:	4b26      	ldr	r3, [pc, #152]	; (8004dfc <HAL_RCC_OscConfig+0x338>)
 8004d62:	685b      	ldr	r3, [r3, #4]
 8004d64:	4a2c      	ldr	r2, [pc, #176]	; (8004e18 <HAL_RCC_OscConfig+0x354>)
 8004d66:	4013      	ands	r3, r2
 8004d68:	0019      	movs	r1, r3
 8004d6a:	687b      	ldr	r3, [r7, #4]
 8004d6c:	6a1a      	ldr	r2, [r3, #32]
 8004d6e:	4b23      	ldr	r3, [pc, #140]	; (8004dfc <HAL_RCC_OscConfig+0x338>)
 8004d70:	430a      	orrs	r2, r1
 8004d72:	605a      	str	r2, [r3, #4]
        /* Adjusts the Multiple Speed oscillator (MSI) calibration value.*/
        __HAL_RCC_MSI_CALIBRATIONVALUE_ADJUST(RCC_OscInitStruct->MSICalibrationValue);
 8004d74:	4b21      	ldr	r3, [pc, #132]	; (8004dfc <HAL_RCC_OscConfig+0x338>)
 8004d76:	685b      	ldr	r3, [r3, #4]
 8004d78:	021b      	lsls	r3, r3, #8
 8004d7a:	0a19      	lsrs	r1, r3, #8
 8004d7c:	687b      	ldr	r3, [r7, #4]
 8004d7e:	69db      	ldr	r3, [r3, #28]
 8004d80:	061a      	lsls	r2, r3, #24
 8004d82:	4b1e      	ldr	r3, [pc, #120]	; (8004dfc <HAL_RCC_OscConfig+0x338>)
 8004d84:	430a      	orrs	r2, r1
 8004d86:	605a      	str	r2, [r3, #4]


        /* Update the SystemCoreClock global variable */
        SystemCoreClock =  (32768U * (1UL << ((RCC_OscInitStruct->MSIClockRange >> RCC_ICSCR_MSIRANGE_Pos) + 1U)))
 8004d88:	687b      	ldr	r3, [r7, #4]
 8004d8a:	6a1b      	ldr	r3, [r3, #32]
 8004d8c:	0b5b      	lsrs	r3, r3, #13
 8004d8e:	3301      	adds	r3, #1
 8004d90:	2280      	movs	r2, #128	; 0x80
 8004d92:	0212      	lsls	r2, r2, #8
 8004d94:	409a      	lsls	r2, r3
                           >> AHBPrescTable[((RCC->CFGR & RCC_CFGR_HPRE) >> RCC_CFGR_HPRE_Pos)];
 8004d96:	4b19      	ldr	r3, [pc, #100]	; (8004dfc <HAL_RCC_OscConfig+0x338>)
 8004d98:	68db      	ldr	r3, [r3, #12]
 8004d9a:	091b      	lsrs	r3, r3, #4
 8004d9c:	210f      	movs	r1, #15
 8004d9e:	400b      	ands	r3, r1
 8004da0:	491a      	ldr	r1, [pc, #104]	; (8004e0c <HAL_RCC_OscConfig+0x348>)
 8004da2:	5ccb      	ldrb	r3, [r1, r3]
 8004da4:	40da      	lsrs	r2, r3
        SystemCoreClock =  (32768U * (1UL << ((RCC_OscInitStruct->MSIClockRange >> RCC_ICSCR_MSIRANGE_Pos) + 1U)))
 8004da6:	4b1a      	ldr	r3, [pc, #104]	; (8004e10 <HAL_RCC_OscConfig+0x34c>)
 8004da8:	601a      	str	r2, [r3, #0]

        /* Configure the source of time base considering new system clocks settings*/
        status = HAL_InitTick (uwTickPrio);
 8004daa:	4b1a      	ldr	r3, [pc, #104]	; (8004e14 <HAL_RCC_OscConfig+0x350>)
 8004dac:	681b      	ldr	r3, [r3, #0]
 8004dae:	2513      	movs	r5, #19
 8004db0:	197c      	adds	r4, r7, r5
 8004db2:	0018      	movs	r0, r3
 8004db4:	f7fd ff86 	bl	8002cc4 <HAL_InitTick>
 8004db8:	0003      	movs	r3, r0
 8004dba:	7023      	strb	r3, [r4, #0]
        if(status != HAL_OK)
 8004dbc:	197b      	adds	r3, r7, r5
 8004dbe:	781b      	ldrb	r3, [r3, #0]
 8004dc0:	2b00      	cmp	r3, #0
 8004dc2:	d060      	beq.n	8004e86 <HAL_RCC_OscConfig+0x3c2>
        {
          return status;
 8004dc4:	197b      	adds	r3, r7, r5
 8004dc6:	781b      	ldrb	r3, [r3, #0]
 8004dc8:	e1f2      	b.n	80051b0 <HAL_RCC_OscConfig+0x6ec>
    {
      /* Check MSI State */
      assert_param(IS_RCC_MSI(RCC_OscInitStruct->MSIState));

      /* Check the MSI State */
      if(RCC_OscInitStruct->MSIState != RCC_MSI_OFF)
 8004dca:	687b      	ldr	r3, [r7, #4]
 8004dcc:	699b      	ldr	r3, [r3, #24]
 8004dce:	2b00      	cmp	r3, #0
 8004dd0:	d03f      	beq.n	8004e52 <HAL_RCC_OscConfig+0x38e>
      {
        /* Enable the Multi Speed oscillator (MSI). */
        __HAL_RCC_MSI_ENABLE();
 8004dd2:	4b0a      	ldr	r3, [pc, #40]	; (8004dfc <HAL_RCC_OscConfig+0x338>)
 8004dd4:	681a      	ldr	r2, [r3, #0]
 8004dd6:	4b09      	ldr	r3, [pc, #36]	; (8004dfc <HAL_RCC_OscConfig+0x338>)
 8004dd8:	2180      	movs	r1, #128	; 0x80
 8004dda:	0049      	lsls	r1, r1, #1
 8004ddc:	430a      	orrs	r2, r1
 8004dde:	601a      	str	r2, [r3, #0]

        /* Get Start Tick */
        tickstart = HAL_GetTick();
 8004de0:	f7fd ffb6 	bl	8002d50 <HAL_GetTick>
 8004de4:	0003      	movs	r3, r0
 8004de6:	617b      	str	r3, [r7, #20]

        /* Wait till MSI is ready */
        while(__HAL_RCC_GET_FLAG(RCC_FLAG_MSIRDY) == 0U)
 8004de8:	e018      	b.n	8004e1c <HAL_RCC_OscConfig+0x358>
        {
          if((HAL_GetTick() - tickstart) > MSI_TIMEOUT_VALUE)
 8004dea:	f7fd ffb1 	bl	8002d50 <HAL_GetTick>
 8004dee:	0002      	movs	r2, r0
 8004df0:	697b      	ldr	r3, [r7, #20]
 8004df2:	1ad3      	subs	r3, r2, r3
 8004df4:	2b02      	cmp	r3, #2
 8004df6:	d911      	bls.n	8004e1c <HAL_RCC_OscConfig+0x358>
          {
            return HAL_TIMEOUT;
 8004df8:	2303      	movs	r3, #3
 8004dfa:	e1d9      	b.n	80051b0 <HAL_RCC_OscConfig+0x6ec>
 8004dfc:	40021000 	.word	0x40021000
 8004e00:	fffeffff 	.word	0xfffeffff
 8004e04:	fffbffff 	.word	0xfffbffff
 8004e08:	ffffe0ff 	.word	0xffffe0ff
 8004e0c:	08007224 	.word	0x08007224
 8004e10:	20000184 	.word	0x20000184
 8004e14:	20000188 	.word	0x20000188
 8004e18:	ffff1fff 	.word	0xffff1fff
        while(__HAL_RCC_GET_FLAG(RCC_FLAG_MSIRDY) == 0U)
 8004e1c:	4bc9      	ldr	r3, [pc, #804]	; (8005144 <HAL_RCC_OscConfig+0x680>)
 8004e1e:	681a      	ldr	r2, [r3, #0]
 8004e20:	2380      	movs	r3, #128	; 0x80
 8004e22:	009b      	lsls	r3, r3, #2
 8004e24:	4013      	ands	r3, r2
 8004e26:	d0e0      	beq.n	8004dea <HAL_RCC_OscConfig+0x326>
        /* Check MSICalibrationValue and MSIClockRange input parameters */
        assert_param(IS_RCC_MSICALIBRATION_VALUE(RCC_OscInitStruct->MSICalibrationValue));
        assert_param(IS_RCC_MSI_CLOCK_RANGE(RCC_OscInitStruct->MSIClockRange));

        /* Selects the Multiple Speed oscillator (MSI) clock range .*/
        __HAL_RCC_MSI_RANGE_CONFIG(RCC_OscInitStruct->MSIClockRange);
 8004e28:	4bc6      	ldr	r3, [pc, #792]	; (8005144 <HAL_RCC_OscConfig+0x680>)
 8004e2a:	685b      	ldr	r3, [r3, #4]
 8004e2c:	4ac6      	ldr	r2, [pc, #792]	; (8005148 <HAL_RCC_OscConfig+0x684>)
 8004e2e:	4013      	ands	r3, r2
 8004e30:	0019      	movs	r1, r3
 8004e32:	687b      	ldr	r3, [r7, #4]
 8004e34:	6a1a      	ldr	r2, [r3, #32]
 8004e36:	4bc3      	ldr	r3, [pc, #780]	; (8005144 <HAL_RCC_OscConfig+0x680>)
 8004e38:	430a      	orrs	r2, r1
 8004e3a:	605a      	str	r2, [r3, #4]
         /* Adjusts the Multiple Speed oscillator (MSI) calibration value.*/
        __HAL_RCC_MSI_CALIBRATIONVALUE_ADJUST(RCC_OscInitStruct->MSICalibrationValue);
 8004e3c:	4bc1      	ldr	r3, [pc, #772]	; (8005144 <HAL_RCC_OscConfig+0x680>)
 8004e3e:	685b      	ldr	r3, [r3, #4]
 8004e40:	021b      	lsls	r3, r3, #8
 8004e42:	0a19      	lsrs	r1, r3, #8
 8004e44:	687b      	ldr	r3, [r7, #4]
 8004e46:	69db      	ldr	r3, [r3, #28]
 8004e48:	061a      	lsls	r2, r3, #24
 8004e4a:	4bbe      	ldr	r3, [pc, #760]	; (8005144 <HAL_RCC_OscConfig+0x680>)
 8004e4c:	430a      	orrs	r2, r1
 8004e4e:	605a      	str	r2, [r3, #4]
 8004e50:	e019      	b.n	8004e86 <HAL_RCC_OscConfig+0x3c2>
      }
      else
      {
        /* Disable the Multi Speed oscillator (MSI). */
        __HAL_RCC_MSI_DISABLE();
 8004e52:	4bbc      	ldr	r3, [pc, #752]	; (8005144 <HAL_RCC_OscConfig+0x680>)
 8004e54:	681a      	ldr	r2, [r3, #0]
 8004e56:	4bbb      	ldr	r3, [pc, #748]	; (8005144 <HAL_RCC_OscConfig+0x680>)
 8004e58:	49bc      	ldr	r1, [pc, #752]	; (800514c <HAL_RCC_OscConfig+0x688>)
 8004e5a:	400a      	ands	r2, r1
 8004e5c:	601a      	str	r2, [r3, #0]

        /* Get Start Tick */
        tickstart = HAL_GetTick();
 8004e5e:	f7fd ff77 	bl	8002d50 <HAL_GetTick>
 8004e62:	0003      	movs	r3, r0
 8004e64:	617b      	str	r3, [r7, #20]

        /* Wait till MSI is ready */
        while(__HAL_RCC_GET_FLAG(RCC_FLAG_MSIRDY) != 0U)
 8004e66:	e008      	b.n	8004e7a <HAL_RCC_OscConfig+0x3b6>
        {
          if((HAL_GetTick() - tickstart) > MSI_TIMEOUT_VALUE)
 8004e68:	f7fd ff72 	bl	8002d50 <HAL_GetTick>
 8004e6c:	0002      	movs	r2, r0
 8004e6e:	697b      	ldr	r3, [r7, #20]
 8004e70:	1ad3      	subs	r3, r2, r3
 8004e72:	2b02      	cmp	r3, #2
 8004e74:	d901      	bls.n	8004e7a <HAL_RCC_OscConfig+0x3b6>
          {
            return HAL_TIMEOUT;
 8004e76:	2303      	movs	r3, #3
 8004e78:	e19a      	b.n	80051b0 <HAL_RCC_OscConfig+0x6ec>
        while(__HAL_RCC_GET_FLAG(RCC_FLAG_MSIRDY) != 0U)
 8004e7a:	4bb2      	ldr	r3, [pc, #712]	; (8005144 <HAL_RCC_OscConfig+0x680>)
 8004e7c:	681a      	ldr	r2, [r3, #0]
 8004e7e:	2380      	movs	r3, #128	; 0x80
 8004e80:	009b      	lsls	r3, r3, #2
 8004e82:	4013      	ands	r3, r2
 8004e84:	d1f0      	bne.n	8004e68 <HAL_RCC_OscConfig+0x3a4>
        }
      }
    }
  }
  /*------------------------------ LSI Configuration -------------------------*/
  if(((RCC_OscInitStruct->OscillatorType) & RCC_OSCILLATORTYPE_LSI) == RCC_OSCILLATORTYPE_LSI)
 8004e86:	687b      	ldr	r3, [r7, #4]
 8004e88:	681b      	ldr	r3, [r3, #0]
 8004e8a:	2208      	movs	r2, #8
 8004e8c:	4013      	ands	r3, r2
 8004e8e:	d036      	beq.n	8004efe <HAL_RCC_OscConfig+0x43a>
  {
    /* Check the parameters */
    assert_param(IS_RCC_LSI(RCC_OscInitStruct->LSIState));

    /* Check the LSI State */
    if(RCC_OscInitStruct->LSIState != RCC_LSI_OFF)
 8004e90:	687b      	ldr	r3, [r7, #4]
 8004e92:	695b      	ldr	r3, [r3, #20]
 8004e94:	2b00      	cmp	r3, #0
 8004e96:	d019      	beq.n	8004ecc <HAL_RCC_OscConfig+0x408>
    {
      /* Enable the Internal Low Speed oscillator (LSI). */
      __HAL_RCC_LSI_ENABLE();
 8004e98:	4baa      	ldr	r3, [pc, #680]	; (8005144 <HAL_RCC_OscConfig+0x680>)
 8004e9a:	6d1a      	ldr	r2, [r3, #80]	; 0x50
 8004e9c:	4ba9      	ldr	r3, [pc, #676]	; (8005144 <HAL_RCC_OscConfig+0x680>)
 8004e9e:	2101      	movs	r1, #1
 8004ea0:	430a      	orrs	r2, r1
 8004ea2:	651a      	str	r2, [r3, #80]	; 0x50

      /* Get Start Tick */
      tickstart = HAL_GetTick();
 8004ea4:	f7fd ff54 	bl	8002d50 <HAL_GetTick>
 8004ea8:	0003      	movs	r3, r0
 8004eaa:	617b      	str	r3, [r7, #20]

      /* Wait till LSI is ready */
      while(__HAL_RCC_GET_FLAG(RCC_FLAG_LSIRDY) == 0U)
 8004eac:	e008      	b.n	8004ec0 <HAL_RCC_OscConfig+0x3fc>
      {
        if((HAL_GetTick() - tickstart ) > LSI_TIMEOUT_VALUE)
 8004eae:	f7fd ff4f 	bl	8002d50 <HAL_GetTick>
 8004eb2:	0002      	movs	r2, r0
 8004eb4:	697b      	ldr	r3, [r7, #20]
 8004eb6:	1ad3      	subs	r3, r2, r3
 8004eb8:	2b02      	cmp	r3, #2
 8004eba:	d901      	bls.n	8004ec0 <HAL_RCC_OscConfig+0x3fc>
        {
          return HAL_TIMEOUT;
 8004ebc:	2303      	movs	r3, #3
 8004ebe:	e177      	b.n	80051b0 <HAL_RCC_OscConfig+0x6ec>
      while(__HAL_RCC_GET_FLAG(RCC_FLAG_LSIRDY) == 0U)
 8004ec0:	4ba0      	ldr	r3, [pc, #640]	; (8005144 <HAL_RCC_OscConfig+0x680>)
 8004ec2:	6d1b      	ldr	r3, [r3, #80]	; 0x50
 8004ec4:	2202      	movs	r2, #2
 8004ec6:	4013      	ands	r3, r2
 8004ec8:	d0f1      	beq.n	8004eae <HAL_RCC_OscConfig+0x3ea>
 8004eca:	e018      	b.n	8004efe <HAL_RCC_OscConfig+0x43a>
      }
    }
    else
    {
      /* Disable the Internal Low Speed oscillator (LSI). */
      __HAL_RCC_LSI_DISABLE();
 8004ecc:	4b9d      	ldr	r3, [pc, #628]	; (8005144 <HAL_RCC_OscConfig+0x680>)
 8004ece:	6d1a      	ldr	r2, [r3, #80]	; 0x50
 8004ed0:	4b9c      	ldr	r3, [pc, #624]	; (8005144 <HAL_RCC_OscConfig+0x680>)
 8004ed2:	2101      	movs	r1, #1
 8004ed4:	438a      	bics	r2, r1
 8004ed6:	651a      	str	r2, [r3, #80]	; 0x50

      /* Get Start Tick */
      tickstart = HAL_GetTick();
 8004ed8:	f7fd ff3a 	bl	8002d50 <HAL_GetTick>
 8004edc:	0003      	movs	r3, r0
 8004ede:	617b      	str	r3, [r7, #20]

      /* Wait till LSI is disabled */
      while(__HAL_RCC_GET_FLAG(RCC_FLAG_LSIRDY) != 0U)
 8004ee0:	e008      	b.n	8004ef4 <HAL_RCC_OscConfig+0x430>
      {
        if((HAL_GetTick() - tickstart ) > LSI_TIMEOUT_VALUE)
 8004ee2:	f7fd ff35 	bl	8002d50 <HAL_GetTick>
 8004ee6:	0002      	movs	r2, r0
 8004ee8:	697b      	ldr	r3, [r7, #20]
 8004eea:	1ad3      	subs	r3, r2, r3
 8004eec:	2b02      	cmp	r3, #2
 8004eee:	d901      	bls.n	8004ef4 <HAL_RCC_OscConfig+0x430>
        {
          return HAL_TIMEOUT;
 8004ef0:	2303      	movs	r3, #3
 8004ef2:	e15d      	b.n	80051b0 <HAL_RCC_OscConfig+0x6ec>
      while(__HAL_RCC_GET_FLAG(RCC_FLAG_LSIRDY) != 0U)
 8004ef4:	4b93      	ldr	r3, [pc, #588]	; (8005144 <HAL_RCC_OscConfig+0x680>)
 8004ef6:	6d1b      	ldr	r3, [r3, #80]	; 0x50
 8004ef8:	2202      	movs	r2, #2
 8004efa:	4013      	ands	r3, r2
 8004efc:	d1f1      	bne.n	8004ee2 <HAL_RCC_OscConfig+0x41e>
        }
      }
    }
  }
  /*------------------------------ LSE Configuration -------------------------*/
  if(((RCC_OscInitStruct->OscillatorType) & RCC_OSCILLATORTYPE_LSE) == RCC_OSCILLATORTYPE_LSE)
 8004efe:	687b      	ldr	r3, [r7, #4]
 8004f00:	681b      	ldr	r3, [r3, #0]
 8004f02:	2204      	movs	r2, #4
 8004f04:	4013      	ands	r3, r2
 8004f06:	d100      	bne.n	8004f0a <HAL_RCC_OscConfig+0x446>
 8004f08:	e0ae      	b.n	8005068 <HAL_RCC_OscConfig+0x5a4>
  {
    FlagStatus       pwrclkchanged = RESET;
 8004f0a:	2023      	movs	r0, #35	; 0x23
 8004f0c:	183b      	adds	r3, r7, r0
 8004f0e:	2200      	movs	r2, #0
 8004f10:	701a      	strb	r2, [r3, #0]
    /* Check the parameters */
    assert_param(IS_RCC_LSE(RCC_OscInitStruct->LSEState));

    /* Update LSE configuration in Backup Domain control register    */
    /* Requires to enable write access to Backup Domain of necessary */
    if(__HAL_RCC_PWR_IS_CLK_DISABLED())
 8004f12:	4b8c      	ldr	r3, [pc, #560]	; (8005144 <HAL_RCC_OscConfig+0x680>)
 8004f14:	6b9a      	ldr	r2, [r3, #56]	; 0x38
 8004f16:	2380      	movs	r3, #128	; 0x80
 8004f18:	055b      	lsls	r3, r3, #21
 8004f1a:	4013      	ands	r3, r2
 8004f1c:	d109      	bne.n	8004f32 <HAL_RCC_OscConfig+0x46e>
    {
      __HAL_RCC_PWR_CLK_ENABLE();
 8004f1e:	4b89      	ldr	r3, [pc, #548]	; (8005144 <HAL_RCC_OscConfig+0x680>)
 8004f20:	6b9a      	ldr	r2, [r3, #56]	; 0x38
 8004f22:	4b88      	ldr	r3, [pc, #544]	; (8005144 <HAL_RCC_OscConfig+0x680>)
 8004f24:	2180      	movs	r1, #128	; 0x80
 8004f26:	0549      	lsls	r1, r1, #21
 8004f28:	430a      	orrs	r2, r1
 8004f2a:	639a      	str	r2, [r3, #56]	; 0x38
      pwrclkchanged = SET;
 8004f2c:	183b      	adds	r3, r7, r0
 8004f2e:	2201      	movs	r2, #1
 8004f30:	701a      	strb	r2, [r3, #0]
    }

    if(HAL_IS_BIT_CLR(PWR->CR, PWR_CR_DBP))
 8004f32:	4b87      	ldr	r3, [pc, #540]	; (8005150 <HAL_RCC_OscConfig+0x68c>)
 8004f34:	681a      	ldr	r2, [r3, #0]
 8004f36:	2380      	movs	r3, #128	; 0x80
 8004f38:	005b      	lsls	r3, r3, #1
 8004f3a:	4013      	ands	r3, r2
 8004f3c:	d11a      	bne.n	8004f74 <HAL_RCC_OscConfig+0x4b0>
    {
      /* Enable write access to Backup domain */
      SET_BIT(PWR->CR, PWR_CR_DBP);
 8004f3e:	4b84      	ldr	r3, [pc, #528]	; (8005150 <HAL_RCC_OscConfig+0x68c>)
 8004f40:	681a      	ldr	r2, [r3, #0]
 8004f42:	4b83      	ldr	r3, [pc, #524]	; (8005150 <HAL_RCC_OscConfig+0x68c>)
 8004f44:	2180      	movs	r1, #128	; 0x80
 8004f46:	0049      	lsls	r1, r1, #1
 8004f48:	430a      	orrs	r2, r1
 8004f4a:	601a      	str	r2, [r3, #0]

      /* Wait for Backup domain Write protection disable */
      tickstart = HAL_GetTick();
 8004f4c:	f7fd ff00 	bl	8002d50 <HAL_GetTick>
 8004f50:	0003      	movs	r3, r0
 8004f52:	617b      	str	r3, [r7, #20]

      while(HAL_IS_BIT_CLR(PWR->CR, PWR_CR_DBP))
 8004f54:	e008      	b.n	8004f68 <HAL_RCC_OscConfig+0x4a4>
      {
        if((HAL_GetTick() - tickstart) > RCC_DBP_TIMEOUT_VALUE)
 8004f56:	f7fd fefb 	bl	8002d50 <HAL_GetTick>
 8004f5a:	0002      	movs	r2, r0
 8004f5c:	697b      	ldr	r3, [r7, #20]
 8004f5e:	1ad3      	subs	r3, r2, r3
 8004f60:	2b64      	cmp	r3, #100	; 0x64
 8004f62:	d901      	bls.n	8004f68 <HAL_RCC_OscConfig+0x4a4>
        {
          return HAL_TIMEOUT;
 8004f64:	2303      	movs	r3, #3
 8004f66:	e123      	b.n	80051b0 <HAL_RCC_OscConfig+0x6ec>
      while(HAL_IS_BIT_CLR(PWR->CR, PWR_CR_DBP))
 8004f68:	4b79      	ldr	r3, [pc, #484]	; (8005150 <HAL_RCC_OscConfig+0x68c>)
 8004f6a:	681a      	ldr	r2, [r3, #0]
 8004f6c:	2380      	movs	r3, #128	; 0x80
 8004f6e:	005b      	lsls	r3, r3, #1
 8004f70:	4013      	ands	r3, r2
 8004f72:	d0f0      	beq.n	8004f56 <HAL_RCC_OscConfig+0x492>
        }
      }
    }

    /* Set the new LSE configuration -----------------------------------------*/
    __HAL_RCC_LSE_CONFIG(RCC_OscInitStruct->LSEState);
 8004f74:	687b      	ldr	r3, [r7, #4]
 8004f76:	689a      	ldr	r2, [r3, #8]
 8004f78:	2380      	movs	r3, #128	; 0x80
 8004f7a:	005b      	lsls	r3, r3, #1
 8004f7c:	429a      	cmp	r2, r3
 8004f7e:	d107      	bne.n	8004f90 <HAL_RCC_OscConfig+0x4cc>
 8004f80:	4b70      	ldr	r3, [pc, #448]	; (8005144 <HAL_RCC_OscConfig+0x680>)
 8004f82:	6d1a      	ldr	r2, [r3, #80]	; 0x50
 8004f84:	4b6f      	ldr	r3, [pc, #444]	; (8005144 <HAL_RCC_OscConfig+0x680>)
 8004f86:	2180      	movs	r1, #128	; 0x80
 8004f88:	0049      	lsls	r1, r1, #1
 8004f8a:	430a      	orrs	r2, r1
 8004f8c:	651a      	str	r2, [r3, #80]	; 0x50
 8004f8e:	e031      	b.n	8004ff4 <HAL_RCC_OscConfig+0x530>
 8004f90:	687b      	ldr	r3, [r7, #4]
 8004f92:	689b      	ldr	r3, [r3, #8]
 8004f94:	2b00      	cmp	r3, #0
 8004f96:	d10c      	bne.n	8004fb2 <HAL_RCC_OscConfig+0x4ee>
 8004f98:	4b6a      	ldr	r3, [pc, #424]	; (8005144 <HAL_RCC_OscConfig+0x680>)
 8004f9a:	6d1a      	ldr	r2, [r3, #80]	; 0x50
 8004f9c:	4b69      	ldr	r3, [pc, #420]	; (8005144 <HAL_RCC_OscConfig+0x680>)
 8004f9e:	496b      	ldr	r1, [pc, #428]	; (800514c <HAL_RCC_OscConfig+0x688>)
 8004fa0:	400a      	ands	r2, r1
 8004fa2:	651a      	str	r2, [r3, #80]	; 0x50
 8004fa4:	4b67      	ldr	r3, [pc, #412]	; (8005144 <HAL_RCC_OscConfig+0x680>)
 8004fa6:	6d1a      	ldr	r2, [r3, #80]	; 0x50
 8004fa8:	4b66      	ldr	r3, [pc, #408]	; (8005144 <HAL_RCC_OscConfig+0x680>)
 8004faa:	496a      	ldr	r1, [pc, #424]	; (8005154 <HAL_RCC_OscConfig+0x690>)
 8004fac:	400a      	ands	r2, r1
 8004fae:	651a      	str	r2, [r3, #80]	; 0x50
 8004fb0:	e020      	b.n	8004ff4 <HAL_RCC_OscConfig+0x530>
 8004fb2:	687b      	ldr	r3, [r7, #4]
 8004fb4:	689a      	ldr	r2, [r3, #8]
 8004fb6:	23a0      	movs	r3, #160	; 0xa0
 8004fb8:	00db      	lsls	r3, r3, #3
 8004fba:	429a      	cmp	r2, r3
 8004fbc:	d10e      	bne.n	8004fdc <HAL_RCC_OscConfig+0x518>
 8004fbe:	4b61      	ldr	r3, [pc, #388]	; (8005144 <HAL_RCC_OscConfig+0x680>)
 8004fc0:	6d1a      	ldr	r2, [r3, #80]	; 0x50
 8004fc2:	4b60      	ldr	r3, [pc, #384]	; (8005144 <HAL_RCC_OscConfig+0x680>)
 8004fc4:	2180      	movs	r1, #128	; 0x80
 8004fc6:	00c9      	lsls	r1, r1, #3
 8004fc8:	430a      	orrs	r2, r1
 8004fca:	651a      	str	r2, [r3, #80]	; 0x50
 8004fcc:	4b5d      	ldr	r3, [pc, #372]	; (8005144 <HAL_RCC_OscConfig+0x680>)
 8004fce:	6d1a      	ldr	r2, [r3, #80]	; 0x50
 8004fd0:	4b5c      	ldr	r3, [pc, #368]	; (8005144 <HAL_RCC_OscConfig+0x680>)
 8004fd2:	2180      	movs	r1, #128	; 0x80
 8004fd4:	0049      	lsls	r1, r1, #1
 8004fd6:	430a      	orrs	r2, r1
 8004fd8:	651a      	str	r2, [r3, #80]	; 0x50
 8004fda:	e00b      	b.n	8004ff4 <HAL_RCC_OscConfig+0x530>
 8004fdc:	4b59      	ldr	r3, [pc, #356]	; (8005144 <HAL_RCC_OscConfig+0x680>)
 8004fde:	6d1a      	ldr	r2, [r3, #80]	; 0x50
 8004fe0:	4b58      	ldr	r3, [pc, #352]	; (8005144 <HAL_RCC_OscConfig+0x680>)
 8004fe2:	495a      	ldr	r1, [pc, #360]	; (800514c <HAL_RCC_OscConfig+0x688>)
 8004fe4:	400a      	ands	r2, r1
 8004fe6:	651a      	str	r2, [r3, #80]	; 0x50
 8004fe8:	4b56      	ldr	r3, [pc, #344]	; (8005144 <HAL_RCC_OscConfig+0x680>)
 8004fea:	6d1a      	ldr	r2, [r3, #80]	; 0x50
 8004fec:	4b55      	ldr	r3, [pc, #340]	; (8005144 <HAL_RCC_OscConfig+0x680>)
 8004fee:	4959      	ldr	r1, [pc, #356]	; (8005154 <HAL_RCC_OscConfig+0x690>)
 8004ff0:	400a      	ands	r2, r1
 8004ff2:	651a      	str	r2, [r3, #80]	; 0x50

    /* Check the LSE State */
    if(RCC_OscInitStruct->LSEState != RCC_LSE_OFF)
 8004ff4:	687b      	ldr	r3, [r7, #4]
 8004ff6:	689b      	ldr	r3, [r3, #8]
 8004ff8:	2b00      	cmp	r3, #0
 8004ffa:	d015      	beq.n	8005028 <HAL_RCC_OscConfig+0x564>
    {
      /* Get Start Tick */
      tickstart = HAL_GetTick();
 8004ffc:	f7fd fea8 	bl	8002d50 <HAL_GetTick>
 8005000:	0003      	movs	r3, r0
 8005002:	617b      	str	r3, [r7, #20]

      /* Wait till LSE is ready */
      while(__HAL_RCC_GET_FLAG(RCC_FLAG_LSERDY) == 0U)
 8005004:	e009      	b.n	800501a <HAL_RCC_OscConfig+0x556>
      {
        if((HAL_GetTick() - tickstart ) > RCC_LSE_TIMEOUT_VALUE)
 8005006:	f7fd fea3 	bl	8002d50 <HAL_GetTick>
 800500a:	0002      	movs	r2, r0
 800500c:	697b      	ldr	r3, [r7, #20]
 800500e:	1ad3      	subs	r3, r2, r3
 8005010:	4a51      	ldr	r2, [pc, #324]	; (8005158 <HAL_RCC_OscConfig+0x694>)
 8005012:	4293      	cmp	r3, r2
 8005014:	d901      	bls.n	800501a <HAL_RCC_OscConfig+0x556>
        {
          return HAL_TIMEOUT;
 8005016:	2303      	movs	r3, #3
 8005018:	e0ca      	b.n	80051b0 <HAL_RCC_OscConfig+0x6ec>
      while(__HAL_RCC_GET_FLAG(RCC_FLAG_LSERDY) == 0U)
 800501a:	4b4a      	ldr	r3, [pc, #296]	; (8005144 <HAL_RCC_OscConfig+0x680>)
 800501c:	6d1a      	ldr	r2, [r3, #80]	; 0x50
 800501e:	2380      	movs	r3, #128	; 0x80
 8005020:	009b      	lsls	r3, r3, #2
 8005022:	4013      	ands	r3, r2
 8005024:	d0ef      	beq.n	8005006 <HAL_RCC_OscConfig+0x542>
 8005026:	e014      	b.n	8005052 <HAL_RCC_OscConfig+0x58e>
      }
    }
    else
    {
      /* Get Start Tick */
      tickstart = HAL_GetTick();
 8005028:	f7fd fe92 	bl	8002d50 <HAL_GetTick>
 800502c:	0003      	movs	r3, r0
 800502e:	617b      	str	r3, [r7, #20]

      /* Wait till LSE is disabled */
      while(__HAL_RCC_GET_FLAG(RCC_FLAG_LSERDY) != 0U)
 8005030:	e009      	b.n	8005046 <HAL_RCC_OscConfig+0x582>
      {
        if((HAL_GetTick() - tickstart ) > RCC_LSE_TIMEOUT_VALUE)
 8005032:	f7fd fe8d 	bl	8002d50 <HAL_GetTick>
 8005036:	0002      	movs	r2, r0
 8005038:	697b      	ldr	r3, [r7, #20]
 800503a:	1ad3      	subs	r3, r2, r3
 800503c:	4a46      	ldr	r2, [pc, #280]	; (8005158 <HAL_RCC_OscConfig+0x694>)
 800503e:	4293      	cmp	r3, r2
 8005040:	d901      	bls.n	8005046 <HAL_RCC_OscConfig+0x582>
        {
          return HAL_TIMEOUT;
 8005042:	2303      	movs	r3, #3
 8005044:	e0b4      	b.n	80051b0 <HAL_RCC_OscConfig+0x6ec>
      while(__HAL_RCC_GET_FLAG(RCC_FLAG_LSERDY) != 0U)
 8005046:	4b3f      	ldr	r3, [pc, #252]	; (8005144 <HAL_RCC_OscConfig+0x680>)
 8005048:	6d1a      	ldr	r2, [r3, #80]	; 0x50
 800504a:	2380      	movs	r3, #128	; 0x80
 800504c:	009b      	lsls	r3, r3, #2
 800504e:	4013      	ands	r3, r2
 8005050:	d1ef      	bne.n	8005032 <HAL_RCC_OscConfig+0x56e>
        }
      }
    }

    /* Require to disable power clock if necessary */
    if(pwrclkchanged == SET)
 8005052:	2323      	movs	r3, #35	; 0x23
 8005054:	18fb      	adds	r3, r7, r3
 8005056:	781b      	ldrb	r3, [r3, #0]
 8005058:	2b01      	cmp	r3, #1
 800505a:	d105      	bne.n	8005068 <HAL_RCC_OscConfig+0x5a4>
    {
      __HAL_RCC_PWR_CLK_DISABLE();
 800505c:	4b39      	ldr	r3, [pc, #228]	; (8005144 <HAL_RCC_OscConfig+0x680>)
 800505e:	6b9a      	ldr	r2, [r3, #56]	; 0x38
 8005060:	4b38      	ldr	r3, [pc, #224]	; (8005144 <HAL_RCC_OscConfig+0x680>)
 8005062:	493e      	ldr	r1, [pc, #248]	; (800515c <HAL_RCC_OscConfig+0x698>)
 8005064:	400a      	ands	r2, r1
 8005066:	639a      	str	r2, [r3, #56]	; 0x38
#endif /* RCC_HSI48_SUPPORT */

  /*-------------------------------- PLL Configuration -----------------------*/
  /* Check the parameters */
  assert_param(IS_RCC_PLL(RCC_OscInitStruct->PLL.PLLState));
  if ((RCC_OscInitStruct->PLL.PLLState) != RCC_PLL_NONE)
 8005068:	687b      	ldr	r3, [r7, #4]
 800506a:	6a5b      	ldr	r3, [r3, #36]	; 0x24
 800506c:	2b00      	cmp	r3, #0
 800506e:	d100      	bne.n	8005072 <HAL_RCC_OscConfig+0x5ae>
 8005070:	e09d      	b.n	80051ae <HAL_RCC_OscConfig+0x6ea>
  {
    /* Check if the PLL is used as system clock or not */
    if(sysclk_source != RCC_SYSCLKSOURCE_STATUS_PLLCLK)
 8005072:	69fb      	ldr	r3, [r7, #28]
 8005074:	2b0c      	cmp	r3, #12
 8005076:	d100      	bne.n	800507a <HAL_RCC_OscConfig+0x5b6>
 8005078:	e076      	b.n	8005168 <HAL_RCC_OscConfig+0x6a4>
    {
      if((RCC_OscInitStruct->PLL.PLLState) == RCC_PLL_ON)
 800507a:	687b      	ldr	r3, [r7, #4]
 800507c:	6a5b      	ldr	r3, [r3, #36]	; 0x24
 800507e:	2b02      	cmp	r3, #2
 8005080:	d145      	bne.n	800510e <HAL_RCC_OscConfig+0x64a>
        assert_param(IS_RCC_PLLSOURCE(RCC_OscInitStruct->PLL.PLLSource));
        assert_param(IS_RCC_PLL_MUL(RCC_OscInitStruct->PLL.PLLMUL));
        assert_param(IS_RCC_PLL_DIV(RCC_OscInitStruct->PLL.PLLDIV));

        /* Disable the main PLL. */
        __HAL_RCC_PLL_DISABLE();
 8005082:	4b30      	ldr	r3, [pc, #192]	; (8005144 <HAL_RCC_OscConfig+0x680>)
 8005084:	681a      	ldr	r2, [r3, #0]
 8005086:	4b2f      	ldr	r3, [pc, #188]	; (8005144 <HAL_RCC_OscConfig+0x680>)
 8005088:	4935      	ldr	r1, [pc, #212]	; (8005160 <HAL_RCC_OscConfig+0x69c>)
 800508a:	400a      	ands	r2, r1
 800508c:	601a      	str	r2, [r3, #0]

        /* Get Start Tick */
        tickstart = HAL_GetTick();
 800508e:	f7fd fe5f 	bl	8002d50 <HAL_GetTick>
 8005092:	0003      	movs	r3, r0
 8005094:	617b      	str	r3, [r7, #20]

        /* Wait till PLL is ready */
        while(__HAL_RCC_GET_FLAG(RCC_FLAG_PLLRDY)  != 0U)
 8005096:	e008      	b.n	80050aa <HAL_RCC_OscConfig+0x5e6>
        {
          if((HAL_GetTick() - tickstart ) > PLL_TIMEOUT_VALUE)
 8005098:	f7fd fe5a 	bl	8002d50 <HAL_GetTick>
 800509c:	0002      	movs	r2, r0
 800509e:	697b      	ldr	r3, [r7, #20]
 80050a0:	1ad3      	subs	r3, r2, r3
 80050a2:	2b02      	cmp	r3, #2
 80050a4:	d901      	bls.n	80050aa <HAL_RCC_OscConfig+0x5e6>
          {
            return HAL_TIMEOUT;
 80050a6:	2303      	movs	r3, #3
 80050a8:	e082      	b.n	80051b0 <HAL_RCC_OscConfig+0x6ec>
        while(__HAL_RCC_GET_FLAG(RCC_FLAG_PLLRDY)  != 0U)
 80050aa:	4b26      	ldr	r3, [pc, #152]	; (8005144 <HAL_RCC_OscConfig+0x680>)
 80050ac:	681a      	ldr	r2, [r3, #0]
 80050ae:	2380      	movs	r3, #128	; 0x80
 80050b0:	049b      	lsls	r3, r3, #18
 80050b2:	4013      	ands	r3, r2
 80050b4:	d1f0      	bne.n	8005098 <HAL_RCC_OscConfig+0x5d4>
          }
        }

        /* Configure the main PLL clock source, multiplication and division factors. */
        __HAL_RCC_PLL_CONFIG(RCC_OscInitStruct->PLL.PLLSource,
 80050b6:	4b23      	ldr	r3, [pc, #140]	; (8005144 <HAL_RCC_OscConfig+0x680>)
 80050b8:	68db      	ldr	r3, [r3, #12]
 80050ba:	4a2a      	ldr	r2, [pc, #168]	; (8005164 <HAL_RCC_OscConfig+0x6a0>)
 80050bc:	4013      	ands	r3, r2
 80050be:	0019      	movs	r1, r3
 80050c0:	687b      	ldr	r3, [r7, #4]
 80050c2:	6a9a      	ldr	r2, [r3, #40]	; 0x28
 80050c4:	687b      	ldr	r3, [r7, #4]
 80050c6:	6adb      	ldr	r3, [r3, #44]	; 0x2c
 80050c8:	431a      	orrs	r2, r3
 80050ca:	687b      	ldr	r3, [r7, #4]
 80050cc:	6b1b      	ldr	r3, [r3, #48]	; 0x30
 80050ce:	431a      	orrs	r2, r3
 80050d0:	4b1c      	ldr	r3, [pc, #112]	; (8005144 <HAL_RCC_OscConfig+0x680>)
 80050d2:	430a      	orrs	r2, r1
 80050d4:	60da      	str	r2, [r3, #12]
                             RCC_OscInitStruct->PLL.PLLMUL,
                             RCC_OscInitStruct->PLL.PLLDIV);
        /* Enable the main PLL. */
        __HAL_RCC_PLL_ENABLE();
 80050d6:	4b1b      	ldr	r3, [pc, #108]	; (8005144 <HAL_RCC_OscConfig+0x680>)
 80050d8:	681a      	ldr	r2, [r3, #0]
 80050da:	4b1a      	ldr	r3, [pc, #104]	; (8005144 <HAL_RCC_OscConfig+0x680>)
 80050dc:	2180      	movs	r1, #128	; 0x80
 80050de:	0449      	lsls	r1, r1, #17
 80050e0:	430a      	orrs	r2, r1
 80050e2:	601a      	str	r2, [r3, #0]

        /* Get Start Tick */
        tickstart = HAL_GetTick();
 80050e4:	f7fd fe34 	bl	8002d50 <HAL_GetTick>
 80050e8:	0003      	movs	r3, r0
 80050ea:	617b      	str	r3, [r7, #20]

        /* Wait till PLL is ready */
        while(__HAL_RCC_GET_FLAG(RCC_FLAG_PLLRDY)  == 0U)
 80050ec:	e008      	b.n	8005100 <HAL_RCC_OscConfig+0x63c>
        {
          if((HAL_GetTick() - tickstart ) > PLL_TIMEOUT_VALUE)
 80050ee:	f7fd fe2f 	bl	8002d50 <HAL_GetTick>
 80050f2:	0002      	movs	r2, r0
 80050f4:	697b      	ldr	r3, [r7, #20]
 80050f6:	1ad3      	subs	r3, r2, r3
 80050f8:	2b02      	cmp	r3, #2
 80050fa:	d901      	bls.n	8005100 <HAL_RCC_OscConfig+0x63c>
          {
            return HAL_TIMEOUT;
 80050fc:	2303      	movs	r3, #3
 80050fe:	e057      	b.n	80051b0 <HAL_RCC_OscConfig+0x6ec>
        while(__HAL_RCC_GET_FLAG(RCC_FLAG_PLLRDY)  == 0U)
 8005100:	4b10      	ldr	r3, [pc, #64]	; (8005144 <HAL_RCC_OscConfig+0x680>)
 8005102:	681a      	ldr	r2, [r3, #0]
 8005104:	2380      	movs	r3, #128	; 0x80
 8005106:	049b      	lsls	r3, r3, #18
 8005108:	4013      	ands	r3, r2
 800510a:	d0f0      	beq.n	80050ee <HAL_RCC_OscConfig+0x62a>
 800510c:	e04f      	b.n	80051ae <HAL_RCC_OscConfig+0x6ea>
        }
      }
      else
      {
        /* Disable the main PLL. */
        __HAL_RCC_PLL_DISABLE();
 800510e:	4b0d      	ldr	r3, [pc, #52]	; (8005144 <HAL_RCC_OscConfig+0x680>)
 8005110:	681a      	ldr	r2, [r3, #0]
 8005112:	4b0c      	ldr	r3, [pc, #48]	; (8005144 <HAL_RCC_OscConfig+0x680>)
 8005114:	4912      	ldr	r1, [pc, #72]	; (8005160 <HAL_RCC_OscConfig+0x69c>)
 8005116:	400a      	ands	r2, r1
 8005118:	601a      	str	r2, [r3, #0]

        /* Get Start Tick */
        tickstart = HAL_GetTick();
 800511a:	f7fd fe19 	bl	8002d50 <HAL_GetTick>
 800511e:	0003      	movs	r3, r0
 8005120:	617b      	str	r3, [r7, #20]

        /* Wait till PLL is disabled */
        while(__HAL_RCC_GET_FLAG(RCC_FLAG_PLLRDY)  != 0U)
 8005122:	e008      	b.n	8005136 <HAL_RCC_OscConfig+0x672>
        {
          if((HAL_GetTick() - tickstart ) > PLL_TIMEOUT_VALUE)
 8005124:	f7fd fe14 	bl	8002d50 <HAL_GetTick>
 8005128:	0002      	movs	r2, r0
 800512a:	697b      	ldr	r3, [r7, #20]
 800512c:	1ad3      	subs	r3, r2, r3
 800512e:	2b02      	cmp	r3, #2
 8005130:	d901      	bls.n	8005136 <HAL_RCC_OscConfig+0x672>
          {
            return HAL_TIMEOUT;
 8005132:	2303      	movs	r3, #3
 8005134:	e03c      	b.n	80051b0 <HAL_RCC_OscConfig+0x6ec>
        while(__HAL_RCC_GET_FLAG(RCC_FLAG_PLLRDY)  != 0U)
 8005136:	4b03      	ldr	r3, [pc, #12]	; (8005144 <HAL_RCC_OscConfig+0x680>)
 8005138:	681a      	ldr	r2, [r3, #0]
 800513a:	2380      	movs	r3, #128	; 0x80
 800513c:	049b      	lsls	r3, r3, #18
 800513e:	4013      	ands	r3, r2
 8005140:	d1f0      	bne.n	8005124 <HAL_RCC_OscConfig+0x660>
 8005142:	e034      	b.n	80051ae <HAL_RCC_OscConfig+0x6ea>
 8005144:	40021000 	.word	0x40021000
 8005148:	ffff1fff 	.word	0xffff1fff
 800514c:	fffffeff 	.word	0xfffffeff
 8005150:	40007000 	.word	0x40007000
 8005154:	fffffbff 	.word	0xfffffbff
 8005158:	00001388 	.word	0x00001388
 800515c:	efffffff 	.word	0xefffffff
 8005160:	feffffff 	.word	0xfeffffff
 8005164:	ff02ffff 	.word	0xff02ffff
      }
    }
    else
    {
      /* Check if there is a request to disable the PLL used as System clock source */
      if((RCC_OscInitStruct->PLL.PLLState) == RCC_PLL_OFF)
 8005168:	687b      	ldr	r3, [r7, #4]
 800516a:	6a5b      	ldr	r3, [r3, #36]	; 0x24
 800516c:	2b01      	cmp	r3, #1
 800516e:	d101      	bne.n	8005174 <HAL_RCC_OscConfig+0x6b0>
      {
        return HAL_ERROR;
 8005170:	2301      	movs	r3, #1
 8005172:	e01d      	b.n	80051b0 <HAL_RCC_OscConfig+0x6ec>
      }
      else
      {
        /* Do not return HAL_ERROR if request repeats the current configuration */
        pll_config = RCC->CFGR;
 8005174:	4b10      	ldr	r3, [pc, #64]	; (80051b8 <HAL_RCC_OscConfig+0x6f4>)
 8005176:	68db      	ldr	r3, [r3, #12]
 8005178:	61bb      	str	r3, [r7, #24]
        if((READ_BIT(pll_config, RCC_CFGR_PLLSRC) != RCC_OscInitStruct->PLL.PLLSource) ||
 800517a:	69ba      	ldr	r2, [r7, #24]
 800517c:	2380      	movs	r3, #128	; 0x80
 800517e:	025b      	lsls	r3, r3, #9
 8005180:	401a      	ands	r2, r3
 8005182:	687b      	ldr	r3, [r7, #4]
 8005184:	6a9b      	ldr	r3, [r3, #40]	; 0x28
 8005186:	429a      	cmp	r2, r3
 8005188:	d10f      	bne.n	80051aa <HAL_RCC_OscConfig+0x6e6>
           (READ_BIT(pll_config, RCC_CFGR_PLLMUL) != RCC_OscInitStruct->PLL.PLLMUL) ||
 800518a:	69ba      	ldr	r2, [r7, #24]
 800518c:	23f0      	movs	r3, #240	; 0xf0
 800518e:	039b      	lsls	r3, r3, #14
 8005190:	401a      	ands	r2, r3
 8005192:	687b      	ldr	r3, [r7, #4]
 8005194:	6adb      	ldr	r3, [r3, #44]	; 0x2c
        if((READ_BIT(pll_config, RCC_CFGR_PLLSRC) != RCC_OscInitStruct->PLL.PLLSource) ||
 8005196:	429a      	cmp	r2, r3
 8005198:	d107      	bne.n	80051aa <HAL_RCC_OscConfig+0x6e6>
           (READ_BIT(pll_config, RCC_CFGR_PLLDIV) != RCC_OscInitStruct->PLL.PLLDIV))
 800519a:	69ba      	ldr	r2, [r7, #24]
 800519c:	23c0      	movs	r3, #192	; 0xc0
 800519e:	041b      	lsls	r3, r3, #16
 80051a0:	401a      	ands	r2, r3
 80051a2:	687b      	ldr	r3, [r7, #4]
 80051a4:	6b1b      	ldr	r3, [r3, #48]	; 0x30
           (READ_BIT(pll_config, RCC_CFGR_PLLMUL) != RCC_OscInitStruct->PLL.PLLMUL) ||
 80051a6:	429a      	cmp	r2, r3
 80051a8:	d001      	beq.n	80051ae <HAL_RCC_OscConfig+0x6ea>
        {
          return HAL_ERROR;
 80051aa:	2301      	movs	r3, #1
 80051ac:	e000      	b.n	80051b0 <HAL_RCC_OscConfig+0x6ec>
        }
      }
    }
  }
  return HAL_OK;
 80051ae:	2300      	movs	r3, #0
}
 80051b0:	0018      	movs	r0, r3
 80051b2:	46bd      	mov	sp, r7
 80051b4:	b00a      	add	sp, #40	; 0x28
 80051b6:	bdb0      	pop	{r4, r5, r7, pc}
 80051b8:	40021000 	.word	0x40021000

080051bc <HAL_RCC_ClockConfig>:
  *         HPRE[3:0] bits to ensure that HCLK not exceed the maximum allowed frequency
  *         (for more details refer to section above "Initialization/de-initialization functions")
  * @retval HAL status
  */
HAL_StatusTypeDef HAL_RCC_ClockConfig(RCC_ClkInitTypeDef  *RCC_ClkInitStruct, uint32_t FLatency)
{
 80051bc:	b5b0      	push	{r4, r5, r7, lr}
 80051be:	b084      	sub	sp, #16
 80051c0:	af00      	add	r7, sp, #0
 80051c2:	6078      	str	r0, [r7, #4]
 80051c4:	6039      	str	r1, [r7, #0]
  uint32_t tickstart;
  HAL_StatusTypeDef status;

  /* Check Null pointer */
  if(RCC_ClkInitStruct == NULL)
 80051c6:	687b      	ldr	r3, [r7, #4]
 80051c8:	2b00      	cmp	r3, #0
 80051ca:	d101      	bne.n	80051d0 <HAL_RCC_ClockConfig+0x14>
  {
    return HAL_ERROR;
 80051cc:	2301      	movs	r3, #1
 80051ce:	e128      	b.n	8005422 <HAL_RCC_ClockConfig+0x266>
  /* To correctly read data from FLASH memory, the number of wait states (LATENCY)
  must be correctly programmed according to the frequency of the CPU clock
  (HCLK) and the supply voltage of the device. */

  /* Increasing the number of wait states because of higher CPU frequency */
  if(FLatency > __HAL_FLASH_GET_LATENCY())
 80051d0:	4b96      	ldr	r3, [pc, #600]	; (800542c <HAL_RCC_ClockConfig+0x270>)
 80051d2:	681b      	ldr	r3, [r3, #0]
 80051d4:	2201      	movs	r2, #1
 80051d6:	4013      	ands	r3, r2
 80051d8:	683a      	ldr	r2, [r7, #0]
 80051da:	429a      	cmp	r2, r3
 80051dc:	d91e      	bls.n	800521c <HAL_RCC_ClockConfig+0x60>
  {
    /* Program the new number of wait states to the LATENCY bits in the FLASH_ACR register */
    __HAL_FLASH_SET_LATENCY(FLatency);
 80051de:	4b93      	ldr	r3, [pc, #588]	; (800542c <HAL_RCC_ClockConfig+0x270>)
 80051e0:	681b      	ldr	r3, [r3, #0]
 80051e2:	2201      	movs	r2, #1
 80051e4:	4393      	bics	r3, r2
 80051e6:	0019      	movs	r1, r3
 80051e8:	4b90      	ldr	r3, [pc, #576]	; (800542c <HAL_RCC_ClockConfig+0x270>)
 80051ea:	683a      	ldr	r2, [r7, #0]
 80051ec:	430a      	orrs	r2, r1
 80051ee:	601a      	str	r2, [r3, #0]

    /* Check that the new number of wait states is taken into account to access the Flash
    memory by polling the FLASH_ACR register */
    tickstart = HAL_GetTick();
 80051f0:	f7fd fdae 	bl	8002d50 <HAL_GetTick>
 80051f4:	0003      	movs	r3, r0
 80051f6:	60fb      	str	r3, [r7, #12]

    while (__HAL_FLASH_GET_LATENCY() != FLatency)
 80051f8:	e009      	b.n	800520e <HAL_RCC_ClockConfig+0x52>
    {
      if ((HAL_GetTick() - tickstart) > CLOCKSWITCH_TIMEOUT_VALUE)
 80051fa:	f7fd fda9 	bl	8002d50 <HAL_GetTick>
 80051fe:	0002      	movs	r2, r0
 8005200:	68fb      	ldr	r3, [r7, #12]
 8005202:	1ad3      	subs	r3, r2, r3
 8005204:	4a8a      	ldr	r2, [pc, #552]	; (8005430 <HAL_RCC_ClockConfig+0x274>)
 8005206:	4293      	cmp	r3, r2
 8005208:	d901      	bls.n	800520e <HAL_RCC_ClockConfig+0x52>
      {
        return HAL_TIMEOUT;
 800520a:	2303      	movs	r3, #3
 800520c:	e109      	b.n	8005422 <HAL_RCC_ClockConfig+0x266>
    while (__HAL_FLASH_GET_LATENCY() != FLatency)
 800520e:	4b87      	ldr	r3, [pc, #540]	; (800542c <HAL_RCC_ClockConfig+0x270>)
 8005210:	681b      	ldr	r3, [r3, #0]
 8005212:	2201      	movs	r2, #1
 8005214:	4013      	ands	r3, r2
 8005216:	683a      	ldr	r2, [r7, #0]
 8005218:	429a      	cmp	r2, r3
 800521a:	d1ee      	bne.n	80051fa <HAL_RCC_ClockConfig+0x3e>
      }
    }
  }

  /*-------------------------- HCLK Configuration --------------------------*/
  if(((RCC_ClkInitStruct->ClockType) & RCC_CLOCKTYPE_HCLK) == RCC_CLOCKTYPE_HCLK)
 800521c:	687b      	ldr	r3, [r7, #4]
 800521e:	681b      	ldr	r3, [r3, #0]
 8005220:	2202      	movs	r2, #2
 8005222:	4013      	ands	r3, r2
 8005224:	d009      	beq.n	800523a <HAL_RCC_ClockConfig+0x7e>
  {
    assert_param(IS_RCC_HCLK(RCC_ClkInitStruct->AHBCLKDivider));
    MODIFY_REG(RCC->CFGR, RCC_CFGR_HPRE, RCC_ClkInitStruct->AHBCLKDivider);
 8005226:	4b83      	ldr	r3, [pc, #524]	; (8005434 <HAL_RCC_ClockConfig+0x278>)
 8005228:	68db      	ldr	r3, [r3, #12]
 800522a:	22f0      	movs	r2, #240	; 0xf0
 800522c:	4393      	bics	r3, r2
 800522e:	0019      	movs	r1, r3
 8005230:	687b      	ldr	r3, [r7, #4]
 8005232:	689a      	ldr	r2, [r3, #8]
 8005234:	4b7f      	ldr	r3, [pc, #508]	; (8005434 <HAL_RCC_ClockConfig+0x278>)
 8005236:	430a      	orrs	r2, r1
 8005238:	60da      	str	r2, [r3, #12]
  }

  /*------------------------- SYSCLK Configuration ---------------------------*/
  if(((RCC_ClkInitStruct->ClockType) & RCC_CLOCKTYPE_SYSCLK) == RCC_CLOCKTYPE_SYSCLK)
 800523a:	687b      	ldr	r3, [r7, #4]
 800523c:	681b      	ldr	r3, [r3, #0]
 800523e:	2201      	movs	r2, #1
 8005240:	4013      	ands	r3, r2
 8005242:	d100      	bne.n	8005246 <HAL_RCC_ClockConfig+0x8a>
 8005244:	e089      	b.n	800535a <HAL_RCC_ClockConfig+0x19e>
  {
    assert_param(IS_RCC_SYSCLKSOURCE(RCC_ClkInitStruct->SYSCLKSource));

    /* HSE is selected as System Clock Source */
    if(RCC_ClkInitStruct->SYSCLKSource == RCC_SYSCLKSOURCE_HSE)
 8005246:	687b      	ldr	r3, [r7, #4]
 8005248:	685b      	ldr	r3, [r3, #4]
 800524a:	2b02      	cmp	r3, #2
 800524c:	d107      	bne.n	800525e <HAL_RCC_ClockConfig+0xa2>
    {
      /* Check the HSE ready flag */
      if(__HAL_RCC_GET_FLAG(RCC_FLAG_HSERDY) == 0U)
 800524e:	4b79      	ldr	r3, [pc, #484]	; (8005434 <HAL_RCC_ClockConfig+0x278>)
 8005250:	681a      	ldr	r2, [r3, #0]
 8005252:	2380      	movs	r3, #128	; 0x80
 8005254:	029b      	lsls	r3, r3, #10
 8005256:	4013      	ands	r3, r2
 8005258:	d120      	bne.n	800529c <HAL_RCC_ClockConfig+0xe0>
      {
        return HAL_ERROR;
 800525a:	2301      	movs	r3, #1
 800525c:	e0e1      	b.n	8005422 <HAL_RCC_ClockConfig+0x266>
      }
    }
    /* PLL is selected as System Clock Source */
    else if(RCC_ClkInitStruct->SYSCLKSource == RCC_SYSCLKSOURCE_PLLCLK)
 800525e:	687b      	ldr	r3, [r7, #4]
 8005260:	685b      	ldr	r3, [r3, #4]
 8005262:	2b03      	cmp	r3, #3
 8005264:	d107      	bne.n	8005276 <HAL_RCC_ClockConfig+0xba>
    {
      /* Check the PLL ready flag */
      if(__HAL_RCC_GET_FLAG(RCC_FLAG_PLLRDY) == 0U)
 8005266:	4b73      	ldr	r3, [pc, #460]	; (8005434 <HAL_RCC_ClockConfig+0x278>)
 8005268:	681a      	ldr	r2, [r3, #0]
 800526a:	2380      	movs	r3, #128	; 0x80
 800526c:	049b      	lsls	r3, r3, #18
 800526e:	4013      	ands	r3, r2
 8005270:	d114      	bne.n	800529c <HAL_RCC_ClockConfig+0xe0>
      {
        return HAL_ERROR;
 8005272:	2301      	movs	r3, #1
 8005274:	e0d5      	b.n	8005422 <HAL_RCC_ClockConfig+0x266>
      }
    }
    /* HSI is selected as System Clock Source */
    else if(RCC_ClkInitStruct->SYSCLKSource == RCC_SYSCLKSOURCE_HSI)
 8005276:	687b      	ldr	r3, [r7, #4]
 8005278:	685b      	ldr	r3, [r3, #4]
 800527a:	2b01      	cmp	r3, #1
 800527c:	d106      	bne.n	800528c <HAL_RCC_ClockConfig+0xd0>
    {
      /* Check the HSI ready flag */
      if(__HAL_RCC_GET_FLAG(RCC_FLAG_HSIRDY) == 0U)
 800527e:	4b6d      	ldr	r3, [pc, #436]	; (8005434 <HAL_RCC_ClockConfig+0x278>)
 8005280:	681b      	ldr	r3, [r3, #0]
 8005282:	2204      	movs	r2, #4
 8005284:	4013      	ands	r3, r2
 8005286:	d109      	bne.n	800529c <HAL_RCC_ClockConfig+0xe0>
      {
        return HAL_ERROR;
 8005288:	2301      	movs	r3, #1
 800528a:	e0ca      	b.n	8005422 <HAL_RCC_ClockConfig+0x266>
    }
    /* MSI is selected as System Clock Source */
    else
    {
      /* Check the MSI ready flag */
      if(__HAL_RCC_GET_FLAG(RCC_FLAG_MSIRDY) == 0U)
 800528c:	4b69      	ldr	r3, [pc, #420]	; (8005434 <HAL_RCC_ClockConfig+0x278>)
 800528e:	681a      	ldr	r2, [r3, #0]
 8005290:	2380      	movs	r3, #128	; 0x80
 8005292:	009b      	lsls	r3, r3, #2
 8005294:	4013      	ands	r3, r2
 8005296:	d101      	bne.n	800529c <HAL_RCC_ClockConfig+0xe0>
      {
        return HAL_ERROR;
 8005298:	2301      	movs	r3, #1
 800529a:	e0c2      	b.n	8005422 <HAL_RCC_ClockConfig+0x266>
      }
    }
    __HAL_RCC_SYSCLK_CONFIG(RCC_ClkInitStruct->SYSCLKSource);
 800529c:	4b65      	ldr	r3, [pc, #404]	; (8005434 <HAL_RCC_ClockConfig+0x278>)
 800529e:	68db      	ldr	r3, [r3, #12]
 80052a0:	2203      	movs	r2, #3
 80052a2:	4393      	bics	r3, r2
 80052a4:	0019      	movs	r1, r3
 80052a6:	687b      	ldr	r3, [r7, #4]
 80052a8:	685a      	ldr	r2, [r3, #4]
 80052aa:	4b62      	ldr	r3, [pc, #392]	; (8005434 <HAL_RCC_ClockConfig+0x278>)
 80052ac:	430a      	orrs	r2, r1
 80052ae:	60da      	str	r2, [r3, #12]

    /* Get Start Tick */
    tickstart = HAL_GetTick();
 80052b0:	f7fd fd4e 	bl	8002d50 <HAL_GetTick>
 80052b4:	0003      	movs	r3, r0
 80052b6:	60fb      	str	r3, [r7, #12]

    if(RCC_ClkInitStruct->SYSCLKSource == RCC_SYSCLKSOURCE_HSE)
 80052b8:	687b      	ldr	r3, [r7, #4]
 80052ba:	685b      	ldr	r3, [r3, #4]
 80052bc:	2b02      	cmp	r3, #2
 80052be:	d111      	bne.n	80052e4 <HAL_RCC_ClockConfig+0x128>
    {
      while (__HAL_RCC_GET_SYSCLK_SOURCE() != RCC_SYSCLKSOURCE_STATUS_HSE)
 80052c0:	e009      	b.n	80052d6 <HAL_RCC_ClockConfig+0x11a>
      {
        if((HAL_GetTick() - tickstart ) > CLOCKSWITCH_TIMEOUT_VALUE)
 80052c2:	f7fd fd45 	bl	8002d50 <HAL_GetTick>
 80052c6:	0002      	movs	r2, r0
 80052c8:	68fb      	ldr	r3, [r7, #12]
 80052ca:	1ad3      	subs	r3, r2, r3
 80052cc:	4a58      	ldr	r2, [pc, #352]	; (8005430 <HAL_RCC_ClockConfig+0x274>)
 80052ce:	4293      	cmp	r3, r2
 80052d0:	d901      	bls.n	80052d6 <HAL_RCC_ClockConfig+0x11a>
        {
          return HAL_TIMEOUT;
 80052d2:	2303      	movs	r3, #3
 80052d4:	e0a5      	b.n	8005422 <HAL_RCC_ClockConfig+0x266>
      while (__HAL_RCC_GET_SYSCLK_SOURCE() != RCC_SYSCLKSOURCE_STATUS_HSE)
 80052d6:	4b57      	ldr	r3, [pc, #348]	; (8005434 <HAL_RCC_ClockConfig+0x278>)
 80052d8:	68db      	ldr	r3, [r3, #12]
 80052da:	220c      	movs	r2, #12
 80052dc:	4013      	ands	r3, r2
 80052de:	2b08      	cmp	r3, #8
 80052e0:	d1ef      	bne.n	80052c2 <HAL_RCC_ClockConfig+0x106>
 80052e2:	e03a      	b.n	800535a <HAL_RCC_ClockConfig+0x19e>
        }
      }
    }
    else if(RCC_ClkInitStruct->SYSCLKSource == RCC_SYSCLKSOURCE_PLLCLK)
 80052e4:	687b      	ldr	r3, [r7, #4]
 80052e6:	685b      	ldr	r3, [r3, #4]
 80052e8:	2b03      	cmp	r3, #3
 80052ea:	d111      	bne.n	8005310 <HAL_RCC_ClockConfig+0x154>
    {
      while (__HAL_RCC_GET_SYSCLK_SOURCE() != RCC_SYSCLKSOURCE_STATUS_PLLCLK)
 80052ec:	e009      	b.n	8005302 <HAL_RCC_ClockConfig+0x146>
      {
        if((HAL_GetTick() - tickstart ) > CLOCKSWITCH_TIMEOUT_VALUE)
 80052ee:	f7fd fd2f 	bl	8002d50 <HAL_GetTick>
 80052f2:	0002      	movs	r2, r0
 80052f4:	68fb      	ldr	r3, [r7, #12]
 80052f6:	1ad3      	subs	r3, r2, r3
 80052f8:	4a4d      	ldr	r2, [pc, #308]	; (8005430 <HAL_RCC_ClockConfig+0x274>)
 80052fa:	4293      	cmp	r3, r2
 80052fc:	d901      	bls.n	8005302 <HAL_RCC_ClockConfig+0x146>
        {
          return HAL_TIMEOUT;
 80052fe:	2303      	movs	r3, #3
 8005300:	e08f      	b.n	8005422 <HAL_RCC_ClockConfig+0x266>
      while (__HAL_RCC_GET_SYSCLK_SOURCE() != RCC_SYSCLKSOURCE_STATUS_PLLCLK)
 8005302:	4b4c      	ldr	r3, [pc, #304]	; (8005434 <HAL_RCC_ClockConfig+0x278>)
 8005304:	68db      	ldr	r3, [r3, #12]
 8005306:	220c      	movs	r2, #12
 8005308:	4013      	ands	r3, r2
 800530a:	2b0c      	cmp	r3, #12
 800530c:	d1ef      	bne.n	80052ee <HAL_RCC_ClockConfig+0x132>
 800530e:	e024      	b.n	800535a <HAL_RCC_ClockConfig+0x19e>
        }
      }
    }
    else if(RCC_ClkInitStruct->SYSCLKSource == RCC_SYSCLKSOURCE_HSI)
 8005310:	687b      	ldr	r3, [r7, #4]
 8005312:	685b      	ldr	r3, [r3, #4]
 8005314:	2b01      	cmp	r3, #1
 8005316:	d11b      	bne.n	8005350 <HAL_RCC_ClockConfig+0x194>
    {
      while (__HAL_RCC_GET_SYSCLK_SOURCE() != RCC_SYSCLKSOURCE_STATUS_HSI)
 8005318:	e009      	b.n	800532e <HAL_RCC_ClockConfig+0x172>
      {
        if((HAL_GetTick() - tickstart ) > CLOCKSWITCH_TIMEOUT_VALUE)
 800531a:	f7fd fd19 	bl	8002d50 <HAL_GetTick>
 800531e:	0002      	movs	r2, r0
 8005320:	68fb      	ldr	r3, [r7, #12]
 8005322:	1ad3      	subs	r3, r2, r3
 8005324:	4a42      	ldr	r2, [pc, #264]	; (8005430 <HAL_RCC_ClockConfig+0x274>)
 8005326:	4293      	cmp	r3, r2
 8005328:	d901      	bls.n	800532e <HAL_RCC_ClockConfig+0x172>
        {
          return HAL_TIMEOUT;
 800532a:	2303      	movs	r3, #3
 800532c:	e079      	b.n	8005422 <HAL_RCC_ClockConfig+0x266>
      while (__HAL_RCC_GET_SYSCLK_SOURCE() != RCC_SYSCLKSOURCE_STATUS_HSI)
 800532e:	4b41      	ldr	r3, [pc, #260]	; (8005434 <HAL_RCC_ClockConfig+0x278>)
 8005330:	68db      	ldr	r3, [r3, #12]
 8005332:	220c      	movs	r2, #12
 8005334:	4013      	ands	r3, r2
 8005336:	2b04      	cmp	r3, #4
 8005338:	d1ef      	bne.n	800531a <HAL_RCC_ClockConfig+0x15e>
 800533a:	e00e      	b.n	800535a <HAL_RCC_ClockConfig+0x19e>
    }
    else
    {
      while(__HAL_RCC_GET_SYSCLK_SOURCE() != RCC_SYSCLKSOURCE_STATUS_MSI)
      {
        if((HAL_GetTick() - tickstart ) > CLOCKSWITCH_TIMEOUT_VALUE)
 800533c:	f7fd fd08 	bl	8002d50 <HAL_GetTick>
 8005340:	0002      	movs	r2, r0
 8005342:	68fb      	ldr	r3, [r7, #12]
 8005344:	1ad3      	subs	r3, r2, r3
 8005346:	4a3a      	ldr	r2, [pc, #232]	; (8005430 <HAL_RCC_ClockConfig+0x274>)
 8005348:	4293      	cmp	r3, r2
 800534a:	d901      	bls.n	8005350 <HAL_RCC_ClockConfig+0x194>
        {
          return HAL_TIMEOUT;
 800534c:	2303      	movs	r3, #3
 800534e:	e068      	b.n	8005422 <HAL_RCC_ClockConfig+0x266>
      while(__HAL_RCC_GET_SYSCLK_SOURCE() != RCC_SYSCLKSOURCE_STATUS_MSI)
 8005350:	4b38      	ldr	r3, [pc, #224]	; (8005434 <HAL_RCC_ClockConfig+0x278>)
 8005352:	68db      	ldr	r3, [r3, #12]
 8005354:	220c      	movs	r2, #12
 8005356:	4013      	ands	r3, r2
 8005358:	d1f0      	bne.n	800533c <HAL_RCC_ClockConfig+0x180>
        }
      }
    }
  }
  /* Decreasing the number of wait states because of lower CPU frequency */
  if(FLatency < __HAL_FLASH_GET_LATENCY())
 800535a:	4b34      	ldr	r3, [pc, #208]	; (800542c <HAL_RCC_ClockConfig+0x270>)
 800535c:	681b      	ldr	r3, [r3, #0]
 800535e:	2201      	movs	r2, #1
 8005360:	4013      	ands	r3, r2
 8005362:	683a      	ldr	r2, [r7, #0]
 8005364:	429a      	cmp	r2, r3
 8005366:	d21e      	bcs.n	80053a6 <HAL_RCC_ClockConfig+0x1ea>
  {
    /* Program the new number of wait states to the LATENCY bits in the FLASH_ACR register */
    __HAL_FLASH_SET_LATENCY(FLatency);
 8005368:	4b30      	ldr	r3, [pc, #192]	; (800542c <HAL_RCC_ClockConfig+0x270>)
 800536a:	681b      	ldr	r3, [r3, #0]
 800536c:	2201      	movs	r2, #1
 800536e:	4393      	bics	r3, r2
 8005370:	0019      	movs	r1, r3
 8005372:	4b2e      	ldr	r3, [pc, #184]	; (800542c <HAL_RCC_ClockConfig+0x270>)
 8005374:	683a      	ldr	r2, [r7, #0]
 8005376:	430a      	orrs	r2, r1
 8005378:	601a      	str	r2, [r3, #0]

    /* Check that the new number of wait states is taken into account to access the Flash
    memory by polling the FLASH_ACR register */
    tickstart = HAL_GetTick();
 800537a:	f7fd fce9 	bl	8002d50 <HAL_GetTick>
 800537e:	0003      	movs	r3, r0
 8005380:	60fb      	str	r3, [r7, #12]

    while (__HAL_FLASH_GET_LATENCY() != FLatency)
 8005382:	e009      	b.n	8005398 <HAL_RCC_ClockConfig+0x1dc>
    {
      if ((HAL_GetTick() - tickstart) > CLOCKSWITCH_TIMEOUT_VALUE)
 8005384:	f7fd fce4 	bl	8002d50 <HAL_GetTick>
 8005388:	0002      	movs	r2, r0
 800538a:	68fb      	ldr	r3, [r7, #12]
 800538c:	1ad3      	subs	r3, r2, r3
 800538e:	4a28      	ldr	r2, [pc, #160]	; (8005430 <HAL_RCC_ClockConfig+0x274>)
 8005390:	4293      	cmp	r3, r2
 8005392:	d901      	bls.n	8005398 <HAL_RCC_ClockConfig+0x1dc>
      {
        return HAL_TIMEOUT;
 8005394:	2303      	movs	r3, #3
 8005396:	e044      	b.n	8005422 <HAL_RCC_ClockConfig+0x266>
    while (__HAL_FLASH_GET_LATENCY() != FLatency)
 8005398:	4b24      	ldr	r3, [pc, #144]	; (800542c <HAL_RCC_ClockConfig+0x270>)
 800539a:	681b      	ldr	r3, [r3, #0]
 800539c:	2201      	movs	r2, #1
 800539e:	4013      	ands	r3, r2
 80053a0:	683a      	ldr	r2, [r7, #0]
 80053a2:	429a      	cmp	r2, r3
 80053a4:	d1ee      	bne.n	8005384 <HAL_RCC_ClockConfig+0x1c8>
      }
    }
  }

  /*-------------------------- PCLK1 Configuration ---------------------------*/
  if(((RCC_ClkInitStruct->ClockType) & RCC_CLOCKTYPE_PCLK1) == RCC_CLOCKTYPE_PCLK1)
 80053a6:	687b      	ldr	r3, [r7, #4]
 80053a8:	681b      	ldr	r3, [r3, #0]
 80053aa:	2204      	movs	r2, #4
 80053ac:	4013      	ands	r3, r2
 80053ae:	d009      	beq.n	80053c4 <HAL_RCC_ClockConfig+0x208>
  {
    assert_param(IS_RCC_PCLK(RCC_ClkInitStruct->APB1CLKDivider));
    MODIFY_REG(RCC->CFGR, RCC_CFGR_PPRE1, RCC_ClkInitStruct->APB1CLKDivider);
 80053b0:	4b20      	ldr	r3, [pc, #128]	; (8005434 <HAL_RCC_ClockConfig+0x278>)
 80053b2:	68db      	ldr	r3, [r3, #12]
 80053b4:	4a20      	ldr	r2, [pc, #128]	; (8005438 <HAL_RCC_ClockConfig+0x27c>)
 80053b6:	4013      	ands	r3, r2
 80053b8:	0019      	movs	r1, r3
 80053ba:	687b      	ldr	r3, [r7, #4]
 80053bc:	68da      	ldr	r2, [r3, #12]
 80053be:	4b1d      	ldr	r3, [pc, #116]	; (8005434 <HAL_RCC_ClockConfig+0x278>)
 80053c0:	430a      	orrs	r2, r1
 80053c2:	60da      	str	r2, [r3, #12]
  }

  /*-------------------------- PCLK2 Configuration ---------------------------*/
  if(((RCC_ClkInitStruct->ClockType) & RCC_CLOCKTYPE_PCLK2) == RCC_CLOCKTYPE_PCLK2)
 80053c4:	687b      	ldr	r3, [r7, #4]
 80053c6:	681b      	ldr	r3, [r3, #0]
 80053c8:	2208      	movs	r2, #8
 80053ca:	4013      	ands	r3, r2
 80053cc:	d00a      	beq.n	80053e4 <HAL_RCC_ClockConfig+0x228>
  {
    assert_param(IS_RCC_PCLK(RCC_ClkInitStruct->APB2CLKDivider));
    MODIFY_REG(RCC->CFGR, RCC_CFGR_PPRE2, ((RCC_ClkInitStruct->APB2CLKDivider) << 3));
 80053ce:	4b19      	ldr	r3, [pc, #100]	; (8005434 <HAL_RCC_ClockConfig+0x278>)
 80053d0:	68db      	ldr	r3, [r3, #12]
 80053d2:	4a1a      	ldr	r2, [pc, #104]	; (800543c <HAL_RCC_ClockConfig+0x280>)
 80053d4:	4013      	ands	r3, r2
 80053d6:	0019      	movs	r1, r3
 80053d8:	687b      	ldr	r3, [r7, #4]
 80053da:	691b      	ldr	r3, [r3, #16]
 80053dc:	00da      	lsls	r2, r3, #3
 80053de:	4b15      	ldr	r3, [pc, #84]	; (8005434 <HAL_RCC_ClockConfig+0x278>)
 80053e0:	430a      	orrs	r2, r1
 80053e2:	60da      	str	r2, [r3, #12]
  }

  /* Update the SystemCoreClock global variable */
  SystemCoreClock = HAL_RCC_GetSysClockFreq() >> AHBPrescTable[(RCC->CFGR & RCC_CFGR_HPRE)>> RCC_CFGR_HPRE_Pos];
 80053e4:	f000 f832 	bl	800544c <HAL_RCC_GetSysClockFreq>
 80053e8:	0001      	movs	r1, r0
 80053ea:	4b12      	ldr	r3, [pc, #72]	; (8005434 <HAL_RCC_ClockConfig+0x278>)
 80053ec:	68db      	ldr	r3, [r3, #12]
 80053ee:	091b      	lsrs	r3, r3, #4
 80053f0:	220f      	movs	r2, #15
 80053f2:	4013      	ands	r3, r2
 80053f4:	4a12      	ldr	r2, [pc, #72]	; (8005440 <HAL_RCC_ClockConfig+0x284>)
 80053f6:	5cd3      	ldrb	r3, [r2, r3]
 80053f8:	000a      	movs	r2, r1
 80053fa:	40da      	lsrs	r2, r3
 80053fc:	4b11      	ldr	r3, [pc, #68]	; (8005444 <HAL_RCC_ClockConfig+0x288>)
 80053fe:	601a      	str	r2, [r3, #0]

  /* Configure the source of time base considering new system clocks settings*/
  status = HAL_InitTick(uwTickPrio);
 8005400:	4b11      	ldr	r3, [pc, #68]	; (8005448 <HAL_RCC_ClockConfig+0x28c>)
 8005402:	681b      	ldr	r3, [r3, #0]
 8005404:	250b      	movs	r5, #11
 8005406:	197c      	adds	r4, r7, r5
 8005408:	0018      	movs	r0, r3
 800540a:	f7fd fc5b 	bl	8002cc4 <HAL_InitTick>
 800540e:	0003      	movs	r3, r0
 8005410:	7023      	strb	r3, [r4, #0]
  if(status != HAL_OK)
 8005412:	197b      	adds	r3, r7, r5
 8005414:	781b      	ldrb	r3, [r3, #0]
 8005416:	2b00      	cmp	r3, #0
 8005418:	d002      	beq.n	8005420 <HAL_RCC_ClockConfig+0x264>
  {
    return status;
 800541a:	197b      	adds	r3, r7, r5
 800541c:	781b      	ldrb	r3, [r3, #0]
 800541e:	e000      	b.n	8005422 <HAL_RCC_ClockConfig+0x266>
  }

  return HAL_OK;
 8005420:	2300      	movs	r3, #0
}
 8005422:	0018      	movs	r0, r3
 8005424:	46bd      	mov	sp, r7
 8005426:	b004      	add	sp, #16
 8005428:	bdb0      	pop	{r4, r5, r7, pc}
 800542a:	46c0      	nop			; (mov r8, r8)
 800542c:	40022000 	.word	0x40022000
 8005430:	00001388 	.word	0x00001388
 8005434:	40021000 	.word	0x40021000
 8005438:	fffff8ff 	.word	0xfffff8ff
 800543c:	ffffc7ff 	.word	0xffffc7ff
 8005440:	08007224 	.word	0x08007224
 8005444:	20000184 	.word	0x20000184
 8005448:	20000188 	.word	0x20000188

0800544c <HAL_RCC_GetSysClockFreq>:
  *         right SYSCLK value. Otherwise, any configuration based on this function will be incorrect.
  *
  * @retval SYSCLK frequency
  */
uint32_t HAL_RCC_GetSysClockFreq(void)
{
 800544c:	b5b0      	push	{r4, r5, r7, lr}
 800544e:	b08e      	sub	sp, #56	; 0x38
 8005450:	af00      	add	r7, sp, #0
  uint32_t tmpreg, pllm, plld, pllvco, msiclkrange;    /* no init needed */
  uint32_t sysclockfreq;

  tmpreg = RCC->CFGR;
 8005452:	4b4c      	ldr	r3, [pc, #304]	; (8005584 <HAL_RCC_GetSysClockFreq+0x138>)
 8005454:	68db      	ldr	r3, [r3, #12]
 8005456:	62fb      	str	r3, [r7, #44]	; 0x2c

  /* Get SYSCLK source -------------------------------------------------------*/
  switch (tmpreg & RCC_CFGR_SWS)
 8005458:	6afa      	ldr	r2, [r7, #44]	; 0x2c
 800545a:	230c      	movs	r3, #12
 800545c:	4013      	ands	r3, r2
 800545e:	2b0c      	cmp	r3, #12
 8005460:	d014      	beq.n	800548c <HAL_RCC_GetSysClockFreq+0x40>
 8005462:	d900      	bls.n	8005466 <HAL_RCC_GetSysClockFreq+0x1a>
 8005464:	e07b      	b.n	800555e <HAL_RCC_GetSysClockFreq+0x112>
 8005466:	2b04      	cmp	r3, #4
 8005468:	d002      	beq.n	8005470 <HAL_RCC_GetSysClockFreq+0x24>
 800546a:	2b08      	cmp	r3, #8
 800546c:	d00b      	beq.n	8005486 <HAL_RCC_GetSysClockFreq+0x3a>
 800546e:	e076      	b.n	800555e <HAL_RCC_GetSysClockFreq+0x112>
  {
    case RCC_SYSCLKSOURCE_STATUS_HSI:  /* HSI used as system clock source */
    {
      if ((RCC->CR & RCC_CR_HSIDIVF) != 0U)
 8005470:	4b44      	ldr	r3, [pc, #272]	; (8005584 <HAL_RCC_GetSysClockFreq+0x138>)
 8005472:	681b      	ldr	r3, [r3, #0]
 8005474:	2210      	movs	r2, #16
 8005476:	4013      	ands	r3, r2
 8005478:	d002      	beq.n	8005480 <HAL_RCC_GetSysClockFreq+0x34>
      {
        sysclockfreq =  (HSI_VALUE >> 2);
 800547a:	4b43      	ldr	r3, [pc, #268]	; (8005588 <HAL_RCC_GetSysClockFreq+0x13c>)
 800547c:	633b      	str	r3, [r7, #48]	; 0x30
      }
      else
      {
        sysclockfreq =  HSI_VALUE;
      }
      break;
 800547e:	e07c      	b.n	800557a <HAL_RCC_GetSysClockFreq+0x12e>
        sysclockfreq =  HSI_VALUE;
 8005480:	4b42      	ldr	r3, [pc, #264]	; (800558c <HAL_RCC_GetSysClockFreq+0x140>)
 8005482:	633b      	str	r3, [r7, #48]	; 0x30
      break;
 8005484:	e079      	b.n	800557a <HAL_RCC_GetSysClockFreq+0x12e>
    }
    case RCC_SYSCLKSOURCE_STATUS_HSE:  /* HSE used as system clock */
    {
      sysclockfreq = HSE_VALUE;
 8005486:	4b42      	ldr	r3, [pc, #264]	; (8005590 <HAL_RCC_GetSysClockFreq+0x144>)
 8005488:	633b      	str	r3, [r7, #48]	; 0x30
      break;
 800548a:	e076      	b.n	800557a <HAL_RCC_GetSysClockFreq+0x12e>
    }
    case RCC_SYSCLKSOURCE_STATUS_PLLCLK:  /* PLL used as system clock */
    {
      pllm = PLLMulTable[(uint32_t)(tmpreg & RCC_CFGR_PLLMUL) >> RCC_CFGR_PLLMUL_Pos];
 800548c:	6afb      	ldr	r3, [r7, #44]	; 0x2c
 800548e:	0c9a      	lsrs	r2, r3, #18
 8005490:	230f      	movs	r3, #15
 8005492:	401a      	ands	r2, r3
 8005494:	4b3f      	ldr	r3, [pc, #252]	; (8005594 <HAL_RCC_GetSysClockFreq+0x148>)
 8005496:	5c9b      	ldrb	r3, [r3, r2]
 8005498:	62bb      	str	r3, [r7, #40]	; 0x28
      plld = ((uint32_t)(tmpreg & RCC_CFGR_PLLDIV) >> RCC_CFGR_PLLDIV_Pos) + 1U;
 800549a:	6afb      	ldr	r3, [r7, #44]	; 0x2c
 800549c:	0d9a      	lsrs	r2, r3, #22
 800549e:	2303      	movs	r3, #3
 80054a0:	4013      	ands	r3, r2
 80054a2:	3301      	adds	r3, #1
 80054a4:	627b      	str	r3, [r7, #36]	; 0x24
      if (__HAL_RCC_GET_PLL_OSCSOURCE() != RCC_PLLSOURCE_HSI)
 80054a6:	4b37      	ldr	r3, [pc, #220]	; (8005584 <HAL_RCC_GetSysClockFreq+0x138>)
 80054a8:	68da      	ldr	r2, [r3, #12]
 80054aa:	2380      	movs	r3, #128	; 0x80
 80054ac:	025b      	lsls	r3, r3, #9
 80054ae:	4013      	ands	r3, r2
 80054b0:	d01a      	beq.n	80054e8 <HAL_RCC_GetSysClockFreq+0x9c>
      {
        /* HSE used as PLL clock source */
        pllvco = (uint32_t)(((uint64_t)HSE_VALUE * (uint64_t)pllm) / (uint64_t)plld);
 80054b2:	6abb      	ldr	r3, [r7, #40]	; 0x28
 80054b4:	61bb      	str	r3, [r7, #24]
 80054b6:	2300      	movs	r3, #0
 80054b8:	61fb      	str	r3, [r7, #28]
 80054ba:	4a35      	ldr	r2, [pc, #212]	; (8005590 <HAL_RCC_GetSysClockFreq+0x144>)
 80054bc:	2300      	movs	r3, #0
 80054be:	69b8      	ldr	r0, [r7, #24]
 80054c0:	69f9      	ldr	r1, [r7, #28]
 80054c2:	f7fa ffc9 	bl	8000458 <__aeabi_lmul>
 80054c6:	0002      	movs	r2, r0
 80054c8:	000b      	movs	r3, r1
 80054ca:	0010      	movs	r0, r2
 80054cc:	0019      	movs	r1, r3
 80054ce:	6a7b      	ldr	r3, [r7, #36]	; 0x24
 80054d0:	613b      	str	r3, [r7, #16]
 80054d2:	2300      	movs	r3, #0
 80054d4:	617b      	str	r3, [r7, #20]
 80054d6:	693a      	ldr	r2, [r7, #16]
 80054d8:	697b      	ldr	r3, [r7, #20]
 80054da:	f7fa ff9d 	bl	8000418 <__aeabi_uldivmod>
 80054de:	0002      	movs	r2, r0
 80054e0:	000b      	movs	r3, r1
 80054e2:	0013      	movs	r3, r2
 80054e4:	637b      	str	r3, [r7, #52]	; 0x34
 80054e6:	e037      	b.n	8005558 <HAL_RCC_GetSysClockFreq+0x10c>
      }
      else
      {
        if ((RCC->CR & RCC_CR_HSIDIVF) != 0U)
 80054e8:	4b26      	ldr	r3, [pc, #152]	; (8005584 <HAL_RCC_GetSysClockFreq+0x138>)
 80054ea:	681b      	ldr	r3, [r3, #0]
 80054ec:	2210      	movs	r2, #16
 80054ee:	4013      	ands	r3, r2
 80054f0:	d01a      	beq.n	8005528 <HAL_RCC_GetSysClockFreq+0xdc>
        {
          pllvco = (uint32_t)((((uint64_t)(HSI_VALUE >> 2)) * (uint64_t)pllm) / (uint64_t)plld);
 80054f2:	6abb      	ldr	r3, [r7, #40]	; 0x28
 80054f4:	60bb      	str	r3, [r7, #8]
 80054f6:	2300      	movs	r3, #0
 80054f8:	60fb      	str	r3, [r7, #12]
 80054fa:	4a23      	ldr	r2, [pc, #140]	; (8005588 <HAL_RCC_GetSysClockFreq+0x13c>)
 80054fc:	2300      	movs	r3, #0
 80054fe:	68b8      	ldr	r0, [r7, #8]
 8005500:	68f9      	ldr	r1, [r7, #12]
 8005502:	f7fa ffa9 	bl	8000458 <__aeabi_lmul>
 8005506:	0002      	movs	r2, r0
 8005508:	000b      	movs	r3, r1
 800550a:	0010      	movs	r0, r2
 800550c:	0019      	movs	r1, r3
 800550e:	6a7b      	ldr	r3, [r7, #36]	; 0x24
 8005510:	603b      	str	r3, [r7, #0]
 8005512:	2300      	movs	r3, #0
 8005514:	607b      	str	r3, [r7, #4]
 8005516:	683a      	ldr	r2, [r7, #0]
 8005518:	687b      	ldr	r3, [r7, #4]
 800551a:	f7fa ff7d 	bl	8000418 <__aeabi_uldivmod>
 800551e:	0002      	movs	r2, r0
 8005520:	000b      	movs	r3, r1
 8005522:	0013      	movs	r3, r2
 8005524:	637b      	str	r3, [r7, #52]	; 0x34
 8005526:	e017      	b.n	8005558 <HAL_RCC_GetSysClockFreq+0x10c>
        }
        else
        {
         pllvco = (uint32_t)(((uint64_t)HSI_VALUE * (uint64_t)pllm) / (uint64_t)plld);
 8005528:	6abb      	ldr	r3, [r7, #40]	; 0x28
 800552a:	0018      	movs	r0, r3
 800552c:	2300      	movs	r3, #0
 800552e:	0019      	movs	r1, r3
 8005530:	4a16      	ldr	r2, [pc, #88]	; (800558c <HAL_RCC_GetSysClockFreq+0x140>)
 8005532:	2300      	movs	r3, #0
 8005534:	f7fa ff90 	bl	8000458 <__aeabi_lmul>
 8005538:	0002      	movs	r2, r0
 800553a:	000b      	movs	r3, r1
 800553c:	0010      	movs	r0, r2
 800553e:	0019      	movs	r1, r3
 8005540:	6a7b      	ldr	r3, [r7, #36]	; 0x24
 8005542:	001c      	movs	r4, r3
 8005544:	2300      	movs	r3, #0
 8005546:	001d      	movs	r5, r3
 8005548:	0022      	movs	r2, r4
 800554a:	002b      	movs	r3, r5
 800554c:	f7fa ff64 	bl	8000418 <__aeabi_uldivmod>
 8005550:	0002      	movs	r2, r0
 8005552:	000b      	movs	r3, r1
 8005554:	0013      	movs	r3, r2
 8005556:	637b      	str	r3, [r7, #52]	; 0x34
        }
      }
      sysclockfreq = pllvco;
 8005558:	6b7b      	ldr	r3, [r7, #52]	; 0x34
 800555a:	633b      	str	r3, [r7, #48]	; 0x30
      break;
 800555c:	e00d      	b.n	800557a <HAL_RCC_GetSysClockFreq+0x12e>
    }
    case RCC_SYSCLKSOURCE_STATUS_MSI:  /* MSI used as system clock source */
    default: /* MSI used as system clock */
    {
      msiclkrange = (RCC->ICSCR & RCC_ICSCR_MSIRANGE ) >> RCC_ICSCR_MSIRANGE_Pos;
 800555e:	4b09      	ldr	r3, [pc, #36]	; (8005584 <HAL_RCC_GetSysClockFreq+0x138>)
 8005560:	685b      	ldr	r3, [r3, #4]
 8005562:	0b5b      	lsrs	r3, r3, #13
 8005564:	2207      	movs	r2, #7
 8005566:	4013      	ands	r3, r2
 8005568:	623b      	str	r3, [r7, #32]
      sysclockfreq = (32768U * (1UL << (msiclkrange + 1U)));
 800556a:	6a3b      	ldr	r3, [r7, #32]
 800556c:	3301      	adds	r3, #1
 800556e:	2280      	movs	r2, #128	; 0x80
 8005570:	0212      	lsls	r2, r2, #8
 8005572:	409a      	lsls	r2, r3
 8005574:	0013      	movs	r3, r2
 8005576:	633b      	str	r3, [r7, #48]	; 0x30
      break;
 8005578:	46c0      	nop			; (mov r8, r8)
    }
  }
  return sysclockfreq;
 800557a:	6b3b      	ldr	r3, [r7, #48]	; 0x30
}
 800557c:	0018      	movs	r0, r3
 800557e:	46bd      	mov	sp, r7
 8005580:	b00e      	add	sp, #56	; 0x38
 8005582:	bdb0      	pop	{r4, r5, r7, pc}
 8005584:	40021000 	.word	0x40021000
 8005588:	003d0900 	.word	0x003d0900
 800558c:	00f42400 	.word	0x00f42400
 8005590:	017d7840 	.word	0x017d7840
 8005594:	0800723c 	.word	0x0800723c

08005598 <HAL_RCC_GetHCLKFreq>:
  * @note   The SystemCoreClock CMSIS variable is used to store System Clock Frequency
  *         and updated within this function
  * @retval HCLK frequency
  */
uint32_t HAL_RCC_GetHCLKFreq(void)
{
 8005598:	b580      	push	{r7, lr}
 800559a:	af00      	add	r7, sp, #0
  return SystemCoreClock;
 800559c:	4b02      	ldr	r3, [pc, #8]	; (80055a8 <HAL_RCC_GetHCLKFreq+0x10>)
 800559e:	681b      	ldr	r3, [r3, #0]
}
 80055a0:	0018      	movs	r0, r3
 80055a2:	46bd      	mov	sp, r7
 80055a4:	bd80      	pop	{r7, pc}
 80055a6:	46c0      	nop			; (mov r8, r8)
 80055a8:	20000184 	.word	0x20000184

080055ac <HAL_RCC_GetPCLK1Freq>:
  * @note   Each time PCLK1 changes, this function must be called to update the
  *         right PCLK1 value. Otherwise, any configuration based on this function will be incorrect.
  * @retval PCLK1 frequency
  */
uint32_t HAL_RCC_GetPCLK1Freq(void)
{
 80055ac:	b580      	push	{r7, lr}
 80055ae:	af00      	add	r7, sp, #0
  /* Get HCLK source and Compute PCLK1 frequency ---------------------------*/
  return (HAL_RCC_GetHCLKFreq() >> APBPrescTable[(RCC->CFGR & RCC_CFGR_PPRE1) >> RCC_CFGR_PPRE1_Pos]);
 80055b0:	f7ff fff2 	bl	8005598 <HAL_RCC_GetHCLKFreq>
 80055b4:	0001      	movs	r1, r0
 80055b6:	4b06      	ldr	r3, [pc, #24]	; (80055d0 <HAL_RCC_GetPCLK1Freq+0x24>)
 80055b8:	68db      	ldr	r3, [r3, #12]
 80055ba:	0a1b      	lsrs	r3, r3, #8
 80055bc:	2207      	movs	r2, #7
 80055be:	4013      	ands	r3, r2
 80055c0:	4a04      	ldr	r2, [pc, #16]	; (80055d4 <HAL_RCC_GetPCLK1Freq+0x28>)
 80055c2:	5cd3      	ldrb	r3, [r2, r3]
 80055c4:	40d9      	lsrs	r1, r3
 80055c6:	000b      	movs	r3, r1
}
 80055c8:	0018      	movs	r0, r3
 80055ca:	46bd      	mov	sp, r7
 80055cc:	bd80      	pop	{r7, pc}
 80055ce:	46c0      	nop			; (mov r8, r8)
 80055d0:	40021000 	.word	0x40021000
 80055d4:	08007234 	.word	0x08007234

080055d8 <HAL_RCC_GetPCLK2Freq>:
  * @note   Each time PCLK2 changes, this function must be called to update the
  *         right PCLK2 value. Otherwise, any configuration based on this function will be incorrect.
  * @retval PCLK2 frequency
  */
uint32_t HAL_RCC_GetPCLK2Freq(void)
{
 80055d8:	b580      	push	{r7, lr}
 80055da:	af00      	add	r7, sp, #0
  /* Get HCLK source and Compute PCLK2 frequency ---------------------------*/
  return (HAL_RCC_GetHCLKFreq()>> APBPrescTable[(RCC->CFGR & RCC_CFGR_PPRE2) >> RCC_CFGR_PPRE2_Pos]);
 80055dc:	f7ff ffdc 	bl	8005598 <HAL_RCC_GetHCLKFreq>
 80055e0:	0001      	movs	r1, r0
 80055e2:	4b06      	ldr	r3, [pc, #24]	; (80055fc <HAL_RCC_GetPCLK2Freq+0x24>)
 80055e4:	68db      	ldr	r3, [r3, #12]
 80055e6:	0adb      	lsrs	r3, r3, #11
 80055e8:	2207      	movs	r2, #7
 80055ea:	4013      	ands	r3, r2
 80055ec:	4a04      	ldr	r2, [pc, #16]	; (8005600 <HAL_RCC_GetPCLK2Freq+0x28>)
 80055ee:	5cd3      	ldrb	r3, [r2, r3]
 80055f0:	40d9      	lsrs	r1, r3
 80055f2:	000b      	movs	r3, r1
}
 80055f4:	0018      	movs	r0, r3
 80055f6:	46bd      	mov	sp, r7
 80055f8:	bd80      	pop	{r7, pc}
 80055fa:	46c0      	nop			; (mov r8, r8)
 80055fc:	40021000 	.word	0x40021000
 8005600:	08007234 	.word	0x08007234

08005604 <HAL_RCCEx_PeriphCLKConfig>:
  * @retval HAL status
  * @note   If HAL_ERROR returned, first switch-OFF HSE clock oscillator with @ref HAL_RCC_OscConfig()
  *         to possibly update HSE divider.
  */
HAL_StatusTypeDef HAL_RCCEx_PeriphCLKConfig(RCC_PeriphCLKInitTypeDef  *PeriphClkInit)
{
 8005604:	b580      	push	{r7, lr}
 8005606:	b086      	sub	sp, #24
 8005608:	af00      	add	r7, sp, #0
 800560a:	6078      	str	r0, [r7, #4]
  uint32_t tickstart;
  uint32_t temp_reg;
  FlagStatus       pwrclkchanged = RESET;
 800560c:	2017      	movs	r0, #23
 800560e:	183b      	adds	r3, r7, r0
 8005610:	2200      	movs	r2, #0
 8005612:	701a      	strb	r2, [r3, #0]

  /* Check the parameters */
  assert_param(IS_RCC_PERIPHCLOCK(PeriphClkInit->PeriphClockSelection));

  /*------------------------------- RTC/LCD Configuration ------------------------*/
  if ((((PeriphClkInit->PeriphClockSelection) & RCC_PERIPHCLK_RTC) == RCC_PERIPHCLK_RTC)
 8005614:	687b      	ldr	r3, [r7, #4]
 8005616:	681b      	ldr	r3, [r3, #0]
 8005618:	2220      	movs	r2, #32
 800561a:	4013      	ands	r3, r2
 800561c:	d100      	bne.n	8005620 <HAL_RCCEx_PeriphCLKConfig+0x1c>
 800561e:	e0c2      	b.n	80057a6 <HAL_RCCEx_PeriphCLKConfig+0x1a2>
#endif /* LCD */

    /* As soon as function is called to change RTC clock source, activation of the
       power domain is done. */
    /* Requires to enable write access to Backup Domain of necessary */
    if(__HAL_RCC_PWR_IS_CLK_DISABLED())
 8005620:	4b81      	ldr	r3, [pc, #516]	; (8005828 <HAL_RCCEx_PeriphCLKConfig+0x224>)
 8005622:	6b9a      	ldr	r2, [r3, #56]	; 0x38
 8005624:	2380      	movs	r3, #128	; 0x80
 8005626:	055b      	lsls	r3, r3, #21
 8005628:	4013      	ands	r3, r2
 800562a:	d109      	bne.n	8005640 <HAL_RCCEx_PeriphCLKConfig+0x3c>
    {
      __HAL_RCC_PWR_CLK_ENABLE();
 800562c:	4b7e      	ldr	r3, [pc, #504]	; (8005828 <HAL_RCCEx_PeriphCLKConfig+0x224>)
 800562e:	6b9a      	ldr	r2, [r3, #56]	; 0x38
 8005630:	4b7d      	ldr	r3, [pc, #500]	; (8005828 <HAL_RCCEx_PeriphCLKConfig+0x224>)
 8005632:	2180      	movs	r1, #128	; 0x80
 8005634:	0549      	lsls	r1, r1, #21
 8005636:	430a      	orrs	r2, r1
 8005638:	639a      	str	r2, [r3, #56]	; 0x38
      pwrclkchanged = SET;
 800563a:	183b      	adds	r3, r7, r0
 800563c:	2201      	movs	r2, #1
 800563e:	701a      	strb	r2, [r3, #0]
    }

    if(HAL_IS_BIT_CLR(PWR->CR, PWR_CR_DBP))
 8005640:	4b7a      	ldr	r3, [pc, #488]	; (800582c <HAL_RCCEx_PeriphCLKConfig+0x228>)
 8005642:	681a      	ldr	r2, [r3, #0]
 8005644:	2380      	movs	r3, #128	; 0x80
 8005646:	005b      	lsls	r3, r3, #1
 8005648:	4013      	ands	r3, r2
 800564a:	d11a      	bne.n	8005682 <HAL_RCCEx_PeriphCLKConfig+0x7e>
    {
      /* Enable write access to Backup domain */
      SET_BIT(PWR->CR, PWR_CR_DBP);
 800564c:	4b77      	ldr	r3, [pc, #476]	; (800582c <HAL_RCCEx_PeriphCLKConfig+0x228>)
 800564e:	681a      	ldr	r2, [r3, #0]
 8005650:	4b76      	ldr	r3, [pc, #472]	; (800582c <HAL_RCCEx_PeriphCLKConfig+0x228>)
 8005652:	2180      	movs	r1, #128	; 0x80
 8005654:	0049      	lsls	r1, r1, #1
 8005656:	430a      	orrs	r2, r1
 8005658:	601a      	str	r2, [r3, #0]

      /* Wait for Backup domain Write protection disable */
      tickstart = HAL_GetTick();
 800565a:	f7fd fb79 	bl	8002d50 <HAL_GetTick>
 800565e:	0003      	movs	r3, r0
 8005660:	613b      	str	r3, [r7, #16]

      while(HAL_IS_BIT_CLR(PWR->CR, PWR_CR_DBP))
 8005662:	e008      	b.n	8005676 <HAL_RCCEx_PeriphCLKConfig+0x72>
      {
        if((HAL_GetTick() - tickstart) > RCC_DBP_TIMEOUT_VALUE)
 8005664:	f7fd fb74 	bl	8002d50 <HAL_GetTick>
 8005668:	0002      	movs	r2, r0
 800566a:	693b      	ldr	r3, [r7, #16]
 800566c:	1ad3      	subs	r3, r2, r3
 800566e:	2b64      	cmp	r3, #100	; 0x64
 8005670:	d901      	bls.n	8005676 <HAL_RCCEx_PeriphCLKConfig+0x72>
        {
          return HAL_TIMEOUT;
 8005672:	2303      	movs	r3, #3
 8005674:	e0d4      	b.n	8005820 <HAL_RCCEx_PeriphCLKConfig+0x21c>
      while(HAL_IS_BIT_CLR(PWR->CR, PWR_CR_DBP))
 8005676:	4b6d      	ldr	r3, [pc, #436]	; (800582c <HAL_RCCEx_PeriphCLKConfig+0x228>)
 8005678:	681a      	ldr	r2, [r3, #0]
 800567a:	2380      	movs	r3, #128	; 0x80
 800567c:	005b      	lsls	r3, r3, #1
 800567e:	4013      	ands	r3, r2
 8005680:	d0f0      	beq.n	8005664 <HAL_RCCEx_PeriphCLKConfig+0x60>
        }
      }
    }

    /* Check if user wants to change HSE RTC prescaler whereas HSE is enabled */
    temp_reg = (RCC->CR & RCC_CR_RTCPRE);
 8005682:	4b69      	ldr	r3, [pc, #420]	; (8005828 <HAL_RCCEx_PeriphCLKConfig+0x224>)
 8005684:	681a      	ldr	r2, [r3, #0]
 8005686:	23c0      	movs	r3, #192	; 0xc0
 8005688:	039b      	lsls	r3, r3, #14
 800568a:	4013      	ands	r3, r2
 800568c:	60fb      	str	r3, [r7, #12]
    if ((temp_reg != (PeriphClkInit->RTCClockSelection & RCC_CR_RTCPRE))
 800568e:	687b      	ldr	r3, [r7, #4]
 8005690:	685a      	ldr	r2, [r3, #4]
 8005692:	23c0      	movs	r3, #192	; 0xc0
 8005694:	039b      	lsls	r3, r3, #14
 8005696:	4013      	ands	r3, r2
 8005698:	68fa      	ldr	r2, [r7, #12]
 800569a:	429a      	cmp	r2, r3
 800569c:	d013      	beq.n	80056c6 <HAL_RCCEx_PeriphCLKConfig+0xc2>
#if defined (LCD)
     || (temp_reg != (PeriphClkInit->LCDClockSelection & RCC_CR_RTCPRE))
#endif /* LCD */
       )
    { /* Check HSE State */
      if ((PeriphClkInit->RTCClockSelection & RCC_CSR_RTCSEL) == RCC_CSR_RTCSEL_HSE)
 800569e:	687b      	ldr	r3, [r7, #4]
 80056a0:	685a      	ldr	r2, [r3, #4]
 80056a2:	23c0      	movs	r3, #192	; 0xc0
 80056a4:	029b      	lsls	r3, r3, #10
 80056a6:	401a      	ands	r2, r3
 80056a8:	23c0      	movs	r3, #192	; 0xc0
 80056aa:	029b      	lsls	r3, r3, #10
 80056ac:	429a      	cmp	r2, r3
 80056ae:	d10a      	bne.n	80056c6 <HAL_RCCEx_PeriphCLKConfig+0xc2>
      {
        if (HAL_IS_BIT_SET(RCC->CR, RCC_CR_HSERDY))
 80056b0:	4b5d      	ldr	r3, [pc, #372]	; (8005828 <HAL_RCCEx_PeriphCLKConfig+0x224>)
 80056b2:	681a      	ldr	r2, [r3, #0]
 80056b4:	2380      	movs	r3, #128	; 0x80
 80056b6:	029b      	lsls	r3, r3, #10
 80056b8:	401a      	ands	r2, r3
 80056ba:	2380      	movs	r3, #128	; 0x80
 80056bc:	029b      	lsls	r3, r3, #10
 80056be:	429a      	cmp	r2, r3
 80056c0:	d101      	bne.n	80056c6 <HAL_RCCEx_PeriphCLKConfig+0xc2>
        {
          /* To update HSE divider, first switch-OFF HSE clock oscillator*/
          return HAL_ERROR;
 80056c2:	2301      	movs	r3, #1
 80056c4:	e0ac      	b.n	8005820 <HAL_RCCEx_PeriphCLKConfig+0x21c>
        }
      }
    }

    /* Reset the Backup domain only if the RTC Clock source selection is modified from reset value */
    temp_reg = (RCC->CSR & RCC_CSR_RTCSEL);
 80056c6:	4b58      	ldr	r3, [pc, #352]	; (8005828 <HAL_RCCEx_PeriphCLKConfig+0x224>)
 80056c8:	6d1a      	ldr	r2, [r3, #80]	; 0x50
 80056ca:	23c0      	movs	r3, #192	; 0xc0
 80056cc:	029b      	lsls	r3, r3, #10
 80056ce:	4013      	ands	r3, r2
 80056d0:	60fb      	str	r3, [r7, #12]

    if((temp_reg != 0x00000000U) && (((temp_reg != (PeriphClkInit->RTCClockSelection & RCC_CSR_RTCSEL)) \
 80056d2:	68fb      	ldr	r3, [r7, #12]
 80056d4:	2b00      	cmp	r3, #0
 80056d6:	d03b      	beq.n	8005750 <HAL_RCCEx_PeriphCLKConfig+0x14c>
 80056d8:	687b      	ldr	r3, [r7, #4]
 80056da:	685a      	ldr	r2, [r3, #4]
 80056dc:	23c0      	movs	r3, #192	; 0xc0
 80056de:	029b      	lsls	r3, r3, #10
 80056e0:	4013      	ands	r3, r2
 80056e2:	68fa      	ldr	r2, [r7, #12]
 80056e4:	429a      	cmp	r2, r3
 80056e6:	d033      	beq.n	8005750 <HAL_RCCEx_PeriphCLKConfig+0x14c>
      && (((PeriphClkInit->PeriphClockSelection) & RCC_PERIPHCLK_RTC) == RCC_PERIPHCLK_RTC))
 80056e8:	687b      	ldr	r3, [r7, #4]
 80056ea:	681b      	ldr	r3, [r3, #0]
 80056ec:	2220      	movs	r2, #32
 80056ee:	4013      	ands	r3, r2
 80056f0:	d02e      	beq.n	8005750 <HAL_RCCEx_PeriphCLKConfig+0x14c>
       && (((PeriphClkInit->PeriphClockSelection) & RCC_PERIPHCLK_LCD) == RCC_PERIPHCLK_LCD))
#endif /* LCD */
     ))
    {
      /* Store the content of CSR register before the reset of Backup Domain */
      temp_reg = (RCC->CSR & ~(RCC_CSR_RTCSEL));
 80056f2:	4b4d      	ldr	r3, [pc, #308]	; (8005828 <HAL_RCCEx_PeriphCLKConfig+0x224>)
 80056f4:	6d1b      	ldr	r3, [r3, #80]	; 0x50
 80056f6:	4a4e      	ldr	r2, [pc, #312]	; (8005830 <HAL_RCCEx_PeriphCLKConfig+0x22c>)
 80056f8:	4013      	ands	r3, r2
 80056fa:	60fb      	str	r3, [r7, #12]

      /* RTC Clock selection can be changed only if the Backup Domain is reset */
      __HAL_RCC_BACKUPRESET_FORCE();
 80056fc:	4b4a      	ldr	r3, [pc, #296]	; (8005828 <HAL_RCCEx_PeriphCLKConfig+0x224>)
 80056fe:	6d1a      	ldr	r2, [r3, #80]	; 0x50
 8005700:	4b49      	ldr	r3, [pc, #292]	; (8005828 <HAL_RCCEx_PeriphCLKConfig+0x224>)
 8005702:	2180      	movs	r1, #128	; 0x80
 8005704:	0309      	lsls	r1, r1, #12
 8005706:	430a      	orrs	r2, r1
 8005708:	651a      	str	r2, [r3, #80]	; 0x50
      __HAL_RCC_BACKUPRESET_RELEASE();
 800570a:	4b47      	ldr	r3, [pc, #284]	; (8005828 <HAL_RCCEx_PeriphCLKConfig+0x224>)
 800570c:	6d1a      	ldr	r2, [r3, #80]	; 0x50
 800570e:	4b46      	ldr	r3, [pc, #280]	; (8005828 <HAL_RCCEx_PeriphCLKConfig+0x224>)
 8005710:	4948      	ldr	r1, [pc, #288]	; (8005834 <HAL_RCCEx_PeriphCLKConfig+0x230>)
 8005712:	400a      	ands	r2, r1
 8005714:	651a      	str	r2, [r3, #80]	; 0x50

      /* Restore the Content of CSR register */
      RCC->CSR = temp_reg;
 8005716:	4b44      	ldr	r3, [pc, #272]	; (8005828 <HAL_RCCEx_PeriphCLKConfig+0x224>)
 8005718:	68fa      	ldr	r2, [r7, #12]
 800571a:	651a      	str	r2, [r3, #80]	; 0x50

       /* Wait for LSERDY if LSE was enabled */
      if (HAL_IS_BIT_SET(temp_reg, RCC_CSR_LSEON))
 800571c:	68fa      	ldr	r2, [r7, #12]
 800571e:	2380      	movs	r3, #128	; 0x80
 8005720:	005b      	lsls	r3, r3, #1
 8005722:	4013      	ands	r3, r2
 8005724:	d014      	beq.n	8005750 <HAL_RCCEx_PeriphCLKConfig+0x14c>
      {
        /* Get Start Tick */
        tickstart = HAL_GetTick();
 8005726:	f7fd fb13 	bl	8002d50 <HAL_GetTick>
 800572a:	0003      	movs	r3, r0
 800572c:	613b      	str	r3, [r7, #16]

        /* Wait till LSE is ready */
        while(__HAL_RCC_GET_FLAG(RCC_FLAG_LSERDY) == 0U)
 800572e:	e009      	b.n	8005744 <HAL_RCCEx_PeriphCLKConfig+0x140>
        {
          if((HAL_GetTick() - tickstart ) > RCC_LSE_TIMEOUT_VALUE)
 8005730:	f7fd fb0e 	bl	8002d50 <HAL_GetTick>
 8005734:	0002      	movs	r2, r0
 8005736:	693b      	ldr	r3, [r7, #16]
 8005738:	1ad3      	subs	r3, r2, r3
 800573a:	4a3f      	ldr	r2, [pc, #252]	; (8005838 <HAL_RCCEx_PeriphCLKConfig+0x234>)
 800573c:	4293      	cmp	r3, r2
 800573e:	d901      	bls.n	8005744 <HAL_RCCEx_PeriphCLKConfig+0x140>
          {
            return HAL_TIMEOUT;
 8005740:	2303      	movs	r3, #3
 8005742:	e06d      	b.n	8005820 <HAL_RCCEx_PeriphCLKConfig+0x21c>
        while(__HAL_RCC_GET_FLAG(RCC_FLAG_LSERDY) == 0U)
 8005744:	4b38      	ldr	r3, [pc, #224]	; (8005828 <HAL_RCCEx_PeriphCLKConfig+0x224>)
 8005746:	6d1a      	ldr	r2, [r3, #80]	; 0x50
 8005748:	2380      	movs	r3, #128	; 0x80
 800574a:	009b      	lsls	r3, r3, #2
 800574c:	4013      	ands	r3, r2
 800574e:	d0ef      	beq.n	8005730 <HAL_RCCEx_PeriphCLKConfig+0x12c>
          }
        }
      }
    }
    __HAL_RCC_RTC_CONFIG(PeriphClkInit->RTCClockSelection);
 8005750:	687b      	ldr	r3, [r7, #4]
 8005752:	685a      	ldr	r2, [r3, #4]
 8005754:	23c0      	movs	r3, #192	; 0xc0
 8005756:	029b      	lsls	r3, r3, #10
 8005758:	401a      	ands	r2, r3
 800575a:	23c0      	movs	r3, #192	; 0xc0
 800575c:	029b      	lsls	r3, r3, #10
 800575e:	429a      	cmp	r2, r3
 8005760:	d10c      	bne.n	800577c <HAL_RCCEx_PeriphCLKConfig+0x178>
 8005762:	4b31      	ldr	r3, [pc, #196]	; (8005828 <HAL_RCCEx_PeriphCLKConfig+0x224>)
 8005764:	681b      	ldr	r3, [r3, #0]
 8005766:	4a35      	ldr	r2, [pc, #212]	; (800583c <HAL_RCCEx_PeriphCLKConfig+0x238>)
 8005768:	4013      	ands	r3, r2
 800576a:	0019      	movs	r1, r3
 800576c:	687b      	ldr	r3, [r7, #4]
 800576e:	685a      	ldr	r2, [r3, #4]
 8005770:	23c0      	movs	r3, #192	; 0xc0
 8005772:	039b      	lsls	r3, r3, #14
 8005774:	401a      	ands	r2, r3
 8005776:	4b2c      	ldr	r3, [pc, #176]	; (8005828 <HAL_RCCEx_PeriphCLKConfig+0x224>)
 8005778:	430a      	orrs	r2, r1
 800577a:	601a      	str	r2, [r3, #0]
 800577c:	4b2a      	ldr	r3, [pc, #168]	; (8005828 <HAL_RCCEx_PeriphCLKConfig+0x224>)
 800577e:	6d19      	ldr	r1, [r3, #80]	; 0x50
 8005780:	687b      	ldr	r3, [r7, #4]
 8005782:	685a      	ldr	r2, [r3, #4]
 8005784:	23c0      	movs	r3, #192	; 0xc0
 8005786:	029b      	lsls	r3, r3, #10
 8005788:	401a      	ands	r2, r3
 800578a:	4b27      	ldr	r3, [pc, #156]	; (8005828 <HAL_RCCEx_PeriphCLKConfig+0x224>)
 800578c:	430a      	orrs	r2, r1
 800578e:	651a      	str	r2, [r3, #80]	; 0x50

    /* Require to disable power clock if necessary */
    if(pwrclkchanged == SET)
 8005790:	2317      	movs	r3, #23
 8005792:	18fb      	adds	r3, r7, r3
 8005794:	781b      	ldrb	r3, [r3, #0]
 8005796:	2b01      	cmp	r3, #1
 8005798:	d105      	bne.n	80057a6 <HAL_RCCEx_PeriphCLKConfig+0x1a2>
    {
      __HAL_RCC_PWR_CLK_DISABLE();
 800579a:	4b23      	ldr	r3, [pc, #140]	; (8005828 <HAL_RCCEx_PeriphCLKConfig+0x224>)
 800579c:	6b9a      	ldr	r2, [r3, #56]	; 0x38
 800579e:	4b22      	ldr	r3, [pc, #136]	; (8005828 <HAL_RCCEx_PeriphCLKConfig+0x224>)
 80057a0:	4927      	ldr	r1, [pc, #156]	; (8005840 <HAL_RCCEx_PeriphCLKConfig+0x23c>)
 80057a2:	400a      	ands	r2, r1
 80057a4:	639a      	str	r2, [r3, #56]	; 0x38
    __HAL_RCC_USART1_CONFIG(PeriphClkInit->Usart1ClockSelection);
  }
#endif /* RCC_CCIPR_USART1SEL */

  /*----------------------------- USART2 Configuration --------------------------*/
  if(((PeriphClkInit->PeriphClockSelection) & RCC_PERIPHCLK_USART2) == RCC_PERIPHCLK_USART2)
 80057a6:	687b      	ldr	r3, [r7, #4]
 80057a8:	681b      	ldr	r3, [r3, #0]
 80057aa:	2202      	movs	r2, #2
 80057ac:	4013      	ands	r3, r2
 80057ae:	d009      	beq.n	80057c4 <HAL_RCCEx_PeriphCLKConfig+0x1c0>
  {
    /* Check the parameters */
    assert_param(IS_RCC_USART2CLKSOURCE(PeriphClkInit->Usart2ClockSelection));

    /* Configure the USART2 clock source */
    __HAL_RCC_USART2_CONFIG(PeriphClkInit->Usart2ClockSelection);
 80057b0:	4b1d      	ldr	r3, [pc, #116]	; (8005828 <HAL_RCCEx_PeriphCLKConfig+0x224>)
 80057b2:	6cdb      	ldr	r3, [r3, #76]	; 0x4c
 80057b4:	220c      	movs	r2, #12
 80057b6:	4393      	bics	r3, r2
 80057b8:	0019      	movs	r1, r3
 80057ba:	687b      	ldr	r3, [r7, #4]
 80057bc:	689a      	ldr	r2, [r3, #8]
 80057be:	4b1a      	ldr	r3, [pc, #104]	; (8005828 <HAL_RCCEx_PeriphCLKConfig+0x224>)
 80057c0:	430a      	orrs	r2, r1
 80057c2:	64da      	str	r2, [r3, #76]	; 0x4c
  }

  /*------------------------------ LPUART1 Configuration ------------------------*/
  if(((PeriphClkInit->PeriphClockSelection) & RCC_PERIPHCLK_LPUART1) == RCC_PERIPHCLK_LPUART1)
 80057c4:	687b      	ldr	r3, [r7, #4]
 80057c6:	681b      	ldr	r3, [r3, #0]
 80057c8:	2204      	movs	r2, #4
 80057ca:	4013      	ands	r3, r2
 80057cc:	d009      	beq.n	80057e2 <HAL_RCCEx_PeriphCLKConfig+0x1de>
  {
    /* Check the parameters */
    assert_param(IS_RCC_LPUART1CLKSOURCE(PeriphClkInit->Lpuart1ClockSelection));

    /* Configure the LPUAR1 clock source */
    __HAL_RCC_LPUART1_CONFIG(PeriphClkInit->Lpuart1ClockSelection);
 80057ce:	4b16      	ldr	r3, [pc, #88]	; (8005828 <HAL_RCCEx_PeriphCLKConfig+0x224>)
 80057d0:	6cdb      	ldr	r3, [r3, #76]	; 0x4c
 80057d2:	4a1c      	ldr	r2, [pc, #112]	; (8005844 <HAL_RCCEx_PeriphCLKConfig+0x240>)
 80057d4:	4013      	ands	r3, r2
 80057d6:	0019      	movs	r1, r3
 80057d8:	687b      	ldr	r3, [r7, #4]
 80057da:	68da      	ldr	r2, [r3, #12]
 80057dc:	4b12      	ldr	r3, [pc, #72]	; (8005828 <HAL_RCCEx_PeriphCLKConfig+0x224>)
 80057de:	430a      	orrs	r2, r1
 80057e0:	64da      	str	r2, [r3, #76]	; 0x4c
  }

  /*------------------------------ I2C1 Configuration ------------------------*/
  if(((PeriphClkInit->PeriphClockSelection) & RCC_PERIPHCLK_I2C1) == RCC_PERIPHCLK_I2C1)
 80057e2:	687b      	ldr	r3, [r7, #4]
 80057e4:	681b      	ldr	r3, [r3, #0]
 80057e6:	2208      	movs	r2, #8
 80057e8:	4013      	ands	r3, r2
 80057ea:	d009      	beq.n	8005800 <HAL_RCCEx_PeriphCLKConfig+0x1fc>
  {
    /* Check the parameters */
    assert_param(IS_RCC_I2C1CLKSOURCE(PeriphClkInit->I2c1ClockSelection));

    /* Configure the I2C1 clock source */
    __HAL_RCC_I2C1_CONFIG(PeriphClkInit->I2c1ClockSelection);
 80057ec:	4b0e      	ldr	r3, [pc, #56]	; (8005828 <HAL_RCCEx_PeriphCLKConfig+0x224>)
 80057ee:	6cdb      	ldr	r3, [r3, #76]	; 0x4c
 80057f0:	4a15      	ldr	r2, [pc, #84]	; (8005848 <HAL_RCCEx_PeriphCLKConfig+0x244>)
 80057f2:	4013      	ands	r3, r2
 80057f4:	0019      	movs	r1, r3
 80057f6:	687b      	ldr	r3, [r7, #4]
 80057f8:	691a      	ldr	r2, [r3, #16]
 80057fa:	4b0b      	ldr	r3, [pc, #44]	; (8005828 <HAL_RCCEx_PeriphCLKConfig+0x224>)
 80057fc:	430a      	orrs	r2, r1
 80057fe:	64da      	str	r2, [r3, #76]	; 0x4c
    __HAL_RCC_USB_CONFIG(PeriphClkInit->UsbClockSelection);
  }
#endif /* USB */

  /*---------------------------- LPTIM1 configuration ------------------------*/
  if(((PeriphClkInit->PeriphClockSelection) & RCC_PERIPHCLK_LPTIM1) == (RCC_PERIPHCLK_LPTIM1))
 8005800:	687b      	ldr	r3, [r7, #4]
 8005802:	681b      	ldr	r3, [r3, #0]
 8005804:	2280      	movs	r2, #128	; 0x80
 8005806:	4013      	ands	r3, r2
 8005808:	d009      	beq.n	800581e <HAL_RCCEx_PeriphCLKConfig+0x21a>
  {
    assert_param(IS_RCC_LPTIMCLK(PeriphClkInit->LptimClockSelection));
    __HAL_RCC_LPTIM1_CONFIG(PeriphClkInit->LptimClockSelection);
 800580a:	4b07      	ldr	r3, [pc, #28]	; (8005828 <HAL_RCCEx_PeriphCLKConfig+0x224>)
 800580c:	6cdb      	ldr	r3, [r3, #76]	; 0x4c
 800580e:	4a0f      	ldr	r2, [pc, #60]	; (800584c <HAL_RCCEx_PeriphCLKConfig+0x248>)
 8005810:	4013      	ands	r3, r2
 8005812:	0019      	movs	r1, r3
 8005814:	687b      	ldr	r3, [r7, #4]
 8005816:	695a      	ldr	r2, [r3, #20]
 8005818:	4b03      	ldr	r3, [pc, #12]	; (8005828 <HAL_RCCEx_PeriphCLKConfig+0x224>)
 800581a:	430a      	orrs	r2, r1
 800581c:	64da      	str	r2, [r3, #76]	; 0x4c
  }

  return HAL_OK;
 800581e:	2300      	movs	r3, #0
}
 8005820:	0018      	movs	r0, r3
 8005822:	46bd      	mov	sp, r7
 8005824:	b006      	add	sp, #24
 8005826:	bd80      	pop	{r7, pc}
 8005828:	40021000 	.word	0x40021000
 800582c:	40007000 	.word	0x40007000
 8005830:	fffcffff 	.word	0xfffcffff
 8005834:	fff7ffff 	.word	0xfff7ffff
 8005838:	00001388 	.word	0x00001388
 800583c:	ffcfffff 	.word	0xffcfffff
 8005840:	efffffff 	.word	0xefffffff
 8005844:	fffff3ff 	.word	0xfffff3ff
 8005848:	ffffcfff 	.word	0xffffcfff
 800584c:	fff3ffff 	.word	0xfff3ffff

08005850 <HAL_RTC_Init>:
  * @brief  Initialize the RTC peripheral
  * @param  hrtc RTC handle
  * @retval HAL status
  */
HAL_StatusTypeDef HAL_RTC_Init(RTC_HandleTypeDef *hrtc)
{
 8005850:	b580      	push	{r7, lr}
 8005852:	b082      	sub	sp, #8
 8005854:	af00      	add	r7, sp, #0
 8005856:	6078      	str	r0, [r7, #4]
  /* Check the RTC peripheral state */
  if (hrtc == NULL)
 8005858:	687b      	ldr	r3, [r7, #4]
 800585a:	2b00      	cmp	r3, #0
 800585c:	d101      	bne.n	8005862 <HAL_RTC_Init+0x12>
  {
    return HAL_ERROR;
 800585e:	2301      	movs	r3, #1
 8005860:	e08e      	b.n	8005980 <HAL_RTC_Init+0x130>
    {
      hrtc->MspDeInitCallback = HAL_RTC_MspDeInit;
    }
  }
#else
  if (hrtc->State == HAL_RTC_STATE_RESET)
 8005862:	687b      	ldr	r3, [r7, #4]
 8005864:	2221      	movs	r2, #33	; 0x21
 8005866:	5c9b      	ldrb	r3, [r3, r2]
 8005868:	b2db      	uxtb	r3, r3
 800586a:	2b00      	cmp	r3, #0
 800586c:	d107      	bne.n	800587e <HAL_RTC_Init+0x2e>
  {
    /* Allocate lock resource and initialize it */
    hrtc->Lock = HAL_UNLOCKED;
 800586e:	687b      	ldr	r3, [r7, #4]
 8005870:	2220      	movs	r2, #32
 8005872:	2100      	movs	r1, #0
 8005874:	5499      	strb	r1, [r3, r2]

    /* Initialize RTC MSP */
    HAL_RTC_MspInit(hrtc);
 8005876:	687b      	ldr	r3, [r7, #4]
 8005878:	0018      	movs	r0, r3
 800587a:	f7fd f941 	bl	8002b00 <HAL_RTC_MspInit>
  }
#endif /* (USE_HAL_RTC_REGISTER_CALLBACKS) */

  /* Set RTC state */
  hrtc->State = HAL_RTC_STATE_BUSY;
 800587e:	687b      	ldr	r3, [r7, #4]
 8005880:	2221      	movs	r2, #33	; 0x21
 8005882:	2102      	movs	r1, #2
 8005884:	5499      	strb	r1, [r3, r2]

  /* Disable the write protection for RTC registers */
  __HAL_RTC_WRITEPROTECTION_DISABLE(hrtc);
 8005886:	687b      	ldr	r3, [r7, #4]
 8005888:	681b      	ldr	r3, [r3, #0]
 800588a:	22ca      	movs	r2, #202	; 0xca
 800588c:	625a      	str	r2, [r3, #36]	; 0x24
 800588e:	687b      	ldr	r3, [r7, #4]
 8005890:	681b      	ldr	r3, [r3, #0]
 8005892:	2253      	movs	r2, #83	; 0x53
 8005894:	625a      	str	r2, [r3, #36]	; 0x24

  /* Set Initialization mode */
  if (RTC_EnterInitMode(hrtc) != HAL_OK)
 8005896:	687b      	ldr	r3, [r7, #4]
 8005898:	0018      	movs	r0, r3
 800589a:	f000 f89e 	bl	80059da <RTC_EnterInitMode>
 800589e:	1e03      	subs	r3, r0, #0
 80058a0:	d009      	beq.n	80058b6 <HAL_RTC_Init+0x66>
  {
    /* Enable the write protection for RTC registers */
    __HAL_RTC_WRITEPROTECTION_ENABLE(hrtc);
 80058a2:	687b      	ldr	r3, [r7, #4]
 80058a4:	681b      	ldr	r3, [r3, #0]
 80058a6:	22ff      	movs	r2, #255	; 0xff
 80058a8:	625a      	str	r2, [r3, #36]	; 0x24

    /* Set RTC state */
    hrtc->State = HAL_RTC_STATE_ERROR;
 80058aa:	687b      	ldr	r3, [r7, #4]
 80058ac:	2221      	movs	r2, #33	; 0x21
 80058ae:	2104      	movs	r1, #4
 80058b0:	5499      	strb	r1, [r3, r2]

    return HAL_ERROR;
 80058b2:	2301      	movs	r3, #1
 80058b4:	e064      	b.n	8005980 <HAL_RTC_Init+0x130>
  }
  else
  {
    /* Clear RTC_CR FMT, OSEL and POL Bits */
    hrtc->Instance->CR &= ((uint32_t)~(RTC_CR_FMT | RTC_CR_OSEL | RTC_CR_POL));
 80058b6:	687b      	ldr	r3, [r7, #4]
 80058b8:	681b      	ldr	r3, [r3, #0]
 80058ba:	689a      	ldr	r2, [r3, #8]
 80058bc:	687b      	ldr	r3, [r7, #4]
 80058be:	681b      	ldr	r3, [r3, #0]
 80058c0:	4931      	ldr	r1, [pc, #196]	; (8005988 <HAL_RTC_Init+0x138>)
 80058c2:	400a      	ands	r2, r1
 80058c4:	609a      	str	r2, [r3, #8]
    /* Set RTC_CR register */
    hrtc->Instance->CR |= (uint32_t)(hrtc->Init.HourFormat | hrtc->Init.OutPut | hrtc->Init.OutPutPolarity);
 80058c6:	687b      	ldr	r3, [r7, #4]
 80058c8:	681b      	ldr	r3, [r3, #0]
 80058ca:	6899      	ldr	r1, [r3, #8]
 80058cc:	687b      	ldr	r3, [r7, #4]
 80058ce:	685a      	ldr	r2, [r3, #4]
 80058d0:	687b      	ldr	r3, [r7, #4]
 80058d2:	691b      	ldr	r3, [r3, #16]
 80058d4:	431a      	orrs	r2, r3
 80058d6:	687b      	ldr	r3, [r7, #4]
 80058d8:	699b      	ldr	r3, [r3, #24]
 80058da:	431a      	orrs	r2, r3
 80058dc:	687b      	ldr	r3, [r7, #4]
 80058de:	681b      	ldr	r3, [r3, #0]
 80058e0:	430a      	orrs	r2, r1
 80058e2:	609a      	str	r2, [r3, #8]

    /* Configure the RTC PRER */
    hrtc->Instance->PRER = (uint32_t)(hrtc->Init.SynchPrediv);
 80058e4:	687b      	ldr	r3, [r7, #4]
 80058e6:	681b      	ldr	r3, [r3, #0]
 80058e8:	687a      	ldr	r2, [r7, #4]
 80058ea:	68d2      	ldr	r2, [r2, #12]
 80058ec:	611a      	str	r2, [r3, #16]
    hrtc->Instance->PRER |= (uint32_t)(hrtc->Init.AsynchPrediv << 16U);
 80058ee:	687b      	ldr	r3, [r7, #4]
 80058f0:	681b      	ldr	r3, [r3, #0]
 80058f2:	6919      	ldr	r1, [r3, #16]
 80058f4:	687b      	ldr	r3, [r7, #4]
 80058f6:	689b      	ldr	r3, [r3, #8]
 80058f8:	041a      	lsls	r2, r3, #16
 80058fa:	687b      	ldr	r3, [r7, #4]
 80058fc:	681b      	ldr	r3, [r3, #0]
 80058fe:	430a      	orrs	r2, r1
 8005900:	611a      	str	r2, [r3, #16]

    /* Exit Initialization mode */
    hrtc->Instance->ISR &= ((uint32_t)~RTC_ISR_INIT);
 8005902:	687b      	ldr	r3, [r7, #4]
 8005904:	681b      	ldr	r3, [r3, #0]
 8005906:	68da      	ldr	r2, [r3, #12]
 8005908:	687b      	ldr	r3, [r7, #4]
 800590a:	681b      	ldr	r3, [r3, #0]
 800590c:	2180      	movs	r1, #128	; 0x80
 800590e:	438a      	bics	r2, r1
 8005910:	60da      	str	r2, [r3, #12]

    hrtc->Instance->OR &= (uint32_t)~(RTC_OR_ALARMOUTTYPE | RTC_OR_OUT_RMP);
 8005912:	687b      	ldr	r3, [r7, #4]
 8005914:	681b      	ldr	r3, [r3, #0]
 8005916:	6cda      	ldr	r2, [r3, #76]	; 0x4c
 8005918:	687b      	ldr	r3, [r7, #4]
 800591a:	681b      	ldr	r3, [r3, #0]
 800591c:	2103      	movs	r1, #3
 800591e:	438a      	bics	r2, r1
 8005920:	64da      	str	r2, [r3, #76]	; 0x4c
    hrtc->Instance->OR |= (uint32_t)(hrtc->Init.OutPutType | hrtc->Init.OutPutRemap);
 8005922:	687b      	ldr	r3, [r7, #4]
 8005924:	681b      	ldr	r3, [r3, #0]
 8005926:	6cd9      	ldr	r1, [r3, #76]	; 0x4c
 8005928:	687b      	ldr	r3, [r7, #4]
 800592a:	69da      	ldr	r2, [r3, #28]
 800592c:	687b      	ldr	r3, [r7, #4]
 800592e:	695b      	ldr	r3, [r3, #20]
 8005930:	431a      	orrs	r2, r3
 8005932:	687b      	ldr	r3, [r7, #4]
 8005934:	681b      	ldr	r3, [r3, #0]
 8005936:	430a      	orrs	r2, r1
 8005938:	64da      	str	r2, [r3, #76]	; 0x4c

    /* If CR_BYPSHAD bit = 0, wait for synchro else this check is not needed */
    if ((hrtc->Instance->CR & RTC_CR_BYPSHAD) == 0U)
 800593a:	687b      	ldr	r3, [r7, #4]
 800593c:	681b      	ldr	r3, [r3, #0]
 800593e:	689b      	ldr	r3, [r3, #8]
 8005940:	2220      	movs	r2, #32
 8005942:	4013      	ands	r3, r2
 8005944:	d113      	bne.n	800596e <HAL_RTC_Init+0x11e>
    {
      if (HAL_RTC_WaitForSynchro(hrtc) != HAL_OK)
 8005946:	687b      	ldr	r3, [r7, #4]
 8005948:	0018      	movs	r0, r3
 800594a:	f000 f81f 	bl	800598c <HAL_RTC_WaitForSynchro>
 800594e:	1e03      	subs	r3, r0, #0
 8005950:	d00d      	beq.n	800596e <HAL_RTC_Init+0x11e>
      {
        /* Enable the write protection for RTC registers */
        __HAL_RTC_WRITEPROTECTION_ENABLE(hrtc);
 8005952:	687b      	ldr	r3, [r7, #4]
 8005954:	681b      	ldr	r3, [r3, #0]
 8005956:	22ff      	movs	r2, #255	; 0xff
 8005958:	625a      	str	r2, [r3, #36]	; 0x24

        hrtc->State = HAL_RTC_STATE_ERROR;
 800595a:	687b      	ldr	r3, [r7, #4]
 800595c:	2221      	movs	r2, #33	; 0x21
 800595e:	2104      	movs	r1, #4
 8005960:	5499      	strb	r1, [r3, r2]

        /* Process Unlocked */
        __HAL_UNLOCK(hrtc);
 8005962:	687b      	ldr	r3, [r7, #4]
 8005964:	2220      	movs	r2, #32
 8005966:	2100      	movs	r1, #0
 8005968:	5499      	strb	r1, [r3, r2]

        return HAL_ERROR;
 800596a:	2301      	movs	r3, #1
 800596c:	e008      	b.n	8005980 <HAL_RTC_Init+0x130>
      }
    }

    /* Enable the write protection for RTC registers */
    __HAL_RTC_WRITEPROTECTION_ENABLE(hrtc);
 800596e:	687b      	ldr	r3, [r7, #4]
 8005970:	681b      	ldr	r3, [r3, #0]
 8005972:	22ff      	movs	r2, #255	; 0xff
 8005974:	625a      	str	r2, [r3, #36]	; 0x24

    /* Set RTC state */
    hrtc->State = HAL_RTC_STATE_READY;
 8005976:	687b      	ldr	r3, [r7, #4]
 8005978:	2221      	movs	r2, #33	; 0x21
 800597a:	2101      	movs	r1, #1
 800597c:	5499      	strb	r1, [r3, r2]

    return HAL_OK;
 800597e:	2300      	movs	r3, #0
  }
}
 8005980:	0018      	movs	r0, r3
 8005982:	46bd      	mov	sp, r7
 8005984:	b002      	add	sp, #8
 8005986:	bd80      	pop	{r7, pc}
 8005988:	ff8fffbf 	.word	0xff8fffbf

0800598c <HAL_RTC_WaitForSynchro>:
  *         correctly copied into the RTC_TR and RTC_DR shadow registers.
  * @param  hrtc RTC handle
  * @retval HAL status
  */
HAL_StatusTypeDef HAL_RTC_WaitForSynchro(RTC_HandleTypeDef *hrtc)
{
 800598c:	b580      	push	{r7, lr}
 800598e:	b084      	sub	sp, #16
 8005990:	af00      	add	r7, sp, #0
 8005992:	6078      	str	r0, [r7, #4]
  uint32_t tickstart;

  /* Clear RSF flag */
  hrtc->Instance->ISR &= (uint32_t)RTC_RSF_MASK;
 8005994:	687b      	ldr	r3, [r7, #4]
 8005996:	681b      	ldr	r3, [r3, #0]
 8005998:	68da      	ldr	r2, [r3, #12]
 800599a:	687b      	ldr	r3, [r7, #4]
 800599c:	681b      	ldr	r3, [r3, #0]
 800599e:	21a0      	movs	r1, #160	; 0xa0
 80059a0:	438a      	bics	r2, r1
 80059a2:	60da      	str	r2, [r3, #12]

  tickstart = HAL_GetTick();
 80059a4:	f7fd f9d4 	bl	8002d50 <HAL_GetTick>
 80059a8:	0003      	movs	r3, r0
 80059aa:	60fb      	str	r3, [r7, #12]

  /* Wait the registers to be synchronised */
  while ((hrtc->Instance->ISR & RTC_ISR_RSF) == 0U)
 80059ac:	e00a      	b.n	80059c4 <HAL_RTC_WaitForSynchro+0x38>
  {
    if ((HAL_GetTick() - tickstart) > RTC_TIMEOUT_VALUE)
 80059ae:	f7fd f9cf 	bl	8002d50 <HAL_GetTick>
 80059b2:	0002      	movs	r2, r0
 80059b4:	68fb      	ldr	r3, [r7, #12]
 80059b6:	1ad2      	subs	r2, r2, r3
 80059b8:	23fa      	movs	r3, #250	; 0xfa
 80059ba:	009b      	lsls	r3, r3, #2
 80059bc:	429a      	cmp	r2, r3
 80059be:	d901      	bls.n	80059c4 <HAL_RTC_WaitForSynchro+0x38>
    {
      return HAL_TIMEOUT;
 80059c0:	2303      	movs	r3, #3
 80059c2:	e006      	b.n	80059d2 <HAL_RTC_WaitForSynchro+0x46>
  while ((hrtc->Instance->ISR & RTC_ISR_RSF) == 0U)
 80059c4:	687b      	ldr	r3, [r7, #4]
 80059c6:	681b      	ldr	r3, [r3, #0]
 80059c8:	68db      	ldr	r3, [r3, #12]
 80059ca:	2220      	movs	r2, #32
 80059cc:	4013      	ands	r3, r2
 80059ce:	d0ee      	beq.n	80059ae <HAL_RTC_WaitForSynchro+0x22>
    }
  }

  return HAL_OK;
 80059d0:	2300      	movs	r3, #0
}
 80059d2:	0018      	movs	r0, r3
 80059d4:	46bd      	mov	sp, r7
 80059d6:	b004      	add	sp, #16
 80059d8:	bd80      	pop	{r7, pc}

080059da <RTC_EnterInitMode>:
  *         __HAL_RTC_WRITEPROTECTION_DISABLE() before calling this function.
  * @param  hrtc RTC handle
  * @retval HAL status
  */
HAL_StatusTypeDef RTC_EnterInitMode(RTC_HandleTypeDef *hrtc)
{
 80059da:	b580      	push	{r7, lr}
 80059dc:	b084      	sub	sp, #16
 80059de:	af00      	add	r7, sp, #0
 80059e0:	6078      	str	r0, [r7, #4]
  uint32_t tickstart;

  /* Check if the Initialization mode is set */
  if ((hrtc->Instance->ISR & RTC_ISR_INITF) == 0U)
 80059e2:	687b      	ldr	r3, [r7, #4]
 80059e4:	681b      	ldr	r3, [r3, #0]
 80059e6:	68db      	ldr	r3, [r3, #12]
 80059e8:	2240      	movs	r2, #64	; 0x40
 80059ea:	4013      	ands	r3, r2
 80059ec:	d11a      	bne.n	8005a24 <RTC_EnterInitMode+0x4a>
  {
    /* Set the Initialization mode */
    hrtc->Instance->ISR = (uint32_t)RTC_INIT_MASK;
 80059ee:	687b      	ldr	r3, [r7, #4]
 80059f0:	681b      	ldr	r3, [r3, #0]
 80059f2:	2201      	movs	r2, #1
 80059f4:	4252      	negs	r2, r2
 80059f6:	60da      	str	r2, [r3, #12]

    tickstart = HAL_GetTick();
 80059f8:	f7fd f9aa 	bl	8002d50 <HAL_GetTick>
 80059fc:	0003      	movs	r3, r0
 80059fe:	60fb      	str	r3, [r7, #12]
    /* Wait till RTC is in INIT state and if Time out is reached exit */
    while ((hrtc->Instance->ISR & RTC_ISR_INITF) == 0U)
 8005a00:	e00a      	b.n	8005a18 <RTC_EnterInitMode+0x3e>
    {
      if ((HAL_GetTick()  - tickstart) > RTC_TIMEOUT_VALUE)
 8005a02:	f7fd f9a5 	bl	8002d50 <HAL_GetTick>
 8005a06:	0002      	movs	r2, r0
 8005a08:	68fb      	ldr	r3, [r7, #12]
 8005a0a:	1ad2      	subs	r2, r2, r3
 8005a0c:	23fa      	movs	r3, #250	; 0xfa
 8005a0e:	009b      	lsls	r3, r3, #2
 8005a10:	429a      	cmp	r2, r3
 8005a12:	d901      	bls.n	8005a18 <RTC_EnterInitMode+0x3e>
      {
        return HAL_TIMEOUT;
 8005a14:	2303      	movs	r3, #3
 8005a16:	e006      	b.n	8005a26 <RTC_EnterInitMode+0x4c>
    while ((hrtc->Instance->ISR & RTC_ISR_INITF) == 0U)
 8005a18:	687b      	ldr	r3, [r7, #4]
 8005a1a:	681b      	ldr	r3, [r3, #0]
 8005a1c:	68db      	ldr	r3, [r3, #12]
 8005a1e:	2240      	movs	r2, #64	; 0x40
 8005a20:	4013      	ands	r3, r2
 8005a22:	d0ee      	beq.n	8005a02 <RTC_EnterInitMode+0x28>
      }
    }
  }

  return HAL_OK;
 8005a24:	2300      	movs	r3, #0
}
 8005a26:	0018      	movs	r0, r3
 8005a28:	46bd      	mov	sp, r7
 8005a2a:	b004      	add	sp, #16
 8005a2c:	bd80      	pop	{r7, pc}
	...

08005a30 <HAL_RTCEx_SetWakeUpTimer_IT>:
  * @param  WakeUpCounter Wake up counter
  * @param  WakeUpClock Wake up clock
  * @retval HAL status
  */
HAL_StatusTypeDef HAL_RTCEx_SetWakeUpTimer_IT(RTC_HandleTypeDef *hrtc, uint32_t WakeUpCounter, uint32_t WakeUpClock)
{
 8005a30:	b580      	push	{r7, lr}
 8005a32:	b086      	sub	sp, #24
 8005a34:	af00      	add	r7, sp, #0
 8005a36:	60f8      	str	r0, [r7, #12]
 8005a38:	60b9      	str	r1, [r7, #8]
 8005a3a:	607a      	str	r2, [r7, #4]
  /* Check the parameters */
  assert_param(IS_RTC_WAKEUP_CLOCK(WakeUpClock));
  assert_param(IS_RTC_WAKEUP_COUNTER(WakeUpCounter));

  /* Process Locked */
  __HAL_LOCK(hrtc);
 8005a3c:	68fb      	ldr	r3, [r7, #12]
 8005a3e:	2220      	movs	r2, #32
 8005a40:	5c9b      	ldrb	r3, [r3, r2]
 8005a42:	2b01      	cmp	r3, #1
 8005a44:	d101      	bne.n	8005a4a <HAL_RTCEx_SetWakeUpTimer_IT+0x1a>
 8005a46:	2302      	movs	r3, #2
 8005a48:	e0ad      	b.n	8005ba6 <HAL_RTCEx_SetWakeUpTimer_IT+0x176>
 8005a4a:	68fb      	ldr	r3, [r7, #12]
 8005a4c:	2220      	movs	r2, #32
 8005a4e:	2101      	movs	r1, #1
 8005a50:	5499      	strb	r1, [r3, r2]

  hrtc->State = HAL_RTC_STATE_BUSY;
 8005a52:	68fb      	ldr	r3, [r7, #12]
 8005a54:	2221      	movs	r2, #33	; 0x21
 8005a56:	2102      	movs	r1, #2
 8005a58:	5499      	strb	r1, [r3, r2]

  /* Disable the write protection for RTC registers */
  __HAL_RTC_WRITEPROTECTION_DISABLE(hrtc);
 8005a5a:	68fb      	ldr	r3, [r7, #12]
 8005a5c:	681b      	ldr	r3, [r3, #0]
 8005a5e:	22ca      	movs	r2, #202	; 0xca
 8005a60:	625a      	str	r2, [r3, #36]	; 0x24
 8005a62:	68fb      	ldr	r3, [r7, #12]
 8005a64:	681b      	ldr	r3, [r3, #0]
 8005a66:	2253      	movs	r2, #83	; 0x53
 8005a68:	625a      	str	r2, [r3, #36]	; 0x24

  /*Check RTC WUTWF flag is reset only when wake up timer enabled*/
  if ((hrtc->Instance->CR & RTC_CR_WUTE) != 0U)
 8005a6a:	68fb      	ldr	r3, [r7, #12]
 8005a6c:	681b      	ldr	r3, [r3, #0]
 8005a6e:	689a      	ldr	r2, [r3, #8]
 8005a70:	2380      	movs	r3, #128	; 0x80
 8005a72:	00db      	lsls	r3, r3, #3
 8005a74:	4013      	ands	r3, r2
 8005a76:	d021      	beq.n	8005abc <HAL_RTCEx_SetWakeUpTimer_IT+0x8c>
  {
    tickstart = HAL_GetTick();
 8005a78:	f7fd f96a 	bl	8002d50 <HAL_GetTick>
 8005a7c:	0003      	movs	r3, r0
 8005a7e:	617b      	str	r3, [r7, #20]

    /* Wait till RTC WUTWF flag is reset and if Time out is reached exit */
    while (__HAL_RTC_WAKEUPTIMER_GET_FLAG(hrtc, RTC_FLAG_WUTWF) == 1U)
 8005a80:	e016      	b.n	8005ab0 <HAL_RTCEx_SetWakeUpTimer_IT+0x80>
    {
      if ((HAL_GetTick() - tickstart) > RTC_TIMEOUT_VALUE)
 8005a82:	f7fd f965 	bl	8002d50 <HAL_GetTick>
 8005a86:	0002      	movs	r2, r0
 8005a88:	697b      	ldr	r3, [r7, #20]
 8005a8a:	1ad2      	subs	r2, r2, r3
 8005a8c:	23fa      	movs	r3, #250	; 0xfa
 8005a8e:	009b      	lsls	r3, r3, #2
 8005a90:	429a      	cmp	r2, r3
 8005a92:	d90d      	bls.n	8005ab0 <HAL_RTCEx_SetWakeUpTimer_IT+0x80>
      {
        /* Enable the write protection for RTC registers */
        __HAL_RTC_WRITEPROTECTION_ENABLE(hrtc);
 8005a94:	68fb      	ldr	r3, [r7, #12]
 8005a96:	681b      	ldr	r3, [r3, #0]
 8005a98:	22ff      	movs	r2, #255	; 0xff
 8005a9a:	625a      	str	r2, [r3, #36]	; 0x24

        hrtc->State = HAL_RTC_STATE_TIMEOUT;
 8005a9c:	68fb      	ldr	r3, [r7, #12]
 8005a9e:	2221      	movs	r2, #33	; 0x21
 8005aa0:	2103      	movs	r1, #3
 8005aa2:	5499      	strb	r1, [r3, r2]

        /* Process Unlocked */
        __HAL_UNLOCK(hrtc);
 8005aa4:	68fb      	ldr	r3, [r7, #12]
 8005aa6:	2220      	movs	r2, #32
 8005aa8:	2100      	movs	r1, #0
 8005aaa:	5499      	strb	r1, [r3, r2]

        return HAL_TIMEOUT;
 8005aac:	2303      	movs	r3, #3
 8005aae:	e07a      	b.n	8005ba6 <HAL_RTCEx_SetWakeUpTimer_IT+0x176>
    while (__HAL_RTC_WAKEUPTIMER_GET_FLAG(hrtc, RTC_FLAG_WUTWF) == 1U)
 8005ab0:	68fb      	ldr	r3, [r7, #12]
 8005ab2:	681b      	ldr	r3, [r3, #0]
 8005ab4:	68db      	ldr	r3, [r3, #12]
 8005ab6:	2204      	movs	r2, #4
 8005ab8:	4013      	ands	r3, r2
 8005aba:	d1e2      	bne.n	8005a82 <HAL_RTCEx_SetWakeUpTimer_IT+0x52>
      }
    }
  }
  /* Disable the Wake-Up timer */
  __HAL_RTC_WAKEUPTIMER_DISABLE(hrtc);
 8005abc:	68fb      	ldr	r3, [r7, #12]
 8005abe:	681b      	ldr	r3, [r3, #0]
 8005ac0:	689a      	ldr	r2, [r3, #8]
 8005ac2:	68fb      	ldr	r3, [r7, #12]
 8005ac4:	681b      	ldr	r3, [r3, #0]
 8005ac6:	493a      	ldr	r1, [pc, #232]	; (8005bb0 <HAL_RTCEx_SetWakeUpTimer_IT+0x180>)
 8005ac8:	400a      	ands	r2, r1
 8005aca:	609a      	str	r2, [r3, #8]

  /* Clear flag Wake-Up */
  __HAL_RTC_WAKEUPTIMER_CLEAR_FLAG(hrtc, RTC_FLAG_WUTF);
 8005acc:	68fb      	ldr	r3, [r7, #12]
 8005ace:	681b      	ldr	r3, [r3, #0]
 8005ad0:	68db      	ldr	r3, [r3, #12]
 8005ad2:	22ff      	movs	r2, #255	; 0xff
 8005ad4:	401a      	ands	r2, r3
 8005ad6:	68fb      	ldr	r3, [r7, #12]
 8005ad8:	681b      	ldr	r3, [r3, #0]
 8005ada:	4936      	ldr	r1, [pc, #216]	; (8005bb4 <HAL_RTCEx_SetWakeUpTimer_IT+0x184>)
 8005adc:	430a      	orrs	r2, r1
 8005ade:	60da      	str	r2, [r3, #12]

  tickstart = HAL_GetTick();
 8005ae0:	f7fd f936 	bl	8002d50 <HAL_GetTick>
 8005ae4:	0003      	movs	r3, r0
 8005ae6:	617b      	str	r3, [r7, #20]

  /* Wait till RTC WUTWF flag is set and if Time out is reached exit */
  while (__HAL_RTC_WAKEUPTIMER_GET_FLAG(hrtc, RTC_FLAG_WUTWF) == 0U)
 8005ae8:	e016      	b.n	8005b18 <HAL_RTCEx_SetWakeUpTimer_IT+0xe8>
  {
    if ((HAL_GetTick() - tickstart) > RTC_TIMEOUT_VALUE)
 8005aea:	f7fd f931 	bl	8002d50 <HAL_GetTick>
 8005aee:	0002      	movs	r2, r0
 8005af0:	697b      	ldr	r3, [r7, #20]
 8005af2:	1ad2      	subs	r2, r2, r3
 8005af4:	23fa      	movs	r3, #250	; 0xfa
 8005af6:	009b      	lsls	r3, r3, #2
 8005af8:	429a      	cmp	r2, r3
 8005afa:	d90d      	bls.n	8005b18 <HAL_RTCEx_SetWakeUpTimer_IT+0xe8>
    {
      /* Enable the write protection for RTC registers */
      __HAL_RTC_WRITEPROTECTION_ENABLE(hrtc);
 8005afc:	68fb      	ldr	r3, [r7, #12]
 8005afe:	681b      	ldr	r3, [r3, #0]
 8005b00:	22ff      	movs	r2, #255	; 0xff
 8005b02:	625a      	str	r2, [r3, #36]	; 0x24

      hrtc->State = HAL_RTC_STATE_TIMEOUT;
 8005b04:	68fb      	ldr	r3, [r7, #12]
 8005b06:	2221      	movs	r2, #33	; 0x21
 8005b08:	2103      	movs	r1, #3
 8005b0a:	5499      	strb	r1, [r3, r2]

      /* Process Unlocked */
      __HAL_UNLOCK(hrtc);
 8005b0c:	68fb      	ldr	r3, [r7, #12]
 8005b0e:	2220      	movs	r2, #32
 8005b10:	2100      	movs	r1, #0
 8005b12:	5499      	strb	r1, [r3, r2]

      return HAL_TIMEOUT;
 8005b14:	2303      	movs	r3, #3
 8005b16:	e046      	b.n	8005ba6 <HAL_RTCEx_SetWakeUpTimer_IT+0x176>
  while (__HAL_RTC_WAKEUPTIMER_GET_FLAG(hrtc, RTC_FLAG_WUTWF) == 0U)
 8005b18:	68fb      	ldr	r3, [r7, #12]
 8005b1a:	681b      	ldr	r3, [r3, #0]
 8005b1c:	68db      	ldr	r3, [r3, #12]
 8005b1e:	2204      	movs	r2, #4
 8005b20:	4013      	ands	r3, r2
 8005b22:	d0e2      	beq.n	8005aea <HAL_RTCEx_SetWakeUpTimer_IT+0xba>
    }
  }

  /* Configure the Wakeup Timer counter */
  hrtc->Instance->WUTR = (uint32_t)WakeUpCounter;
 8005b24:	68fb      	ldr	r3, [r7, #12]
 8005b26:	681b      	ldr	r3, [r3, #0]
 8005b28:	68ba      	ldr	r2, [r7, #8]
 8005b2a:	615a      	str	r2, [r3, #20]

  /* Clear the Wakeup Timer clock source bits in CR register */
  hrtc->Instance->CR &= (uint32_t)~RTC_CR_WUCKSEL;
 8005b2c:	68fb      	ldr	r3, [r7, #12]
 8005b2e:	681b      	ldr	r3, [r3, #0]
 8005b30:	689a      	ldr	r2, [r3, #8]
 8005b32:	68fb      	ldr	r3, [r7, #12]
 8005b34:	681b      	ldr	r3, [r3, #0]
 8005b36:	2107      	movs	r1, #7
 8005b38:	438a      	bics	r2, r1
 8005b3a:	609a      	str	r2, [r3, #8]

  /* Configure the clock source */
  hrtc->Instance->CR |= (uint32_t)WakeUpClock;
 8005b3c:	68fb      	ldr	r3, [r7, #12]
 8005b3e:	681b      	ldr	r3, [r3, #0]
 8005b40:	6899      	ldr	r1, [r3, #8]
 8005b42:	68fb      	ldr	r3, [r7, #12]
 8005b44:	681b      	ldr	r3, [r3, #0]
 8005b46:	687a      	ldr	r2, [r7, #4]
 8005b48:	430a      	orrs	r2, r1
 8005b4a:	609a      	str	r2, [r3, #8]

  /* RTC WakeUpTimer Interrupt Configuration: EXTI configuration */
  __HAL_RTC_WAKEUPTIMER_EXTI_ENABLE_IT();
 8005b4c:	4b1a      	ldr	r3, [pc, #104]	; (8005bb8 <HAL_RTCEx_SetWakeUpTimer_IT+0x188>)
 8005b4e:	681a      	ldr	r2, [r3, #0]
 8005b50:	4b19      	ldr	r3, [pc, #100]	; (8005bb8 <HAL_RTCEx_SetWakeUpTimer_IT+0x188>)
 8005b52:	2180      	movs	r1, #128	; 0x80
 8005b54:	0349      	lsls	r1, r1, #13
 8005b56:	430a      	orrs	r2, r1
 8005b58:	601a      	str	r2, [r3, #0]

  __HAL_RTC_WAKEUPTIMER_EXTI_ENABLE_RISING_EDGE();
 8005b5a:	4b17      	ldr	r3, [pc, #92]	; (8005bb8 <HAL_RTCEx_SetWakeUpTimer_IT+0x188>)
 8005b5c:	689a      	ldr	r2, [r3, #8]
 8005b5e:	4b16      	ldr	r3, [pc, #88]	; (8005bb8 <HAL_RTCEx_SetWakeUpTimer_IT+0x188>)
 8005b60:	2180      	movs	r1, #128	; 0x80
 8005b62:	0349      	lsls	r1, r1, #13
 8005b64:	430a      	orrs	r2, r1
 8005b66:	609a      	str	r2, [r3, #8]

  /* Configure the Interrupt in the RTC_CR register */
  __HAL_RTC_WAKEUPTIMER_ENABLE_IT(hrtc, RTC_IT_WUT);
 8005b68:	68fb      	ldr	r3, [r7, #12]
 8005b6a:	681b      	ldr	r3, [r3, #0]
 8005b6c:	689a      	ldr	r2, [r3, #8]
 8005b6e:	68fb      	ldr	r3, [r7, #12]
 8005b70:	681b      	ldr	r3, [r3, #0]
 8005b72:	2180      	movs	r1, #128	; 0x80
 8005b74:	01c9      	lsls	r1, r1, #7
 8005b76:	430a      	orrs	r2, r1
 8005b78:	609a      	str	r2, [r3, #8]

  /* Enable the Wakeup Timer */
  __HAL_RTC_WAKEUPTIMER_ENABLE(hrtc);
 8005b7a:	68fb      	ldr	r3, [r7, #12]
 8005b7c:	681b      	ldr	r3, [r3, #0]
 8005b7e:	689a      	ldr	r2, [r3, #8]
 8005b80:	68fb      	ldr	r3, [r7, #12]
 8005b82:	681b      	ldr	r3, [r3, #0]
 8005b84:	2180      	movs	r1, #128	; 0x80
 8005b86:	00c9      	lsls	r1, r1, #3
 8005b88:	430a      	orrs	r2, r1
 8005b8a:	609a      	str	r2, [r3, #8]

  /* Enable the write protection for RTC registers */
  __HAL_RTC_WRITEPROTECTION_ENABLE(hrtc);
 8005b8c:	68fb      	ldr	r3, [r7, #12]
 8005b8e:	681b      	ldr	r3, [r3, #0]
 8005b90:	22ff      	movs	r2, #255	; 0xff
 8005b92:	625a      	str	r2, [r3, #36]	; 0x24

  hrtc->State = HAL_RTC_STATE_READY;
 8005b94:	68fb      	ldr	r3, [r7, #12]
 8005b96:	2221      	movs	r2, #33	; 0x21
 8005b98:	2101      	movs	r1, #1
 8005b9a:	5499      	strb	r1, [r3, r2]

  /* Process Unlocked */
  __HAL_UNLOCK(hrtc);
 8005b9c:	68fb      	ldr	r3, [r7, #12]
 8005b9e:	2220      	movs	r2, #32
 8005ba0:	2100      	movs	r1, #0
 8005ba2:	5499      	strb	r1, [r3, r2]

  return HAL_OK;
 8005ba4:	2300      	movs	r3, #0
}
 8005ba6:	0018      	movs	r0, r3
 8005ba8:	46bd      	mov	sp, r7
 8005baa:	b006      	add	sp, #24
 8005bac:	bd80      	pop	{r7, pc}
 8005bae:	46c0      	nop			; (mov r8, r8)
 8005bb0:	fffffbff 	.word	0xfffffbff
 8005bb4:	fffffb7f 	.word	0xfffffb7f
 8005bb8:	40010400 	.word	0x40010400

08005bbc <HAL_RTCEx_DeactivateWakeUpTimer>:
  * @brief  Deactivate wake up timer counter.
  * @param  hrtc RTC handle
  * @retval HAL status
  */
HAL_StatusTypeDef HAL_RTCEx_DeactivateWakeUpTimer(RTC_HandleTypeDef *hrtc)
{
 8005bbc:	b580      	push	{r7, lr}
 8005bbe:	b084      	sub	sp, #16
 8005bc0:	af00      	add	r7, sp, #0
 8005bc2:	6078      	str	r0, [r7, #4]
  uint32_t tickstart;

  /* Process Locked */
  __HAL_LOCK(hrtc);
 8005bc4:	687b      	ldr	r3, [r7, #4]
 8005bc6:	2220      	movs	r2, #32
 8005bc8:	5c9b      	ldrb	r3, [r3, r2]
 8005bca:	2b01      	cmp	r3, #1
 8005bcc:	d101      	bne.n	8005bd2 <HAL_RTCEx_DeactivateWakeUpTimer+0x16>
 8005bce:	2302      	movs	r3, #2
 8005bd0:	e04e      	b.n	8005c70 <HAL_RTCEx_DeactivateWakeUpTimer+0xb4>
 8005bd2:	687b      	ldr	r3, [r7, #4]
 8005bd4:	2220      	movs	r2, #32
 8005bd6:	2101      	movs	r1, #1
 8005bd8:	5499      	strb	r1, [r3, r2]

  hrtc->State = HAL_RTC_STATE_BUSY;
 8005bda:	687b      	ldr	r3, [r7, #4]
 8005bdc:	2221      	movs	r2, #33	; 0x21
 8005bde:	2102      	movs	r1, #2
 8005be0:	5499      	strb	r1, [r3, r2]

  /* Disable the write protection for RTC registers */
  __HAL_RTC_WRITEPROTECTION_DISABLE(hrtc);
 8005be2:	687b      	ldr	r3, [r7, #4]
 8005be4:	681b      	ldr	r3, [r3, #0]
 8005be6:	22ca      	movs	r2, #202	; 0xca
 8005be8:	625a      	str	r2, [r3, #36]	; 0x24
 8005bea:	687b      	ldr	r3, [r7, #4]
 8005bec:	681b      	ldr	r3, [r3, #0]
 8005bee:	2253      	movs	r2, #83	; 0x53
 8005bf0:	625a      	str	r2, [r3, #36]	; 0x24

  /* Disable the Wakeup Timer */
  __HAL_RTC_WAKEUPTIMER_DISABLE(hrtc);
 8005bf2:	687b      	ldr	r3, [r7, #4]
 8005bf4:	681b      	ldr	r3, [r3, #0]
 8005bf6:	689a      	ldr	r2, [r3, #8]
 8005bf8:	687b      	ldr	r3, [r7, #4]
 8005bfa:	681b      	ldr	r3, [r3, #0]
 8005bfc:	491e      	ldr	r1, [pc, #120]	; (8005c78 <HAL_RTCEx_DeactivateWakeUpTimer+0xbc>)
 8005bfe:	400a      	ands	r2, r1
 8005c00:	609a      	str	r2, [r3, #8]

  /* In case of interrupt mode is used, the interrupt source must disabled */
  __HAL_RTC_WAKEUPTIMER_DISABLE_IT(hrtc, RTC_IT_WUT);
 8005c02:	687b      	ldr	r3, [r7, #4]
 8005c04:	681b      	ldr	r3, [r3, #0]
 8005c06:	689a      	ldr	r2, [r3, #8]
 8005c08:	687b      	ldr	r3, [r7, #4]
 8005c0a:	681b      	ldr	r3, [r3, #0]
 8005c0c:	491b      	ldr	r1, [pc, #108]	; (8005c7c <HAL_RTCEx_DeactivateWakeUpTimer+0xc0>)
 8005c0e:	400a      	ands	r2, r1
 8005c10:	609a      	str	r2, [r3, #8]

  tickstart = HAL_GetTick();
 8005c12:	f7fd f89d 	bl	8002d50 <HAL_GetTick>
 8005c16:	0003      	movs	r3, r0
 8005c18:	60fb      	str	r3, [r7, #12]
  /* Wait till RTC WUTWF flag is set and if Time out is reached exit */
  while (__HAL_RTC_WAKEUPTIMER_GET_FLAG(hrtc, RTC_FLAG_WUTWF) == 0U)
 8005c1a:	e016      	b.n	8005c4a <HAL_RTCEx_DeactivateWakeUpTimer+0x8e>
  {
    if ((HAL_GetTick() - tickstart) > RTC_TIMEOUT_VALUE)
 8005c1c:	f7fd f898 	bl	8002d50 <HAL_GetTick>
 8005c20:	0002      	movs	r2, r0
 8005c22:	68fb      	ldr	r3, [r7, #12]
 8005c24:	1ad2      	subs	r2, r2, r3
 8005c26:	23fa      	movs	r3, #250	; 0xfa
 8005c28:	009b      	lsls	r3, r3, #2
 8005c2a:	429a      	cmp	r2, r3
 8005c2c:	d90d      	bls.n	8005c4a <HAL_RTCEx_DeactivateWakeUpTimer+0x8e>
    {
      /* Enable the write protection for RTC registers */
      __HAL_RTC_WRITEPROTECTION_ENABLE(hrtc);
 8005c2e:	687b      	ldr	r3, [r7, #4]
 8005c30:	681b      	ldr	r3, [r3, #0]
 8005c32:	22ff      	movs	r2, #255	; 0xff
 8005c34:	625a      	str	r2, [r3, #36]	; 0x24

      hrtc->State = HAL_RTC_STATE_TIMEOUT;
 8005c36:	687b      	ldr	r3, [r7, #4]
 8005c38:	2221      	movs	r2, #33	; 0x21
 8005c3a:	2103      	movs	r1, #3
 8005c3c:	5499      	strb	r1, [r3, r2]

      /* Process Unlocked */
      __HAL_UNLOCK(hrtc);
 8005c3e:	687b      	ldr	r3, [r7, #4]
 8005c40:	2220      	movs	r2, #32
 8005c42:	2100      	movs	r1, #0
 8005c44:	5499      	strb	r1, [r3, r2]

      return HAL_TIMEOUT;
 8005c46:	2303      	movs	r3, #3
 8005c48:	e012      	b.n	8005c70 <HAL_RTCEx_DeactivateWakeUpTimer+0xb4>
  while (__HAL_RTC_WAKEUPTIMER_GET_FLAG(hrtc, RTC_FLAG_WUTWF) == 0U)
 8005c4a:	687b      	ldr	r3, [r7, #4]
 8005c4c:	681b      	ldr	r3, [r3, #0]
 8005c4e:	68db      	ldr	r3, [r3, #12]
 8005c50:	2204      	movs	r2, #4
 8005c52:	4013      	ands	r3, r2
 8005c54:	d0e2      	beq.n	8005c1c <HAL_RTCEx_DeactivateWakeUpTimer+0x60>
    }
  }

  /* Enable the write protection for RTC registers */
  __HAL_RTC_WRITEPROTECTION_ENABLE(hrtc);
 8005c56:	687b      	ldr	r3, [r7, #4]
 8005c58:	681b      	ldr	r3, [r3, #0]
 8005c5a:	22ff      	movs	r2, #255	; 0xff
 8005c5c:	625a      	str	r2, [r3, #36]	; 0x24

  hrtc->State = HAL_RTC_STATE_READY;
 8005c5e:	687b      	ldr	r3, [r7, #4]
 8005c60:	2221      	movs	r2, #33	; 0x21
 8005c62:	2101      	movs	r1, #1
 8005c64:	5499      	strb	r1, [r3, r2]

  /* Process Unlocked */
  __HAL_UNLOCK(hrtc);
 8005c66:	687b      	ldr	r3, [r7, #4]
 8005c68:	2220      	movs	r2, #32
 8005c6a:	2100      	movs	r1, #0
 8005c6c:	5499      	strb	r1, [r3, r2]

  return HAL_OK;
 8005c6e:	2300      	movs	r3, #0
}
 8005c70:	0018      	movs	r0, r3
 8005c72:	46bd      	mov	sp, r7
 8005c74:	b004      	add	sp, #16
 8005c76:	bd80      	pop	{r7, pc}
 8005c78:	fffffbff 	.word	0xfffffbff
 8005c7c:	ffffbfff 	.word	0xffffbfff

08005c80 <HAL_RTCEx_WakeUpTimerIRQHandler>:
  * @brief  Handle Wake Up Timer interrupt request.
  * @param  hrtc RTC handle
  * @retval None
  */
void HAL_RTCEx_WakeUpTimerIRQHandler(RTC_HandleTypeDef *hrtc)
{
 8005c80:	b580      	push	{r7, lr}
 8005c82:	b082      	sub	sp, #8
 8005c84:	af00      	add	r7, sp, #0
 8005c86:	6078      	str	r0, [r7, #4]
  /* Get the pending status of the WAKEUPTIMER Interrupt */
  if (__HAL_RTC_WAKEUPTIMER_GET_FLAG(hrtc, RTC_FLAG_WUTF) != 0U)
 8005c88:	687b      	ldr	r3, [r7, #4]
 8005c8a:	681b      	ldr	r3, [r3, #0]
 8005c8c:	68da      	ldr	r2, [r3, #12]
 8005c8e:	2380      	movs	r3, #128	; 0x80
 8005c90:	00db      	lsls	r3, r3, #3
 8005c92:	4013      	ands	r3, r2
 8005c94:	d00d      	beq.n	8005cb2 <HAL_RTCEx_WakeUpTimerIRQHandler+0x32>
  {
    /* WAKEUPTIMER callback */
#if (USE_HAL_RTC_REGISTER_CALLBACKS == 1)
    hrtc->WakeUpTimerEventCallback(hrtc);
#else
    HAL_RTCEx_WakeUpTimerEventCallback(hrtc);
 8005c96:	687b      	ldr	r3, [r7, #4]
 8005c98:	0018      	movs	r0, r3
 8005c9a:	f000 f81b 	bl	8005cd4 <HAL_RTCEx_WakeUpTimerEventCallback>
#endif /* USE_HAL_RTC_REGISTER_CALLBACKS */

    /* Clear the WAKEUPTIMER interrupt pending bit */
    __HAL_RTC_WAKEUPTIMER_CLEAR_FLAG(hrtc, RTC_FLAG_WUTF);
 8005c9e:	687b      	ldr	r3, [r7, #4]
 8005ca0:	681b      	ldr	r3, [r3, #0]
 8005ca2:	68db      	ldr	r3, [r3, #12]
 8005ca4:	22ff      	movs	r2, #255	; 0xff
 8005ca6:	401a      	ands	r2, r3
 8005ca8:	687b      	ldr	r3, [r7, #4]
 8005caa:	681b      	ldr	r3, [r3, #0]
 8005cac:	4907      	ldr	r1, [pc, #28]	; (8005ccc <HAL_RTCEx_WakeUpTimerIRQHandler+0x4c>)
 8005cae:	430a      	orrs	r2, r1
 8005cb0:	60da      	str	r2, [r3, #12]
  }

  /* Clear the EXTI's line Flag for RTC WakeUpTimer */
  __HAL_RTC_WAKEUPTIMER_EXTI_CLEAR_FLAG();
 8005cb2:	4b07      	ldr	r3, [pc, #28]	; (8005cd0 <HAL_RTCEx_WakeUpTimerIRQHandler+0x50>)
 8005cb4:	2280      	movs	r2, #128	; 0x80
 8005cb6:	0352      	lsls	r2, r2, #13
 8005cb8:	615a      	str	r2, [r3, #20]

  /* Change RTC state */
  hrtc->State = HAL_RTC_STATE_READY;
 8005cba:	687b      	ldr	r3, [r7, #4]
 8005cbc:	2221      	movs	r2, #33	; 0x21
 8005cbe:	2101      	movs	r1, #1
 8005cc0:	5499      	strb	r1, [r3, r2]
}
 8005cc2:	46c0      	nop			; (mov r8, r8)
 8005cc4:	46bd      	mov	sp, r7
 8005cc6:	b002      	add	sp, #8
 8005cc8:	bd80      	pop	{r7, pc}
 8005cca:	46c0      	nop			; (mov r8, r8)
 8005ccc:	fffffb7f 	.word	0xfffffb7f
 8005cd0:	40010400 	.word	0x40010400

08005cd4 <HAL_RTCEx_WakeUpTimerEventCallback>:
  * @brief  Wake Up Timer callback.
  * @param  hrtc RTC handle
  * @retval None
  */
__weak void HAL_RTCEx_WakeUpTimerEventCallback(RTC_HandleTypeDef *hrtc)
{
 8005cd4:	b580      	push	{r7, lr}
 8005cd6:	b082      	sub	sp, #8
 8005cd8:	af00      	add	r7, sp, #0
 8005cda:	6078      	str	r0, [r7, #4]
  UNUSED(hrtc);

  /* NOTE : This function should not be modified, when the callback is needed,
            the HAL_RTCEx_WakeUpTimerEventCallback could be implemented in the user file
   */
}
 8005cdc:	46c0      	nop			; (mov r8, r8)
 8005cde:	46bd      	mov	sp, r7
 8005ce0:	b002      	add	sp, #8
 8005ce2:	bd80      	pop	{r7, pc}

08005ce4 <HAL_UART_Init>:
  *        parameters in the UART_InitTypeDef and initialize the associated handle.
  * @param huart UART handle.
  * @retval HAL status
  */
HAL_StatusTypeDef HAL_UART_Init(UART_HandleTypeDef *huart)
{
 8005ce4:	b580      	push	{r7, lr}
 8005ce6:	b082      	sub	sp, #8
 8005ce8:	af00      	add	r7, sp, #0
 8005cea:	6078      	str	r0, [r7, #4]
  /* Check the UART handle allocation */
  if (huart == NULL)
 8005cec:	687b      	ldr	r3, [r7, #4]
 8005cee:	2b00      	cmp	r3, #0
 8005cf0:	d101      	bne.n	8005cf6 <HAL_UART_Init+0x12>
  {
    return HAL_ERROR;
 8005cf2:	2301      	movs	r3, #1
 8005cf4:	e044      	b.n	8005d80 <HAL_UART_Init+0x9c>
  {
    /* Check the parameters */
    assert_param((IS_UART_INSTANCE(huart->Instance)) || (IS_LPUART_INSTANCE(huart->Instance)));
  }

  if (huart->gState == HAL_UART_STATE_RESET)
 8005cf6:	687b      	ldr	r3, [r7, #4]
 8005cf8:	6f9b      	ldr	r3, [r3, #120]	; 0x78
 8005cfa:	2b00      	cmp	r3, #0
 8005cfc:	d107      	bne.n	8005d0e <HAL_UART_Init+0x2a>
  {
    /* Allocate lock resource and initialize it */
    huart->Lock = HAL_UNLOCKED;
 8005cfe:	687b      	ldr	r3, [r7, #4]
 8005d00:	2274      	movs	r2, #116	; 0x74
 8005d02:	2100      	movs	r1, #0
 8005d04:	5499      	strb	r1, [r3, r2]

    /* Init the low level hardware */
    huart->MspInitCallback(huart);
#else
    /* Init the low level hardware : GPIO, CLOCK */
    HAL_UART_MspInit(huart);
 8005d06:	687b      	ldr	r3, [r7, #4]
 8005d08:	0018      	movs	r0, r3
 8005d0a:	f7fc fe67 	bl	80029dc <HAL_UART_MspInit>
#endif /* (USE_HAL_UART_REGISTER_CALLBACKS) */
  }

  huart->gState = HAL_UART_STATE_BUSY;
 8005d0e:	687b      	ldr	r3, [r7, #4]
 8005d10:	2224      	movs	r2, #36	; 0x24
 8005d12:	679a      	str	r2, [r3, #120]	; 0x78

  __HAL_UART_DISABLE(huart);
 8005d14:	687b      	ldr	r3, [r7, #4]
 8005d16:	681b      	ldr	r3, [r3, #0]
 8005d18:	681a      	ldr	r2, [r3, #0]
 8005d1a:	687b      	ldr	r3, [r7, #4]
 8005d1c:	681b      	ldr	r3, [r3, #0]
 8005d1e:	2101      	movs	r1, #1
 8005d20:	438a      	bics	r2, r1
 8005d22:	601a      	str	r2, [r3, #0]

  /* Set the UART Communication parameters */
  if (UART_SetConfig(huart) == HAL_ERROR)
 8005d24:	687b      	ldr	r3, [r7, #4]
 8005d26:	0018      	movs	r0, r3
 8005d28:	f000 f912 	bl	8005f50 <UART_SetConfig>
 8005d2c:	0003      	movs	r3, r0
 8005d2e:	2b01      	cmp	r3, #1
 8005d30:	d101      	bne.n	8005d36 <HAL_UART_Init+0x52>
  {
    return HAL_ERROR;
 8005d32:	2301      	movs	r3, #1
 8005d34:	e024      	b.n	8005d80 <HAL_UART_Init+0x9c>
  }

  if (huart->AdvancedInit.AdvFeatureInit != UART_ADVFEATURE_NO_INIT)
 8005d36:	687b      	ldr	r3, [r7, #4]
 8005d38:	6a5b      	ldr	r3, [r3, #36]	; 0x24
 8005d3a:	2b00      	cmp	r3, #0
 8005d3c:	d003      	beq.n	8005d46 <HAL_UART_Init+0x62>
  {
    UART_AdvFeatureConfig(huart);
 8005d3e:	687b      	ldr	r3, [r7, #4]
 8005d40:	0018      	movs	r0, r3
 8005d42:	f000 fb67 	bl	8006414 <UART_AdvFeatureConfig>
  }

  /* In asynchronous mode, the following bits must be kept cleared:
  - LINEN and CLKEN bits in the USART_CR2 register,
  - SCEN, HDSEL and IREN  bits in the USART_CR3 register.*/
  CLEAR_BIT(huart->Instance->CR2, (USART_CR2_LINEN | USART_CR2_CLKEN));
 8005d46:	687b      	ldr	r3, [r7, #4]
 8005d48:	681b      	ldr	r3, [r3, #0]
 8005d4a:	685a      	ldr	r2, [r3, #4]
 8005d4c:	687b      	ldr	r3, [r7, #4]
 8005d4e:	681b      	ldr	r3, [r3, #0]
 8005d50:	490d      	ldr	r1, [pc, #52]	; (8005d88 <HAL_UART_Init+0xa4>)
 8005d52:	400a      	ands	r2, r1
 8005d54:	605a      	str	r2, [r3, #4]
  CLEAR_BIT(huart->Instance->CR3, (USART_CR3_SCEN | USART_CR3_HDSEL | USART_CR3_IREN));
 8005d56:	687b      	ldr	r3, [r7, #4]
 8005d58:	681b      	ldr	r3, [r3, #0]
 8005d5a:	689a      	ldr	r2, [r3, #8]
 8005d5c:	687b      	ldr	r3, [r7, #4]
 8005d5e:	681b      	ldr	r3, [r3, #0]
 8005d60:	212a      	movs	r1, #42	; 0x2a
 8005d62:	438a      	bics	r2, r1
 8005d64:	609a      	str	r2, [r3, #8]

  __HAL_UART_ENABLE(huart);
 8005d66:	687b      	ldr	r3, [r7, #4]
 8005d68:	681b      	ldr	r3, [r3, #0]
 8005d6a:	681a      	ldr	r2, [r3, #0]
 8005d6c:	687b      	ldr	r3, [r7, #4]
 8005d6e:	681b      	ldr	r3, [r3, #0]
 8005d70:	2101      	movs	r1, #1
 8005d72:	430a      	orrs	r2, r1
 8005d74:	601a      	str	r2, [r3, #0]

  /* TEACK and/or REACK to check before moving huart->gState and huart->RxState to Ready */
  return (UART_CheckIdleState(huart));
 8005d76:	687b      	ldr	r3, [r7, #4]
 8005d78:	0018      	movs	r0, r3
 8005d7a:	f000 fbff 	bl	800657c <UART_CheckIdleState>
 8005d7e:	0003      	movs	r3, r0
}
 8005d80:	0018      	movs	r0, r3
 8005d82:	46bd      	mov	sp, r7
 8005d84:	b002      	add	sp, #8
 8005d86:	bd80      	pop	{r7, pc}
 8005d88:	ffffb7ff 	.word	0xffffb7ff

08005d8c <HAL_UART_DeInit>:
  * @brief DeInitialize the UART peripheral.
  * @param huart UART handle.
  * @retval HAL status
  */
HAL_StatusTypeDef HAL_UART_DeInit(UART_HandleTypeDef *huart)
{
 8005d8c:	b580      	push	{r7, lr}
 8005d8e:	b082      	sub	sp, #8
 8005d90:	af00      	add	r7, sp, #0
 8005d92:	6078      	str	r0, [r7, #4]
  /* Check the UART handle allocation */
  if (huart == NULL)
 8005d94:	687b      	ldr	r3, [r7, #4]
 8005d96:	2b00      	cmp	r3, #0
 8005d98:	d101      	bne.n	8005d9e <HAL_UART_DeInit+0x12>
  {
    return HAL_ERROR;
 8005d9a:	2301      	movs	r3, #1
 8005d9c:	e02c      	b.n	8005df8 <HAL_UART_DeInit+0x6c>
  }

  /* Check the parameters */
  assert_param((IS_UART_INSTANCE(huart->Instance)) || (IS_LPUART_INSTANCE(huart->Instance)));

  huart->gState = HAL_UART_STATE_BUSY;
 8005d9e:	687b      	ldr	r3, [r7, #4]
 8005da0:	2224      	movs	r2, #36	; 0x24
 8005da2:	679a      	str	r2, [r3, #120]	; 0x78

  __HAL_UART_DISABLE(huart);
 8005da4:	687b      	ldr	r3, [r7, #4]
 8005da6:	681b      	ldr	r3, [r3, #0]
 8005da8:	681a      	ldr	r2, [r3, #0]
 8005daa:	687b      	ldr	r3, [r7, #4]
 8005dac:	681b      	ldr	r3, [r3, #0]
 8005dae:	2101      	movs	r1, #1
 8005db0:	438a      	bics	r2, r1
 8005db2:	601a      	str	r2, [r3, #0]

  huart->Instance->CR1 = 0x0U;
 8005db4:	687b      	ldr	r3, [r7, #4]
 8005db6:	681b      	ldr	r3, [r3, #0]
 8005db8:	2200      	movs	r2, #0
 8005dba:	601a      	str	r2, [r3, #0]
  huart->Instance->CR2 = 0x0U;
 8005dbc:	687b      	ldr	r3, [r7, #4]
 8005dbe:	681b      	ldr	r3, [r3, #0]
 8005dc0:	2200      	movs	r2, #0
 8005dc2:	605a      	str	r2, [r3, #4]
  huart->Instance->CR3 = 0x0U;
 8005dc4:	687b      	ldr	r3, [r7, #4]
 8005dc6:	681b      	ldr	r3, [r3, #0]
 8005dc8:	2200      	movs	r2, #0
 8005dca:	609a      	str	r2, [r3, #8]
  }
  /* DeInit the low level hardware */
  huart->MspDeInitCallback(huart);
#else
  /* DeInit the low level hardware */
  HAL_UART_MspDeInit(huart);
 8005dcc:	687b      	ldr	r3, [r7, #4]
 8005dce:	0018      	movs	r0, r3
 8005dd0:	f7fc fe6c 	bl	8002aac <HAL_UART_MspDeInit>
#endif /* (USE_HAL_UART_REGISTER_CALLBACKS) */

  huart->ErrorCode = HAL_UART_ERROR_NONE;
 8005dd4:	687b      	ldr	r3, [r7, #4]
 8005dd6:	2280      	movs	r2, #128	; 0x80
 8005dd8:	2100      	movs	r1, #0
 8005dda:	5099      	str	r1, [r3, r2]
  huart->gState = HAL_UART_STATE_RESET;
 8005ddc:	687b      	ldr	r3, [r7, #4]
 8005dde:	2200      	movs	r2, #0
 8005de0:	679a      	str	r2, [r3, #120]	; 0x78
  huart->RxState = HAL_UART_STATE_RESET;
 8005de2:	687b      	ldr	r3, [r7, #4]
 8005de4:	2200      	movs	r2, #0
 8005de6:	67da      	str	r2, [r3, #124]	; 0x7c
  huart->ReceptionType = HAL_UART_RECEPTION_STANDARD;
 8005de8:	687b      	ldr	r3, [r7, #4]
 8005dea:	2200      	movs	r2, #0
 8005dec:	661a      	str	r2, [r3, #96]	; 0x60

  __HAL_UNLOCK(huart);
 8005dee:	687b      	ldr	r3, [r7, #4]
 8005df0:	2274      	movs	r2, #116	; 0x74
 8005df2:	2100      	movs	r1, #0
 8005df4:	5499      	strb	r1, [r3, r2]

  return HAL_OK;
 8005df6:	2300      	movs	r3, #0
}
 8005df8:	0018      	movs	r0, r3
 8005dfa:	46bd      	mov	sp, r7
 8005dfc:	b002      	add	sp, #8
 8005dfe:	bd80      	pop	{r7, pc}

08005e00 <HAL_UART_Transmit>:
  * @param Size    Amount of data elements (u8 or u16) to be sent.
  * @param Timeout Timeout duration.
  * @retval HAL status
  */
HAL_StatusTypeDef HAL_UART_Transmit(UART_HandleTypeDef *huart, uint8_t *pData, uint16_t Size, uint32_t Timeout)
{
 8005e00:	b580      	push	{r7, lr}
 8005e02:	b08a      	sub	sp, #40	; 0x28
 8005e04:	af02      	add	r7, sp, #8
 8005e06:	60f8      	str	r0, [r7, #12]
 8005e08:	60b9      	str	r1, [r7, #8]
 8005e0a:	603b      	str	r3, [r7, #0]
 8005e0c:	1dbb      	adds	r3, r7, #6
 8005e0e:	801a      	strh	r2, [r3, #0]
  uint8_t  *pdata8bits;
  uint16_t *pdata16bits;
  uint32_t tickstart;

  /* Check that a Tx process is not already ongoing */
  if (huart->gState == HAL_UART_STATE_READY)
 8005e10:	68fb      	ldr	r3, [r7, #12]
 8005e12:	6f9b      	ldr	r3, [r3, #120]	; 0x78
 8005e14:	2b20      	cmp	r3, #32
 8005e16:	d000      	beq.n	8005e1a <HAL_UART_Transmit+0x1a>
 8005e18:	e095      	b.n	8005f46 <HAL_UART_Transmit+0x146>
  {
    if ((pData == NULL) || (Size == 0U))
 8005e1a:	68bb      	ldr	r3, [r7, #8]
 8005e1c:	2b00      	cmp	r3, #0
 8005e1e:	d003      	beq.n	8005e28 <HAL_UART_Transmit+0x28>
 8005e20:	1dbb      	adds	r3, r7, #6
 8005e22:	881b      	ldrh	r3, [r3, #0]
 8005e24:	2b00      	cmp	r3, #0
 8005e26:	d101      	bne.n	8005e2c <HAL_UART_Transmit+0x2c>
    {
      return  HAL_ERROR;
 8005e28:	2301      	movs	r3, #1
 8005e2a:	e08d      	b.n	8005f48 <HAL_UART_Transmit+0x148>
    }

    /* In case of 9bits/No Parity transfer, pData buffer provided as input parameter
       should be aligned on a u16 frontier, as data to be filled into TDR will be
       handled through a u16 cast. */
    if ((huart->Init.WordLength == UART_WORDLENGTH_9B) && (huart->Init.Parity == UART_PARITY_NONE))
 8005e2c:	68fb      	ldr	r3, [r7, #12]
 8005e2e:	689a      	ldr	r2, [r3, #8]
 8005e30:	2380      	movs	r3, #128	; 0x80
 8005e32:	015b      	lsls	r3, r3, #5
 8005e34:	429a      	cmp	r2, r3
 8005e36:	d109      	bne.n	8005e4c <HAL_UART_Transmit+0x4c>
 8005e38:	68fb      	ldr	r3, [r7, #12]
 8005e3a:	691b      	ldr	r3, [r3, #16]
 8005e3c:	2b00      	cmp	r3, #0
 8005e3e:	d105      	bne.n	8005e4c <HAL_UART_Transmit+0x4c>
    {
      if ((((uint32_t)pData) & 1U) != 0U)
 8005e40:	68bb      	ldr	r3, [r7, #8]
 8005e42:	2201      	movs	r2, #1
 8005e44:	4013      	ands	r3, r2
 8005e46:	d001      	beq.n	8005e4c <HAL_UART_Transmit+0x4c>
      {
        return  HAL_ERROR;
 8005e48:	2301      	movs	r3, #1
 8005e4a:	e07d      	b.n	8005f48 <HAL_UART_Transmit+0x148>
      }
    }

    __HAL_LOCK(huart);
 8005e4c:	68fb      	ldr	r3, [r7, #12]
 8005e4e:	2274      	movs	r2, #116	; 0x74
 8005e50:	5c9b      	ldrb	r3, [r3, r2]
 8005e52:	2b01      	cmp	r3, #1
 8005e54:	d101      	bne.n	8005e5a <HAL_UART_Transmit+0x5a>
 8005e56:	2302      	movs	r3, #2
 8005e58:	e076      	b.n	8005f48 <HAL_UART_Transmit+0x148>
 8005e5a:	68fb      	ldr	r3, [r7, #12]
 8005e5c:	2274      	movs	r2, #116	; 0x74
 8005e5e:	2101      	movs	r1, #1
 8005e60:	5499      	strb	r1, [r3, r2]

    huart->ErrorCode = HAL_UART_ERROR_NONE;
 8005e62:	68fb      	ldr	r3, [r7, #12]
 8005e64:	2280      	movs	r2, #128	; 0x80
 8005e66:	2100      	movs	r1, #0
 8005e68:	5099      	str	r1, [r3, r2]
    huart->gState = HAL_UART_STATE_BUSY_TX;
 8005e6a:	68fb      	ldr	r3, [r7, #12]
 8005e6c:	2221      	movs	r2, #33	; 0x21
 8005e6e:	679a      	str	r2, [r3, #120]	; 0x78

    /* Init tickstart for timeout management */
    tickstart = HAL_GetTick();
 8005e70:	f7fc ff6e 	bl	8002d50 <HAL_GetTick>
 8005e74:	0003      	movs	r3, r0
 8005e76:	617b      	str	r3, [r7, #20]

    huart->TxXferSize  = Size;
 8005e78:	68fb      	ldr	r3, [r7, #12]
 8005e7a:	1dba      	adds	r2, r7, #6
 8005e7c:	2150      	movs	r1, #80	; 0x50
 8005e7e:	8812      	ldrh	r2, [r2, #0]
 8005e80:	525a      	strh	r2, [r3, r1]
    huart->TxXferCount = Size;
 8005e82:	68fb      	ldr	r3, [r7, #12]
 8005e84:	1dba      	adds	r2, r7, #6
 8005e86:	2152      	movs	r1, #82	; 0x52
 8005e88:	8812      	ldrh	r2, [r2, #0]
 8005e8a:	525a      	strh	r2, [r3, r1]

    /* In case of 9bits/No Parity transfer, pData needs to be handled as a uint16_t pointer */
    if ((huart->Init.WordLength == UART_WORDLENGTH_9B) && (huart->Init.Parity == UART_PARITY_NONE))
 8005e8c:	68fb      	ldr	r3, [r7, #12]
 8005e8e:	689a      	ldr	r2, [r3, #8]
 8005e90:	2380      	movs	r3, #128	; 0x80
 8005e92:	015b      	lsls	r3, r3, #5
 8005e94:	429a      	cmp	r2, r3
 8005e96:	d108      	bne.n	8005eaa <HAL_UART_Transmit+0xaa>
 8005e98:	68fb      	ldr	r3, [r7, #12]
 8005e9a:	691b      	ldr	r3, [r3, #16]
 8005e9c:	2b00      	cmp	r3, #0
 8005e9e:	d104      	bne.n	8005eaa <HAL_UART_Transmit+0xaa>
    {
      pdata8bits  = NULL;
 8005ea0:	2300      	movs	r3, #0
 8005ea2:	61fb      	str	r3, [r7, #28]
      pdata16bits = (uint16_t *) pData;
 8005ea4:	68bb      	ldr	r3, [r7, #8]
 8005ea6:	61bb      	str	r3, [r7, #24]
 8005ea8:	e003      	b.n	8005eb2 <HAL_UART_Transmit+0xb2>
    }
    else
    {
      pdata8bits  = pData;
 8005eaa:	68bb      	ldr	r3, [r7, #8]
 8005eac:	61fb      	str	r3, [r7, #28]
      pdata16bits = NULL;
 8005eae:	2300      	movs	r3, #0
 8005eb0:	61bb      	str	r3, [r7, #24]
    }

    __HAL_UNLOCK(huart);
 8005eb2:	68fb      	ldr	r3, [r7, #12]
 8005eb4:	2274      	movs	r2, #116	; 0x74
 8005eb6:	2100      	movs	r1, #0
 8005eb8:	5499      	strb	r1, [r3, r2]

    while (huart->TxXferCount > 0U)
 8005eba:	e02c      	b.n	8005f16 <HAL_UART_Transmit+0x116>
    {
      if (UART_WaitOnFlagUntilTimeout(huart, UART_FLAG_TXE, RESET, tickstart, Timeout) != HAL_OK)
 8005ebc:	697a      	ldr	r2, [r7, #20]
 8005ebe:	68f8      	ldr	r0, [r7, #12]
 8005ec0:	683b      	ldr	r3, [r7, #0]
 8005ec2:	9300      	str	r3, [sp, #0]
 8005ec4:	0013      	movs	r3, r2
 8005ec6:	2200      	movs	r2, #0
 8005ec8:	2180      	movs	r1, #128	; 0x80
 8005eca:	f000 fb9f 	bl	800660c <UART_WaitOnFlagUntilTimeout>
 8005ece:	1e03      	subs	r3, r0, #0
 8005ed0:	d001      	beq.n	8005ed6 <HAL_UART_Transmit+0xd6>
      {
        return HAL_TIMEOUT;
 8005ed2:	2303      	movs	r3, #3
 8005ed4:	e038      	b.n	8005f48 <HAL_UART_Transmit+0x148>
      }
      if (pdata8bits == NULL)
 8005ed6:	69fb      	ldr	r3, [r7, #28]
 8005ed8:	2b00      	cmp	r3, #0
 8005eda:	d10b      	bne.n	8005ef4 <HAL_UART_Transmit+0xf4>
      {
        huart->Instance->TDR = (uint16_t)(*pdata16bits & 0x01FFU);
 8005edc:	69bb      	ldr	r3, [r7, #24]
 8005ede:	881b      	ldrh	r3, [r3, #0]
 8005ee0:	001a      	movs	r2, r3
 8005ee2:	68fb      	ldr	r3, [r7, #12]
 8005ee4:	681b      	ldr	r3, [r3, #0]
 8005ee6:	05d2      	lsls	r2, r2, #23
 8005ee8:	0dd2      	lsrs	r2, r2, #23
 8005eea:	629a      	str	r2, [r3, #40]	; 0x28
        pdata16bits++;
 8005eec:	69bb      	ldr	r3, [r7, #24]
 8005eee:	3302      	adds	r3, #2
 8005ef0:	61bb      	str	r3, [r7, #24]
 8005ef2:	e007      	b.n	8005f04 <HAL_UART_Transmit+0x104>
      }
      else
      {
        huart->Instance->TDR = (uint8_t)(*pdata8bits & 0xFFU);
 8005ef4:	69fb      	ldr	r3, [r7, #28]
 8005ef6:	781a      	ldrb	r2, [r3, #0]
 8005ef8:	68fb      	ldr	r3, [r7, #12]
 8005efa:	681b      	ldr	r3, [r3, #0]
 8005efc:	629a      	str	r2, [r3, #40]	; 0x28
        pdata8bits++;
 8005efe:	69fb      	ldr	r3, [r7, #28]
 8005f00:	3301      	adds	r3, #1
 8005f02:	61fb      	str	r3, [r7, #28]
      }
      huart->TxXferCount--;
 8005f04:	68fb      	ldr	r3, [r7, #12]
 8005f06:	2252      	movs	r2, #82	; 0x52
 8005f08:	5a9b      	ldrh	r3, [r3, r2]
 8005f0a:	b29b      	uxth	r3, r3
 8005f0c:	3b01      	subs	r3, #1
 8005f0e:	b299      	uxth	r1, r3
 8005f10:	68fb      	ldr	r3, [r7, #12]
 8005f12:	2252      	movs	r2, #82	; 0x52
 8005f14:	5299      	strh	r1, [r3, r2]
    while (huart->TxXferCount > 0U)
 8005f16:	68fb      	ldr	r3, [r7, #12]
 8005f18:	2252      	movs	r2, #82	; 0x52
 8005f1a:	5a9b      	ldrh	r3, [r3, r2]
 8005f1c:	b29b      	uxth	r3, r3
 8005f1e:	2b00      	cmp	r3, #0
 8005f20:	d1cc      	bne.n	8005ebc <HAL_UART_Transmit+0xbc>
    }

    if (UART_WaitOnFlagUntilTimeout(huart, UART_FLAG_TC, RESET, tickstart, Timeout) != HAL_OK)
 8005f22:	697a      	ldr	r2, [r7, #20]
 8005f24:	68f8      	ldr	r0, [r7, #12]
 8005f26:	683b      	ldr	r3, [r7, #0]
 8005f28:	9300      	str	r3, [sp, #0]
 8005f2a:	0013      	movs	r3, r2
 8005f2c:	2200      	movs	r2, #0
 8005f2e:	2140      	movs	r1, #64	; 0x40
 8005f30:	f000 fb6c 	bl	800660c <UART_WaitOnFlagUntilTimeout>
 8005f34:	1e03      	subs	r3, r0, #0
 8005f36:	d001      	beq.n	8005f3c <HAL_UART_Transmit+0x13c>
    {
      return HAL_TIMEOUT;
 8005f38:	2303      	movs	r3, #3
 8005f3a:	e005      	b.n	8005f48 <HAL_UART_Transmit+0x148>
    }

    /* At end of Tx process, restore huart->gState to Ready */
    huart->gState = HAL_UART_STATE_READY;
 8005f3c:	68fb      	ldr	r3, [r7, #12]
 8005f3e:	2220      	movs	r2, #32
 8005f40:	679a      	str	r2, [r3, #120]	; 0x78

    return HAL_OK;
 8005f42:	2300      	movs	r3, #0
 8005f44:	e000      	b.n	8005f48 <HAL_UART_Transmit+0x148>
  }
  else
  {
    return HAL_BUSY;
 8005f46:	2302      	movs	r3, #2
  }
}
 8005f48:	0018      	movs	r0, r3
 8005f4a:	46bd      	mov	sp, r7
 8005f4c:	b008      	add	sp, #32
 8005f4e:	bd80      	pop	{r7, pc}

08005f50 <UART_SetConfig>:
  * @brief Configure the UART peripheral.
  * @param huart UART handle.
  * @retval HAL status
  */
HAL_StatusTypeDef UART_SetConfig(UART_HandleTypeDef *huart)
{
 8005f50:	b5b0      	push	{r4, r5, r7, lr}
 8005f52:	b08e      	sub	sp, #56	; 0x38
 8005f54:	af00      	add	r7, sp, #0
 8005f56:	61f8      	str	r0, [r7, #28]
  uint32_t tmpreg;
  uint16_t brrtemp;
  UART_ClockSourceTypeDef clocksource;
  uint32_t usartdiv;
  HAL_StatusTypeDef ret               = HAL_OK;
 8005f58:	231a      	movs	r3, #26
 8005f5a:	2218      	movs	r2, #24
 8005f5c:	4694      	mov	ip, r2
 8005f5e:	44bc      	add	ip, r7
 8005f60:	4463      	add	r3, ip
 8005f62:	2200      	movs	r2, #0
 8005f64:	701a      	strb	r2, [r3, #0]
  *  the UART Word Length, Parity, Mode and oversampling:
  *  set the M bits according to huart->Init.WordLength value
  *  set PCE and PS bits according to huart->Init.Parity value
  *  set TE and RE bits according to huart->Init.Mode value
  *  set OVER8 bit according to huart->Init.OverSampling value */
  tmpreg = (uint32_t)huart->Init.WordLength | huart->Init.Parity | huart->Init.Mode | huart->Init.OverSampling ;
 8005f66:	69fb      	ldr	r3, [r7, #28]
 8005f68:	689a      	ldr	r2, [r3, #8]
 8005f6a:	69fb      	ldr	r3, [r7, #28]
 8005f6c:	691b      	ldr	r3, [r3, #16]
 8005f6e:	431a      	orrs	r2, r3
 8005f70:	69fb      	ldr	r3, [r7, #28]
 8005f72:	695b      	ldr	r3, [r3, #20]
 8005f74:	431a      	orrs	r2, r3
 8005f76:	69fb      	ldr	r3, [r7, #28]
 8005f78:	69db      	ldr	r3, [r3, #28]
 8005f7a:	4313      	orrs	r3, r2
 8005f7c:	637b      	str	r3, [r7, #52]	; 0x34
  MODIFY_REG(huart->Instance->CR1, USART_CR1_FIELDS, tmpreg);
 8005f7e:	69fb      	ldr	r3, [r7, #28]
 8005f80:	681b      	ldr	r3, [r3, #0]
 8005f82:	681b      	ldr	r3, [r3, #0]
 8005f84:	4abc      	ldr	r2, [pc, #752]	; (8006278 <UART_SetConfig+0x328>)
 8005f86:	4013      	ands	r3, r2
 8005f88:	0019      	movs	r1, r3
 8005f8a:	69fb      	ldr	r3, [r7, #28]
 8005f8c:	681b      	ldr	r3, [r3, #0]
 8005f8e:	6b7a      	ldr	r2, [r7, #52]	; 0x34
 8005f90:	430a      	orrs	r2, r1
 8005f92:	601a      	str	r2, [r3, #0]

  /*-------------------------- USART CR2 Configuration -----------------------*/
  /* Configure the UART Stop Bits: Set STOP[13:12] bits according
  * to huart->Init.StopBits value */
  MODIFY_REG(huart->Instance->CR2, USART_CR2_STOP, huart->Init.StopBits);
 8005f94:	69fb      	ldr	r3, [r7, #28]
 8005f96:	681b      	ldr	r3, [r3, #0]
 8005f98:	685b      	ldr	r3, [r3, #4]
 8005f9a:	4ab8      	ldr	r2, [pc, #736]	; (800627c <UART_SetConfig+0x32c>)
 8005f9c:	4013      	ands	r3, r2
 8005f9e:	0019      	movs	r1, r3
 8005fa0:	69fb      	ldr	r3, [r7, #28]
 8005fa2:	68da      	ldr	r2, [r3, #12]
 8005fa4:	69fb      	ldr	r3, [r7, #28]
 8005fa6:	681b      	ldr	r3, [r3, #0]
 8005fa8:	430a      	orrs	r2, r1
 8005faa:	605a      	str	r2, [r3, #4]
  /* Configure
  * - UART HardWare Flow Control: set CTSE and RTSE bits according
  *   to huart->Init.HwFlowCtl value
  * - one-bit sampling method versus three samples' majority rule according
  *   to huart->Init.OneBitSampling (not applicable to LPUART) */
  tmpreg = (uint32_t)huart->Init.HwFlowCtl;
 8005fac:	69fb      	ldr	r3, [r7, #28]
 8005fae:	699b      	ldr	r3, [r3, #24]
 8005fb0:	637b      	str	r3, [r7, #52]	; 0x34

  if (!(UART_INSTANCE_LOWPOWER(huart)))
 8005fb2:	69fb      	ldr	r3, [r7, #28]
 8005fb4:	681b      	ldr	r3, [r3, #0]
 8005fb6:	4ab2      	ldr	r2, [pc, #712]	; (8006280 <UART_SetConfig+0x330>)
 8005fb8:	4293      	cmp	r3, r2
 8005fba:	d004      	beq.n	8005fc6 <UART_SetConfig+0x76>
  {
    tmpreg |= huart->Init.OneBitSampling;
 8005fbc:	69fb      	ldr	r3, [r7, #28]
 8005fbe:	6a1b      	ldr	r3, [r3, #32]
 8005fc0:	6b7a      	ldr	r2, [r7, #52]	; 0x34
 8005fc2:	4313      	orrs	r3, r2
 8005fc4:	637b      	str	r3, [r7, #52]	; 0x34
  }
  MODIFY_REG(huart->Instance->CR3, USART_CR3_FIELDS, tmpreg);
 8005fc6:	69fb      	ldr	r3, [r7, #28]
 8005fc8:	681b      	ldr	r3, [r3, #0]
 8005fca:	689b      	ldr	r3, [r3, #8]
 8005fcc:	4aad      	ldr	r2, [pc, #692]	; (8006284 <UART_SetConfig+0x334>)
 8005fce:	4013      	ands	r3, r2
 8005fd0:	0019      	movs	r1, r3
 8005fd2:	69fb      	ldr	r3, [r7, #28]
 8005fd4:	681b      	ldr	r3, [r3, #0]
 8005fd6:	6b7a      	ldr	r2, [r7, #52]	; 0x34
 8005fd8:	430a      	orrs	r2, r1
 8005fda:	609a      	str	r2, [r3, #8]


  /*-------------------------- USART BRR Configuration -----------------------*/
  UART_GETCLOCKSOURCE(huart, clocksource);
 8005fdc:	69fb      	ldr	r3, [r7, #28]
 8005fde:	681b      	ldr	r3, [r3, #0]
 8005fe0:	4aa9      	ldr	r2, [pc, #676]	; (8006288 <UART_SetConfig+0x338>)
 8005fe2:	4293      	cmp	r3, r2
 8005fe4:	d136      	bne.n	8006054 <UART_SetConfig+0x104>
 8005fe6:	4ba9      	ldr	r3, [pc, #676]	; (800628c <UART_SetConfig+0x33c>)
 8005fe8:	6cdb      	ldr	r3, [r3, #76]	; 0x4c
 8005fea:	220c      	movs	r2, #12
 8005fec:	4013      	ands	r3, r2
 8005fee:	2b0c      	cmp	r3, #12
 8005ff0:	d020      	beq.n	8006034 <UART_SetConfig+0xe4>
 8005ff2:	d827      	bhi.n	8006044 <UART_SetConfig+0xf4>
 8005ff4:	2b08      	cmp	r3, #8
 8005ff6:	d00d      	beq.n	8006014 <UART_SetConfig+0xc4>
 8005ff8:	d824      	bhi.n	8006044 <UART_SetConfig+0xf4>
 8005ffa:	2b00      	cmp	r3, #0
 8005ffc:	d002      	beq.n	8006004 <UART_SetConfig+0xb4>
 8005ffe:	2b04      	cmp	r3, #4
 8006000:	d010      	beq.n	8006024 <UART_SetConfig+0xd4>
 8006002:	e01f      	b.n	8006044 <UART_SetConfig+0xf4>
 8006004:	231b      	movs	r3, #27
 8006006:	2218      	movs	r2, #24
 8006008:	4694      	mov	ip, r2
 800600a:	44bc      	add	ip, r7
 800600c:	4463      	add	r3, ip
 800600e:	2200      	movs	r2, #0
 8006010:	701a      	strb	r2, [r3, #0]
 8006012:	e06f      	b.n	80060f4 <UART_SetConfig+0x1a4>
 8006014:	231b      	movs	r3, #27
 8006016:	2218      	movs	r2, #24
 8006018:	4694      	mov	ip, r2
 800601a:	44bc      	add	ip, r7
 800601c:	4463      	add	r3, ip
 800601e:	2202      	movs	r2, #2
 8006020:	701a      	strb	r2, [r3, #0]
 8006022:	e067      	b.n	80060f4 <UART_SetConfig+0x1a4>
 8006024:	231b      	movs	r3, #27
 8006026:	2218      	movs	r2, #24
 8006028:	4694      	mov	ip, r2
 800602a:	44bc      	add	ip, r7
 800602c:	4463      	add	r3, ip
 800602e:	2204      	movs	r2, #4
 8006030:	701a      	strb	r2, [r3, #0]
 8006032:	e05f      	b.n	80060f4 <UART_SetConfig+0x1a4>
 8006034:	231b      	movs	r3, #27
 8006036:	2218      	movs	r2, #24
 8006038:	4694      	mov	ip, r2
 800603a:	44bc      	add	ip, r7
 800603c:	4463      	add	r3, ip
 800603e:	2208      	movs	r2, #8
 8006040:	701a      	strb	r2, [r3, #0]
 8006042:	e057      	b.n	80060f4 <UART_SetConfig+0x1a4>
 8006044:	231b      	movs	r3, #27
 8006046:	2218      	movs	r2, #24
 8006048:	4694      	mov	ip, r2
 800604a:	44bc      	add	ip, r7
 800604c:	4463      	add	r3, ip
 800604e:	2210      	movs	r2, #16
 8006050:	701a      	strb	r2, [r3, #0]
 8006052:	e04f      	b.n	80060f4 <UART_SetConfig+0x1a4>
 8006054:	69fb      	ldr	r3, [r7, #28]
 8006056:	681b      	ldr	r3, [r3, #0]
 8006058:	4a89      	ldr	r2, [pc, #548]	; (8006280 <UART_SetConfig+0x330>)
 800605a:	4293      	cmp	r3, r2
 800605c:	d143      	bne.n	80060e6 <UART_SetConfig+0x196>
 800605e:	4b8b      	ldr	r3, [pc, #556]	; (800628c <UART_SetConfig+0x33c>)
 8006060:	6cda      	ldr	r2, [r3, #76]	; 0x4c
 8006062:	23c0      	movs	r3, #192	; 0xc0
 8006064:	011b      	lsls	r3, r3, #4
 8006066:	4013      	ands	r3, r2
 8006068:	22c0      	movs	r2, #192	; 0xc0
 800606a:	0112      	lsls	r2, r2, #4
 800606c:	4293      	cmp	r3, r2
 800606e:	d02a      	beq.n	80060c6 <UART_SetConfig+0x176>
 8006070:	22c0      	movs	r2, #192	; 0xc0
 8006072:	0112      	lsls	r2, r2, #4
 8006074:	4293      	cmp	r3, r2
 8006076:	d82e      	bhi.n	80060d6 <UART_SetConfig+0x186>
 8006078:	2280      	movs	r2, #128	; 0x80
 800607a:	0112      	lsls	r2, r2, #4
 800607c:	4293      	cmp	r3, r2
 800607e:	d012      	beq.n	80060a6 <UART_SetConfig+0x156>
 8006080:	2280      	movs	r2, #128	; 0x80
 8006082:	0112      	lsls	r2, r2, #4
 8006084:	4293      	cmp	r3, r2
 8006086:	d826      	bhi.n	80060d6 <UART_SetConfig+0x186>
 8006088:	2b00      	cmp	r3, #0
 800608a:	d004      	beq.n	8006096 <UART_SetConfig+0x146>
 800608c:	2280      	movs	r2, #128	; 0x80
 800608e:	00d2      	lsls	r2, r2, #3
 8006090:	4293      	cmp	r3, r2
 8006092:	d010      	beq.n	80060b6 <UART_SetConfig+0x166>
 8006094:	e01f      	b.n	80060d6 <UART_SetConfig+0x186>
 8006096:	231b      	movs	r3, #27
 8006098:	2218      	movs	r2, #24
 800609a:	4694      	mov	ip, r2
 800609c:	44bc      	add	ip, r7
 800609e:	4463      	add	r3, ip
 80060a0:	2200      	movs	r2, #0
 80060a2:	701a      	strb	r2, [r3, #0]
 80060a4:	e026      	b.n	80060f4 <UART_SetConfig+0x1a4>
 80060a6:	231b      	movs	r3, #27
 80060a8:	2218      	movs	r2, #24
 80060aa:	4694      	mov	ip, r2
 80060ac:	44bc      	add	ip, r7
 80060ae:	4463      	add	r3, ip
 80060b0:	2202      	movs	r2, #2
 80060b2:	701a      	strb	r2, [r3, #0]
 80060b4:	e01e      	b.n	80060f4 <UART_SetConfig+0x1a4>
 80060b6:	231b      	movs	r3, #27
 80060b8:	2218      	movs	r2, #24
 80060ba:	4694      	mov	ip, r2
 80060bc:	44bc      	add	ip, r7
 80060be:	4463      	add	r3, ip
 80060c0:	2204      	movs	r2, #4
 80060c2:	701a      	strb	r2, [r3, #0]
 80060c4:	e016      	b.n	80060f4 <UART_SetConfig+0x1a4>
 80060c6:	231b      	movs	r3, #27
 80060c8:	2218      	movs	r2, #24
 80060ca:	4694      	mov	ip, r2
 80060cc:	44bc      	add	ip, r7
 80060ce:	4463      	add	r3, ip
 80060d0:	2208      	movs	r2, #8
 80060d2:	701a      	strb	r2, [r3, #0]
 80060d4:	e00e      	b.n	80060f4 <UART_SetConfig+0x1a4>
 80060d6:	231b      	movs	r3, #27
 80060d8:	2218      	movs	r2, #24
 80060da:	4694      	mov	ip, r2
 80060dc:	44bc      	add	ip, r7
 80060de:	4463      	add	r3, ip
 80060e0:	2210      	movs	r2, #16
 80060e2:	701a      	strb	r2, [r3, #0]
 80060e4:	e006      	b.n	80060f4 <UART_SetConfig+0x1a4>
 80060e6:	231b      	movs	r3, #27
 80060e8:	2218      	movs	r2, #24
 80060ea:	4694      	mov	ip, r2
 80060ec:	44bc      	add	ip, r7
 80060ee:	4463      	add	r3, ip
 80060f0:	2210      	movs	r2, #16
 80060f2:	701a      	strb	r2, [r3, #0]

  /* Check LPUART instance */
  if (UART_INSTANCE_LOWPOWER(huart))
 80060f4:	69fb      	ldr	r3, [r7, #28]
 80060f6:	681b      	ldr	r3, [r3, #0]
 80060f8:	4a61      	ldr	r2, [pc, #388]	; (8006280 <UART_SetConfig+0x330>)
 80060fa:	4293      	cmp	r3, r2
 80060fc:	d000      	beq.n	8006100 <UART_SetConfig+0x1b0>
 80060fe:	e088      	b.n	8006212 <UART_SetConfig+0x2c2>
  {
    /* Retrieve frequency clock */
    switch (clocksource)
 8006100:	231b      	movs	r3, #27
 8006102:	2218      	movs	r2, #24
 8006104:	4694      	mov	ip, r2
 8006106:	44bc      	add	ip, r7
 8006108:	4463      	add	r3, ip
 800610a:	781b      	ldrb	r3, [r3, #0]
 800610c:	2b08      	cmp	r3, #8
 800610e:	d01d      	beq.n	800614c <UART_SetConfig+0x1fc>
 8006110:	dc20      	bgt.n	8006154 <UART_SetConfig+0x204>
 8006112:	2b04      	cmp	r3, #4
 8006114:	d015      	beq.n	8006142 <UART_SetConfig+0x1f2>
 8006116:	dc1d      	bgt.n	8006154 <UART_SetConfig+0x204>
 8006118:	2b00      	cmp	r3, #0
 800611a:	d002      	beq.n	8006122 <UART_SetConfig+0x1d2>
 800611c:	2b02      	cmp	r3, #2
 800611e:	d005      	beq.n	800612c <UART_SetConfig+0x1dc>
 8006120:	e018      	b.n	8006154 <UART_SetConfig+0x204>
    {
      case UART_CLOCKSOURCE_PCLK1:
        pclk = HAL_RCC_GetPCLK1Freq();
 8006122:	f7ff fa43 	bl	80055ac <HAL_RCC_GetPCLK1Freq>
 8006126:	0003      	movs	r3, r0
 8006128:	62fb      	str	r3, [r7, #44]	; 0x2c
        break;
 800612a:	e01d      	b.n	8006168 <UART_SetConfig+0x218>
      case UART_CLOCKSOURCE_HSI:
        if (__HAL_RCC_GET_FLAG(RCC_FLAG_HSIDIV) != 0U)
 800612c:	4b57      	ldr	r3, [pc, #348]	; (800628c <UART_SetConfig+0x33c>)
 800612e:	681b      	ldr	r3, [r3, #0]
 8006130:	2210      	movs	r2, #16
 8006132:	4013      	ands	r3, r2
 8006134:	d002      	beq.n	800613c <UART_SetConfig+0x1ec>
        {
          pclk = (uint32_t)(HSI_VALUE >> 2U);
 8006136:	4b56      	ldr	r3, [pc, #344]	; (8006290 <UART_SetConfig+0x340>)
 8006138:	62fb      	str	r3, [r7, #44]	; 0x2c
        }
        else
        {
          pclk = (uint32_t) HSI_VALUE;
        }
        break;
 800613a:	e015      	b.n	8006168 <UART_SetConfig+0x218>
          pclk = (uint32_t) HSI_VALUE;
 800613c:	4b55      	ldr	r3, [pc, #340]	; (8006294 <UART_SetConfig+0x344>)
 800613e:	62fb      	str	r3, [r7, #44]	; 0x2c
        break;
 8006140:	e012      	b.n	8006168 <UART_SetConfig+0x218>
      case UART_CLOCKSOURCE_SYSCLK:
        pclk = HAL_RCC_GetSysClockFreq();
 8006142:	f7ff f983 	bl	800544c <HAL_RCC_GetSysClockFreq>
 8006146:	0003      	movs	r3, r0
 8006148:	62fb      	str	r3, [r7, #44]	; 0x2c
        break;
 800614a:	e00d      	b.n	8006168 <UART_SetConfig+0x218>
      case UART_CLOCKSOURCE_LSE:
        pclk = (uint32_t) LSE_VALUE;
 800614c:	2380      	movs	r3, #128	; 0x80
 800614e:	021b      	lsls	r3, r3, #8
 8006150:	62fb      	str	r3, [r7, #44]	; 0x2c
        break;
 8006152:	e009      	b.n	8006168 <UART_SetConfig+0x218>
      default:
        pclk = 0U;
 8006154:	2300      	movs	r3, #0
 8006156:	62fb      	str	r3, [r7, #44]	; 0x2c
        ret = HAL_ERROR;
 8006158:	231a      	movs	r3, #26
 800615a:	2218      	movs	r2, #24
 800615c:	4694      	mov	ip, r2
 800615e:	44bc      	add	ip, r7
 8006160:	4463      	add	r3, ip
 8006162:	2201      	movs	r2, #1
 8006164:	701a      	strb	r2, [r3, #0]
        break;
 8006166:	46c0      	nop			; (mov r8, r8)
    }

    /* If proper clock source reported */
    if (pclk != 0U)
 8006168:	6afb      	ldr	r3, [r7, #44]	; 0x2c
 800616a:	2b00      	cmp	r3, #0
 800616c:	d100      	bne.n	8006170 <UART_SetConfig+0x220>
 800616e:	e139      	b.n	80063e4 <UART_SetConfig+0x494>
    {
      /* No Prescaler applicable */
      /* Ensure that Frequency clock is in the range [3 * baudrate, 4096 * baudrate] */
      if ((pclk < (3U * huart->Init.BaudRate)) ||
 8006170:	69fb      	ldr	r3, [r7, #28]
 8006172:	685a      	ldr	r2, [r3, #4]
 8006174:	0013      	movs	r3, r2
 8006176:	005b      	lsls	r3, r3, #1
 8006178:	189b      	adds	r3, r3, r2
 800617a:	6afa      	ldr	r2, [r7, #44]	; 0x2c
 800617c:	429a      	cmp	r2, r3
 800617e:	d305      	bcc.n	800618c <UART_SetConfig+0x23c>
          (pclk > (4096U * huart->Init.BaudRate)))
 8006180:	69fb      	ldr	r3, [r7, #28]
 8006182:	685b      	ldr	r3, [r3, #4]
 8006184:	031b      	lsls	r3, r3, #12
      if ((pclk < (3U * huart->Init.BaudRate)) ||
 8006186:	6afa      	ldr	r2, [r7, #44]	; 0x2c
 8006188:	429a      	cmp	r2, r3
 800618a:	d907      	bls.n	800619c <UART_SetConfig+0x24c>
      {
        ret = HAL_ERROR;
 800618c:	231a      	movs	r3, #26
 800618e:	2218      	movs	r2, #24
 8006190:	4694      	mov	ip, r2
 8006192:	44bc      	add	ip, r7
 8006194:	4463      	add	r3, ip
 8006196:	2201      	movs	r2, #1
 8006198:	701a      	strb	r2, [r3, #0]
 800619a:	e123      	b.n	80063e4 <UART_SetConfig+0x494>
      }
      else
      {
        usartdiv = (uint32_t)(UART_DIV_LPUART(pclk, huart->Init.BaudRate));
 800619c:	6afb      	ldr	r3, [r7, #44]	; 0x2c
 800619e:	613b      	str	r3, [r7, #16]
 80061a0:	2300      	movs	r3, #0
 80061a2:	617b      	str	r3, [r7, #20]
 80061a4:	6939      	ldr	r1, [r7, #16]
 80061a6:	697a      	ldr	r2, [r7, #20]
 80061a8:	000b      	movs	r3, r1
 80061aa:	0e1b      	lsrs	r3, r3, #24
 80061ac:	0010      	movs	r0, r2
 80061ae:	0205      	lsls	r5, r0, #8
 80061b0:	431d      	orrs	r5, r3
 80061b2:	000b      	movs	r3, r1
 80061b4:	021c      	lsls	r4, r3, #8
 80061b6:	69fb      	ldr	r3, [r7, #28]
 80061b8:	685b      	ldr	r3, [r3, #4]
 80061ba:	085b      	lsrs	r3, r3, #1
 80061bc:	60bb      	str	r3, [r7, #8]
 80061be:	2300      	movs	r3, #0
 80061c0:	60fb      	str	r3, [r7, #12]
 80061c2:	68b8      	ldr	r0, [r7, #8]
 80061c4:	68f9      	ldr	r1, [r7, #12]
 80061c6:	1900      	adds	r0, r0, r4
 80061c8:	4169      	adcs	r1, r5
 80061ca:	69fb      	ldr	r3, [r7, #28]
 80061cc:	685b      	ldr	r3, [r3, #4]
 80061ce:	603b      	str	r3, [r7, #0]
 80061d0:	2300      	movs	r3, #0
 80061d2:	607b      	str	r3, [r7, #4]
 80061d4:	683a      	ldr	r2, [r7, #0]
 80061d6:	687b      	ldr	r3, [r7, #4]
 80061d8:	f7fa f91e 	bl	8000418 <__aeabi_uldivmod>
 80061dc:	0002      	movs	r2, r0
 80061de:	000b      	movs	r3, r1
 80061e0:	0013      	movs	r3, r2
 80061e2:	62bb      	str	r3, [r7, #40]	; 0x28
        if ((usartdiv >= LPUART_BRR_MIN) && (usartdiv <= LPUART_BRR_MAX))
 80061e4:	6aba      	ldr	r2, [r7, #40]	; 0x28
 80061e6:	23c0      	movs	r3, #192	; 0xc0
 80061e8:	009b      	lsls	r3, r3, #2
 80061ea:	429a      	cmp	r2, r3
 80061ec:	d309      	bcc.n	8006202 <UART_SetConfig+0x2b2>
 80061ee:	6aba      	ldr	r2, [r7, #40]	; 0x28
 80061f0:	2380      	movs	r3, #128	; 0x80
 80061f2:	035b      	lsls	r3, r3, #13
 80061f4:	429a      	cmp	r2, r3
 80061f6:	d204      	bcs.n	8006202 <UART_SetConfig+0x2b2>
        {
          huart->Instance->BRR = usartdiv;
 80061f8:	69fb      	ldr	r3, [r7, #28]
 80061fa:	681b      	ldr	r3, [r3, #0]
 80061fc:	6aba      	ldr	r2, [r7, #40]	; 0x28
 80061fe:	60da      	str	r2, [r3, #12]
 8006200:	e0f0      	b.n	80063e4 <UART_SetConfig+0x494>
        }
        else
        {
          ret = HAL_ERROR;
 8006202:	231a      	movs	r3, #26
 8006204:	2218      	movs	r2, #24
 8006206:	4694      	mov	ip, r2
 8006208:	44bc      	add	ip, r7
 800620a:	4463      	add	r3, ip
 800620c:	2201      	movs	r2, #1
 800620e:	701a      	strb	r2, [r3, #0]
 8006210:	e0e8      	b.n	80063e4 <UART_SetConfig+0x494>
        }
      } /* if ( (pclk < (3 * huart->Init.BaudRate) ) || (pclk > (4096 * huart->Init.BaudRate) )) */
    } /* if (pclk != 0) */
  }
  /* Check UART Over Sampling to set Baud Rate Register */
  else if (huart->Init.OverSampling == UART_OVERSAMPLING_8)
 8006212:	69fb      	ldr	r3, [r7, #28]
 8006214:	69da      	ldr	r2, [r3, #28]
 8006216:	2380      	movs	r3, #128	; 0x80
 8006218:	021b      	lsls	r3, r3, #8
 800621a:	429a      	cmp	r2, r3
 800621c:	d000      	beq.n	8006220 <UART_SetConfig+0x2d0>
 800621e:	e087      	b.n	8006330 <UART_SetConfig+0x3e0>
  {
    switch (clocksource)
 8006220:	231b      	movs	r3, #27
 8006222:	2218      	movs	r2, #24
 8006224:	4694      	mov	ip, r2
 8006226:	44bc      	add	ip, r7
 8006228:	4463      	add	r3, ip
 800622a:	781b      	ldrb	r3, [r3, #0]
 800622c:	2b08      	cmp	r3, #8
 800622e:	d835      	bhi.n	800629c <UART_SetConfig+0x34c>
 8006230:	009a      	lsls	r2, r3, #2
 8006232:	4b19      	ldr	r3, [pc, #100]	; (8006298 <UART_SetConfig+0x348>)
 8006234:	18d3      	adds	r3, r2, r3
 8006236:	681b      	ldr	r3, [r3, #0]
 8006238:	469f      	mov	pc, r3
    {
      case UART_CLOCKSOURCE_PCLK1:
        pclk = HAL_RCC_GetPCLK1Freq();
 800623a:	f7ff f9b7 	bl	80055ac <HAL_RCC_GetPCLK1Freq>
 800623e:	0003      	movs	r3, r0
 8006240:	62fb      	str	r3, [r7, #44]	; 0x2c
        break;
 8006242:	e035      	b.n	80062b0 <UART_SetConfig+0x360>
      case UART_CLOCKSOURCE_PCLK2:
        pclk = HAL_RCC_GetPCLK2Freq();
 8006244:	f7ff f9c8 	bl	80055d8 <HAL_RCC_GetPCLK2Freq>
 8006248:	0003      	movs	r3, r0
 800624a:	62fb      	str	r3, [r7, #44]	; 0x2c
        break;
 800624c:	e030      	b.n	80062b0 <UART_SetConfig+0x360>
      case UART_CLOCKSOURCE_HSI:
        if (__HAL_RCC_GET_FLAG(RCC_FLAG_HSIDIV) != 0U)
 800624e:	4b0f      	ldr	r3, [pc, #60]	; (800628c <UART_SetConfig+0x33c>)
 8006250:	681b      	ldr	r3, [r3, #0]
 8006252:	2210      	movs	r2, #16
 8006254:	4013      	ands	r3, r2
 8006256:	d002      	beq.n	800625e <UART_SetConfig+0x30e>
        {
          pclk = (uint32_t)(HSI_VALUE >> 2U);
 8006258:	4b0d      	ldr	r3, [pc, #52]	; (8006290 <UART_SetConfig+0x340>)
 800625a:	62fb      	str	r3, [r7, #44]	; 0x2c
        }
        else
        {
          pclk = (uint32_t) HSI_VALUE;
        }
        break;
 800625c:	e028      	b.n	80062b0 <UART_SetConfig+0x360>
          pclk = (uint32_t) HSI_VALUE;
 800625e:	4b0d      	ldr	r3, [pc, #52]	; (8006294 <UART_SetConfig+0x344>)
 8006260:	62fb      	str	r3, [r7, #44]	; 0x2c
        break;
 8006262:	e025      	b.n	80062b0 <UART_SetConfig+0x360>
      case UART_CLOCKSOURCE_SYSCLK:
        pclk = HAL_RCC_GetSysClockFreq();
 8006264:	f7ff f8f2 	bl	800544c <HAL_RCC_GetSysClockFreq>
 8006268:	0003      	movs	r3, r0
 800626a:	62fb      	str	r3, [r7, #44]	; 0x2c
        break;
 800626c:	e020      	b.n	80062b0 <UART_SetConfig+0x360>
      case UART_CLOCKSOURCE_LSE:
        pclk = (uint32_t) LSE_VALUE;
 800626e:	2380      	movs	r3, #128	; 0x80
 8006270:	021b      	lsls	r3, r3, #8
 8006272:	62fb      	str	r3, [r7, #44]	; 0x2c
        break;
 8006274:	e01c      	b.n	80062b0 <UART_SetConfig+0x360>
 8006276:	46c0      	nop			; (mov r8, r8)
 8006278:	efff69f3 	.word	0xefff69f3
 800627c:	ffffcfff 	.word	0xffffcfff
 8006280:	40004800 	.word	0x40004800
 8006284:	fffff4ff 	.word	0xfffff4ff
 8006288:	40004400 	.word	0x40004400
 800628c:	40021000 	.word	0x40021000
 8006290:	003d0900 	.word	0x003d0900
 8006294:	00f42400 	.word	0x00f42400
 8006298:	08007248 	.word	0x08007248
      default:
        pclk = 0U;
 800629c:	2300      	movs	r3, #0
 800629e:	62fb      	str	r3, [r7, #44]	; 0x2c
        ret = HAL_ERROR;
 80062a0:	231a      	movs	r3, #26
 80062a2:	2218      	movs	r2, #24
 80062a4:	4694      	mov	ip, r2
 80062a6:	44bc      	add	ip, r7
 80062a8:	4463      	add	r3, ip
 80062aa:	2201      	movs	r2, #1
 80062ac:	701a      	strb	r2, [r3, #0]
        break;
 80062ae:	46c0      	nop			; (mov r8, r8)
    }

    /* USARTDIV must be greater than or equal to 0d16 */
    if (pclk != 0U)
 80062b0:	6afb      	ldr	r3, [r7, #44]	; 0x2c
 80062b2:	2b00      	cmp	r3, #0
 80062b4:	d100      	bne.n	80062b8 <UART_SetConfig+0x368>
 80062b6:	e095      	b.n	80063e4 <UART_SetConfig+0x494>
    {
      usartdiv = (uint16_t)(UART_DIV_SAMPLING8(pclk, huart->Init.BaudRate));
 80062b8:	6afb      	ldr	r3, [r7, #44]	; 0x2c
 80062ba:	005a      	lsls	r2, r3, #1
 80062bc:	69fb      	ldr	r3, [r7, #28]
 80062be:	685b      	ldr	r3, [r3, #4]
 80062c0:	085b      	lsrs	r3, r3, #1
 80062c2:	18d2      	adds	r2, r2, r3
 80062c4:	69fb      	ldr	r3, [r7, #28]
 80062c6:	685b      	ldr	r3, [r3, #4]
 80062c8:	0019      	movs	r1, r3
 80062ca:	0010      	movs	r0, r2
 80062cc:	f7f9 ff2e 	bl	800012c <__udivsi3>
 80062d0:	0003      	movs	r3, r0
 80062d2:	b29b      	uxth	r3, r3
 80062d4:	62bb      	str	r3, [r7, #40]	; 0x28
      if ((usartdiv >= UART_BRR_MIN) && (usartdiv <= UART_BRR_MAX))
 80062d6:	6abb      	ldr	r3, [r7, #40]	; 0x28
 80062d8:	2b0f      	cmp	r3, #15
 80062da:	d921      	bls.n	8006320 <UART_SetConfig+0x3d0>
 80062dc:	6aba      	ldr	r2, [r7, #40]	; 0x28
 80062de:	2380      	movs	r3, #128	; 0x80
 80062e0:	025b      	lsls	r3, r3, #9
 80062e2:	429a      	cmp	r2, r3
 80062e4:	d21c      	bcs.n	8006320 <UART_SetConfig+0x3d0>
      {
        brrtemp = (uint16_t)(usartdiv & 0xFFF0U);
 80062e6:	6abb      	ldr	r3, [r7, #40]	; 0x28
 80062e8:	b29a      	uxth	r2, r3
 80062ea:	200e      	movs	r0, #14
 80062ec:	2418      	movs	r4, #24
 80062ee:	193b      	adds	r3, r7, r4
 80062f0:	181b      	adds	r3, r3, r0
 80062f2:	210f      	movs	r1, #15
 80062f4:	438a      	bics	r2, r1
 80062f6:	801a      	strh	r2, [r3, #0]
        brrtemp |= (uint16_t)((usartdiv & (uint16_t)0x000FU) >> 1U);
 80062f8:	6abb      	ldr	r3, [r7, #40]	; 0x28
 80062fa:	085b      	lsrs	r3, r3, #1
 80062fc:	b29b      	uxth	r3, r3
 80062fe:	2207      	movs	r2, #7
 8006300:	4013      	ands	r3, r2
 8006302:	b299      	uxth	r1, r3
 8006304:	193b      	adds	r3, r7, r4
 8006306:	181b      	adds	r3, r3, r0
 8006308:	193a      	adds	r2, r7, r4
 800630a:	1812      	adds	r2, r2, r0
 800630c:	8812      	ldrh	r2, [r2, #0]
 800630e:	430a      	orrs	r2, r1
 8006310:	801a      	strh	r2, [r3, #0]
        huart->Instance->BRR = brrtemp;
 8006312:	69fb      	ldr	r3, [r7, #28]
 8006314:	681b      	ldr	r3, [r3, #0]
 8006316:	193a      	adds	r2, r7, r4
 8006318:	1812      	adds	r2, r2, r0
 800631a:	8812      	ldrh	r2, [r2, #0]
 800631c:	60da      	str	r2, [r3, #12]
 800631e:	e061      	b.n	80063e4 <UART_SetConfig+0x494>
      }
      else
      {
        ret = HAL_ERROR;
 8006320:	231a      	movs	r3, #26
 8006322:	2218      	movs	r2, #24
 8006324:	4694      	mov	ip, r2
 8006326:	44bc      	add	ip, r7
 8006328:	4463      	add	r3, ip
 800632a:	2201      	movs	r2, #1
 800632c:	701a      	strb	r2, [r3, #0]
 800632e:	e059      	b.n	80063e4 <UART_SetConfig+0x494>
      }
    }
  }
  else
  {
    switch (clocksource)
 8006330:	231b      	movs	r3, #27
 8006332:	2218      	movs	r2, #24
 8006334:	4694      	mov	ip, r2
 8006336:	44bc      	add	ip, r7
 8006338:	4463      	add	r3, ip
 800633a:	781b      	ldrb	r3, [r3, #0]
 800633c:	2b08      	cmp	r3, #8
 800633e:	d822      	bhi.n	8006386 <UART_SetConfig+0x436>
 8006340:	009a      	lsls	r2, r3, #2
 8006342:	4b30      	ldr	r3, [pc, #192]	; (8006404 <UART_SetConfig+0x4b4>)
 8006344:	18d3      	adds	r3, r2, r3
 8006346:	681b      	ldr	r3, [r3, #0]
 8006348:	469f      	mov	pc, r3
    {
      case UART_CLOCKSOURCE_PCLK1:
        pclk = HAL_RCC_GetPCLK1Freq();
 800634a:	f7ff f92f 	bl	80055ac <HAL_RCC_GetPCLK1Freq>
 800634e:	0003      	movs	r3, r0
 8006350:	62fb      	str	r3, [r7, #44]	; 0x2c
        break;
 8006352:	e022      	b.n	800639a <UART_SetConfig+0x44a>
      case UART_CLOCKSOURCE_PCLK2:
        pclk = HAL_RCC_GetPCLK2Freq();
 8006354:	f7ff f940 	bl	80055d8 <HAL_RCC_GetPCLK2Freq>
 8006358:	0003      	movs	r3, r0
 800635a:	62fb      	str	r3, [r7, #44]	; 0x2c
        break;
 800635c:	e01d      	b.n	800639a <UART_SetConfig+0x44a>
      case UART_CLOCKSOURCE_HSI:
        if (__HAL_RCC_GET_FLAG(RCC_FLAG_HSIDIV) != 0U)
 800635e:	4b2a      	ldr	r3, [pc, #168]	; (8006408 <UART_SetConfig+0x4b8>)
 8006360:	681b      	ldr	r3, [r3, #0]
 8006362:	2210      	movs	r2, #16
 8006364:	4013      	ands	r3, r2
 8006366:	d002      	beq.n	800636e <UART_SetConfig+0x41e>
        {
          pclk = (uint32_t)(HSI_VALUE >> 2U);
 8006368:	4b28      	ldr	r3, [pc, #160]	; (800640c <UART_SetConfig+0x4bc>)
 800636a:	62fb      	str	r3, [r7, #44]	; 0x2c
        }
        else
        {
          pclk = (uint32_t) HSI_VALUE;
        }
        break;
 800636c:	e015      	b.n	800639a <UART_SetConfig+0x44a>
          pclk = (uint32_t) HSI_VALUE;
 800636e:	4b28      	ldr	r3, [pc, #160]	; (8006410 <UART_SetConfig+0x4c0>)
 8006370:	62fb      	str	r3, [r7, #44]	; 0x2c
        break;
 8006372:	e012      	b.n	800639a <UART_SetConfig+0x44a>
      case UART_CLOCKSOURCE_SYSCLK:
        pclk = HAL_RCC_GetSysClockFreq();
 8006374:	f7ff f86a 	bl	800544c <HAL_RCC_GetSysClockFreq>
 8006378:	0003      	movs	r3, r0
 800637a:	62fb      	str	r3, [r7, #44]	; 0x2c
        break;
 800637c:	e00d      	b.n	800639a <UART_SetConfig+0x44a>
      case UART_CLOCKSOURCE_LSE:
        pclk = (uint32_t) LSE_VALUE;
 800637e:	2380      	movs	r3, #128	; 0x80
 8006380:	021b      	lsls	r3, r3, #8
 8006382:	62fb      	str	r3, [r7, #44]	; 0x2c
        break;
 8006384:	e009      	b.n	800639a <UART_SetConfig+0x44a>
      default:
        pclk = 0U;
 8006386:	2300      	movs	r3, #0
 8006388:	62fb      	str	r3, [r7, #44]	; 0x2c
        ret = HAL_ERROR;
 800638a:	231a      	movs	r3, #26
 800638c:	2218      	movs	r2, #24
 800638e:	4694      	mov	ip, r2
 8006390:	44bc      	add	ip, r7
 8006392:	4463      	add	r3, ip
 8006394:	2201      	movs	r2, #1
 8006396:	701a      	strb	r2, [r3, #0]
        break;
 8006398:	46c0      	nop			; (mov r8, r8)
    }

    if (pclk != 0U)
 800639a:	6afb      	ldr	r3, [r7, #44]	; 0x2c
 800639c:	2b00      	cmp	r3, #0
 800639e:	d021      	beq.n	80063e4 <UART_SetConfig+0x494>
    {
      /* USARTDIV must be greater than or equal to 0d16 */
      usartdiv = (uint16_t)(UART_DIV_SAMPLING16(pclk, huart->Init.BaudRate));
 80063a0:	69fb      	ldr	r3, [r7, #28]
 80063a2:	685b      	ldr	r3, [r3, #4]
 80063a4:	085a      	lsrs	r2, r3, #1
 80063a6:	6afb      	ldr	r3, [r7, #44]	; 0x2c
 80063a8:	18d2      	adds	r2, r2, r3
 80063aa:	69fb      	ldr	r3, [r7, #28]
 80063ac:	685b      	ldr	r3, [r3, #4]
 80063ae:	0019      	movs	r1, r3
 80063b0:	0010      	movs	r0, r2
 80063b2:	f7f9 febb 	bl	800012c <__udivsi3>
 80063b6:	0003      	movs	r3, r0
 80063b8:	b29b      	uxth	r3, r3
 80063ba:	62bb      	str	r3, [r7, #40]	; 0x28
      if ((usartdiv >= UART_BRR_MIN) && (usartdiv <= UART_BRR_MAX))
 80063bc:	6abb      	ldr	r3, [r7, #40]	; 0x28
 80063be:	2b0f      	cmp	r3, #15
 80063c0:	d909      	bls.n	80063d6 <UART_SetConfig+0x486>
 80063c2:	6aba      	ldr	r2, [r7, #40]	; 0x28
 80063c4:	2380      	movs	r3, #128	; 0x80
 80063c6:	025b      	lsls	r3, r3, #9
 80063c8:	429a      	cmp	r2, r3
 80063ca:	d204      	bcs.n	80063d6 <UART_SetConfig+0x486>
      {
        huart->Instance->BRR = usartdiv;
 80063cc:	69fb      	ldr	r3, [r7, #28]
 80063ce:	681b      	ldr	r3, [r3, #0]
 80063d0:	6aba      	ldr	r2, [r7, #40]	; 0x28
 80063d2:	60da      	str	r2, [r3, #12]
 80063d4:	e006      	b.n	80063e4 <UART_SetConfig+0x494>
      }
      else
      {
        ret = HAL_ERROR;
 80063d6:	231a      	movs	r3, #26
 80063d8:	2218      	movs	r2, #24
 80063da:	4694      	mov	ip, r2
 80063dc:	44bc      	add	ip, r7
 80063de:	4463      	add	r3, ip
 80063e0:	2201      	movs	r2, #1
 80063e2:	701a      	strb	r2, [r3, #0]
    }
  }


  /* Clear ISR function pointers */
  huart->RxISR = NULL;
 80063e4:	69fb      	ldr	r3, [r7, #28]
 80063e6:	2200      	movs	r2, #0
 80063e8:	665a      	str	r2, [r3, #100]	; 0x64
  huart->TxISR = NULL;
 80063ea:	69fb      	ldr	r3, [r7, #28]
 80063ec:	2200      	movs	r2, #0
 80063ee:	669a      	str	r2, [r3, #104]	; 0x68

  return ret;
 80063f0:	231a      	movs	r3, #26
 80063f2:	2218      	movs	r2, #24
 80063f4:	4694      	mov	ip, r2
 80063f6:	44bc      	add	ip, r7
 80063f8:	4463      	add	r3, ip
 80063fa:	781b      	ldrb	r3, [r3, #0]
}
 80063fc:	0018      	movs	r0, r3
 80063fe:	46bd      	mov	sp, r7
 8006400:	b00e      	add	sp, #56	; 0x38
 8006402:	bdb0      	pop	{r4, r5, r7, pc}
 8006404:	0800726c 	.word	0x0800726c
 8006408:	40021000 	.word	0x40021000
 800640c:	003d0900 	.word	0x003d0900
 8006410:	00f42400 	.word	0x00f42400

08006414 <UART_AdvFeatureConfig>:
  * @brief Configure the UART peripheral advanced features.
  * @param huart UART handle.
  * @retval None
  */
void UART_AdvFeatureConfig(UART_HandleTypeDef *huart)
{
 8006414:	b580      	push	{r7, lr}
 8006416:	b082      	sub	sp, #8
 8006418:	af00      	add	r7, sp, #0
 800641a:	6078      	str	r0, [r7, #4]
  /* Check whether the set of advanced features to configure is properly set */
  assert_param(IS_UART_ADVFEATURE_INIT(huart->AdvancedInit.AdvFeatureInit));

  /* if required, configure TX pin active level inversion */
  if (HAL_IS_BIT_SET(huart->AdvancedInit.AdvFeatureInit, UART_ADVFEATURE_TXINVERT_INIT))
 800641c:	687b      	ldr	r3, [r7, #4]
 800641e:	6a5b      	ldr	r3, [r3, #36]	; 0x24
 8006420:	2201      	movs	r2, #1
 8006422:	4013      	ands	r3, r2
 8006424:	d00b      	beq.n	800643e <UART_AdvFeatureConfig+0x2a>
  {
    assert_param(IS_UART_ADVFEATURE_TXINV(huart->AdvancedInit.TxPinLevelInvert));
    MODIFY_REG(huart->Instance->CR2, USART_CR2_TXINV, huart->AdvancedInit.TxPinLevelInvert);
 8006426:	687b      	ldr	r3, [r7, #4]
 8006428:	681b      	ldr	r3, [r3, #0]
 800642a:	685b      	ldr	r3, [r3, #4]
 800642c:	4a4a      	ldr	r2, [pc, #296]	; (8006558 <UART_AdvFeatureConfig+0x144>)
 800642e:	4013      	ands	r3, r2
 8006430:	0019      	movs	r1, r3
 8006432:	687b      	ldr	r3, [r7, #4]
 8006434:	6a9a      	ldr	r2, [r3, #40]	; 0x28
 8006436:	687b      	ldr	r3, [r7, #4]
 8006438:	681b      	ldr	r3, [r3, #0]
 800643a:	430a      	orrs	r2, r1
 800643c:	605a      	str	r2, [r3, #4]
  }

  /* if required, configure RX pin active level inversion */
  if (HAL_IS_BIT_SET(huart->AdvancedInit.AdvFeatureInit, UART_ADVFEATURE_RXINVERT_INIT))
 800643e:	687b      	ldr	r3, [r7, #4]
 8006440:	6a5b      	ldr	r3, [r3, #36]	; 0x24
 8006442:	2202      	movs	r2, #2
 8006444:	4013      	ands	r3, r2
 8006446:	d00b      	beq.n	8006460 <UART_AdvFeatureConfig+0x4c>
  {
    assert_param(IS_UART_ADVFEATURE_RXINV(huart->AdvancedInit.RxPinLevelInvert));
    MODIFY_REG(huart->Instance->CR2, USART_CR2_RXINV, huart->AdvancedInit.RxPinLevelInvert);
 8006448:	687b      	ldr	r3, [r7, #4]
 800644a:	681b      	ldr	r3, [r3, #0]
 800644c:	685b      	ldr	r3, [r3, #4]
 800644e:	4a43      	ldr	r2, [pc, #268]	; (800655c <UART_AdvFeatureConfig+0x148>)
 8006450:	4013      	ands	r3, r2
 8006452:	0019      	movs	r1, r3
 8006454:	687b      	ldr	r3, [r7, #4]
 8006456:	6ada      	ldr	r2, [r3, #44]	; 0x2c
 8006458:	687b      	ldr	r3, [r7, #4]
 800645a:	681b      	ldr	r3, [r3, #0]
 800645c:	430a      	orrs	r2, r1
 800645e:	605a      	str	r2, [r3, #4]
  }

  /* if required, configure data inversion */
  if (HAL_IS_BIT_SET(huart->AdvancedInit.AdvFeatureInit, UART_ADVFEATURE_DATAINVERT_INIT))
 8006460:	687b      	ldr	r3, [r7, #4]
 8006462:	6a5b      	ldr	r3, [r3, #36]	; 0x24
 8006464:	2204      	movs	r2, #4
 8006466:	4013      	ands	r3, r2
 8006468:	d00b      	beq.n	8006482 <UART_AdvFeatureConfig+0x6e>
  {
    assert_param(IS_UART_ADVFEATURE_DATAINV(huart->AdvancedInit.DataInvert));
    MODIFY_REG(huart->Instance->CR2, USART_CR2_DATAINV, huart->AdvancedInit.DataInvert);
 800646a:	687b      	ldr	r3, [r7, #4]
 800646c:	681b      	ldr	r3, [r3, #0]
 800646e:	685b      	ldr	r3, [r3, #4]
 8006470:	4a3b      	ldr	r2, [pc, #236]	; (8006560 <UART_AdvFeatureConfig+0x14c>)
 8006472:	4013      	ands	r3, r2
 8006474:	0019      	movs	r1, r3
 8006476:	687b      	ldr	r3, [r7, #4]
 8006478:	6b1a      	ldr	r2, [r3, #48]	; 0x30
 800647a:	687b      	ldr	r3, [r7, #4]
 800647c:	681b      	ldr	r3, [r3, #0]
 800647e:	430a      	orrs	r2, r1
 8006480:	605a      	str	r2, [r3, #4]
  }

  /* if required, configure RX/TX pins swap */
  if (HAL_IS_BIT_SET(huart->AdvancedInit.AdvFeatureInit, UART_ADVFEATURE_SWAP_INIT))
 8006482:	687b      	ldr	r3, [r7, #4]
 8006484:	6a5b      	ldr	r3, [r3, #36]	; 0x24
 8006486:	2208      	movs	r2, #8
 8006488:	4013      	ands	r3, r2
 800648a:	d00b      	beq.n	80064a4 <UART_AdvFeatureConfig+0x90>
  {
    assert_param(IS_UART_ADVFEATURE_SWAP(huart->AdvancedInit.Swap));
    MODIFY_REG(huart->Instance->CR2, USART_CR2_SWAP, huart->AdvancedInit.Swap);
 800648c:	687b      	ldr	r3, [r7, #4]
 800648e:	681b      	ldr	r3, [r3, #0]
 8006490:	685b      	ldr	r3, [r3, #4]
 8006492:	4a34      	ldr	r2, [pc, #208]	; (8006564 <UART_AdvFeatureConfig+0x150>)
 8006494:	4013      	ands	r3, r2
 8006496:	0019      	movs	r1, r3
 8006498:	687b      	ldr	r3, [r7, #4]
 800649a:	6b5a      	ldr	r2, [r3, #52]	; 0x34
 800649c:	687b      	ldr	r3, [r7, #4]
 800649e:	681b      	ldr	r3, [r3, #0]
 80064a0:	430a      	orrs	r2, r1
 80064a2:	605a      	str	r2, [r3, #4]
  }

  /* if required, configure RX overrun detection disabling */
  if (HAL_IS_BIT_SET(huart->AdvancedInit.AdvFeatureInit, UART_ADVFEATURE_RXOVERRUNDISABLE_INIT))
 80064a4:	687b      	ldr	r3, [r7, #4]
 80064a6:	6a5b      	ldr	r3, [r3, #36]	; 0x24
 80064a8:	2210      	movs	r2, #16
 80064aa:	4013      	ands	r3, r2
 80064ac:	d00b      	beq.n	80064c6 <UART_AdvFeatureConfig+0xb2>
  {
    assert_param(IS_UART_OVERRUN(huart->AdvancedInit.OverrunDisable));
    MODIFY_REG(huart->Instance->CR3, USART_CR3_OVRDIS, huart->AdvancedInit.OverrunDisable);
 80064ae:	687b      	ldr	r3, [r7, #4]
 80064b0:	681b      	ldr	r3, [r3, #0]
 80064b2:	689b      	ldr	r3, [r3, #8]
 80064b4:	4a2c      	ldr	r2, [pc, #176]	; (8006568 <UART_AdvFeatureConfig+0x154>)
 80064b6:	4013      	ands	r3, r2
 80064b8:	0019      	movs	r1, r3
 80064ba:	687b      	ldr	r3, [r7, #4]
 80064bc:	6b9a      	ldr	r2, [r3, #56]	; 0x38
 80064be:	687b      	ldr	r3, [r7, #4]
 80064c0:	681b      	ldr	r3, [r3, #0]
 80064c2:	430a      	orrs	r2, r1
 80064c4:	609a      	str	r2, [r3, #8]
  }

  /* if required, configure DMA disabling on reception error */
  if (HAL_IS_BIT_SET(huart->AdvancedInit.AdvFeatureInit, UART_ADVFEATURE_DMADISABLEONERROR_INIT))
 80064c6:	687b      	ldr	r3, [r7, #4]
 80064c8:	6a5b      	ldr	r3, [r3, #36]	; 0x24
 80064ca:	2220      	movs	r2, #32
 80064cc:	4013      	ands	r3, r2
 80064ce:	d00b      	beq.n	80064e8 <UART_AdvFeatureConfig+0xd4>
  {
    assert_param(IS_UART_ADVFEATURE_DMAONRXERROR(huart->AdvancedInit.DMADisableonRxError));
    MODIFY_REG(huart->Instance->CR3, USART_CR3_DDRE, huart->AdvancedInit.DMADisableonRxError);
 80064d0:	687b      	ldr	r3, [r7, #4]
 80064d2:	681b      	ldr	r3, [r3, #0]
 80064d4:	689b      	ldr	r3, [r3, #8]
 80064d6:	4a25      	ldr	r2, [pc, #148]	; (800656c <UART_AdvFeatureConfig+0x158>)
 80064d8:	4013      	ands	r3, r2
 80064da:	0019      	movs	r1, r3
 80064dc:	687b      	ldr	r3, [r7, #4]
 80064de:	6bda      	ldr	r2, [r3, #60]	; 0x3c
 80064e0:	687b      	ldr	r3, [r7, #4]
 80064e2:	681b      	ldr	r3, [r3, #0]
 80064e4:	430a      	orrs	r2, r1
 80064e6:	609a      	str	r2, [r3, #8]
  }

  /* if required, configure auto Baud rate detection scheme */
  if (HAL_IS_BIT_SET(huart->AdvancedInit.AdvFeatureInit, UART_ADVFEATURE_AUTOBAUDRATE_INIT))
 80064e8:	687b      	ldr	r3, [r7, #4]
 80064ea:	6a5b      	ldr	r3, [r3, #36]	; 0x24
 80064ec:	2240      	movs	r2, #64	; 0x40
 80064ee:	4013      	ands	r3, r2
 80064f0:	d01d      	beq.n	800652e <UART_AdvFeatureConfig+0x11a>
  {
    assert_param(IS_USART_AUTOBAUDRATE_DETECTION_INSTANCE(huart->Instance));
    assert_param(IS_UART_ADVFEATURE_AUTOBAUDRATE(huart->AdvancedInit.AutoBaudRateEnable));
    MODIFY_REG(huart->Instance->CR2, USART_CR2_ABREN, huart->AdvancedInit.AutoBaudRateEnable);
 80064f2:	687b      	ldr	r3, [r7, #4]
 80064f4:	681b      	ldr	r3, [r3, #0]
 80064f6:	685b      	ldr	r3, [r3, #4]
 80064f8:	4a1d      	ldr	r2, [pc, #116]	; (8006570 <UART_AdvFeatureConfig+0x15c>)
 80064fa:	4013      	ands	r3, r2
 80064fc:	0019      	movs	r1, r3
 80064fe:	687b      	ldr	r3, [r7, #4]
 8006500:	6c1a      	ldr	r2, [r3, #64]	; 0x40
 8006502:	687b      	ldr	r3, [r7, #4]
 8006504:	681b      	ldr	r3, [r3, #0]
 8006506:	430a      	orrs	r2, r1
 8006508:	605a      	str	r2, [r3, #4]
    /* set auto Baudrate detection parameters if detection is enabled */
    if (huart->AdvancedInit.AutoBaudRateEnable == UART_ADVFEATURE_AUTOBAUDRATE_ENABLE)
 800650a:	687b      	ldr	r3, [r7, #4]
 800650c:	6c1a      	ldr	r2, [r3, #64]	; 0x40
 800650e:	2380      	movs	r3, #128	; 0x80
 8006510:	035b      	lsls	r3, r3, #13
 8006512:	429a      	cmp	r2, r3
 8006514:	d10b      	bne.n	800652e <UART_AdvFeatureConfig+0x11a>
    {
      assert_param(IS_UART_ADVFEATURE_AUTOBAUDRATEMODE(huart->AdvancedInit.AutoBaudRateMode));
      MODIFY_REG(huart->Instance->CR2, USART_CR2_ABRMODE, huart->AdvancedInit.AutoBaudRateMode);
 8006516:	687b      	ldr	r3, [r7, #4]
 8006518:	681b      	ldr	r3, [r3, #0]
 800651a:	685b      	ldr	r3, [r3, #4]
 800651c:	4a15      	ldr	r2, [pc, #84]	; (8006574 <UART_AdvFeatureConfig+0x160>)
 800651e:	4013      	ands	r3, r2
 8006520:	0019      	movs	r1, r3
 8006522:	687b      	ldr	r3, [r7, #4]
 8006524:	6c5a      	ldr	r2, [r3, #68]	; 0x44
 8006526:	687b      	ldr	r3, [r7, #4]
 8006528:	681b      	ldr	r3, [r3, #0]
 800652a:	430a      	orrs	r2, r1
 800652c:	605a      	str	r2, [r3, #4]
    }
  }

  /* if required, configure MSB first on communication line */
  if (HAL_IS_BIT_SET(huart->AdvancedInit.AdvFeatureInit, UART_ADVFEATURE_MSBFIRST_INIT))
 800652e:	687b      	ldr	r3, [r7, #4]
 8006530:	6a5b      	ldr	r3, [r3, #36]	; 0x24
 8006532:	2280      	movs	r2, #128	; 0x80
 8006534:	4013      	ands	r3, r2
 8006536:	d00b      	beq.n	8006550 <UART_AdvFeatureConfig+0x13c>
  {
    assert_param(IS_UART_ADVFEATURE_MSBFIRST(huart->AdvancedInit.MSBFirst));
    MODIFY_REG(huart->Instance->CR2, USART_CR2_MSBFIRST, huart->AdvancedInit.MSBFirst);
 8006538:	687b      	ldr	r3, [r7, #4]
 800653a:	681b      	ldr	r3, [r3, #0]
 800653c:	685b      	ldr	r3, [r3, #4]
 800653e:	4a0e      	ldr	r2, [pc, #56]	; (8006578 <UART_AdvFeatureConfig+0x164>)
 8006540:	4013      	ands	r3, r2
 8006542:	0019      	movs	r1, r3
 8006544:	687b      	ldr	r3, [r7, #4]
 8006546:	6c9a      	ldr	r2, [r3, #72]	; 0x48
 8006548:	687b      	ldr	r3, [r7, #4]
 800654a:	681b      	ldr	r3, [r3, #0]
 800654c:	430a      	orrs	r2, r1
 800654e:	605a      	str	r2, [r3, #4]
  }
}
 8006550:	46c0      	nop			; (mov r8, r8)
 8006552:	46bd      	mov	sp, r7
 8006554:	b002      	add	sp, #8
 8006556:	bd80      	pop	{r7, pc}
 8006558:	fffdffff 	.word	0xfffdffff
 800655c:	fffeffff 	.word	0xfffeffff
 8006560:	fffbffff 	.word	0xfffbffff
 8006564:	ffff7fff 	.word	0xffff7fff
 8006568:	ffffefff 	.word	0xffffefff
 800656c:	ffffdfff 	.word	0xffffdfff
 8006570:	ffefffff 	.word	0xffefffff
 8006574:	ff9fffff 	.word	0xff9fffff
 8006578:	fff7ffff 	.word	0xfff7ffff

0800657c <UART_CheckIdleState>:
  * @brief Check the UART Idle State.
  * @param huart UART handle.
  * @retval HAL status
  */
HAL_StatusTypeDef UART_CheckIdleState(UART_HandleTypeDef *huart)
{
 800657c:	b580      	push	{r7, lr}
 800657e:	b086      	sub	sp, #24
 8006580:	af02      	add	r7, sp, #8
 8006582:	6078      	str	r0, [r7, #4]
  uint32_t tickstart;

  /* Initialize the UART ErrorCode */
  huart->ErrorCode = HAL_UART_ERROR_NONE;
 8006584:	687b      	ldr	r3, [r7, #4]
 8006586:	2280      	movs	r2, #128	; 0x80
 8006588:	2100      	movs	r1, #0
 800658a:	5099      	str	r1, [r3, r2]

  /* Init tickstart for timeout management */
  tickstart = HAL_GetTick();
 800658c:	f7fc fbe0 	bl	8002d50 <HAL_GetTick>
 8006590:	0003      	movs	r3, r0
 8006592:	60fb      	str	r3, [r7, #12]

  /* Check if the Transmitter is enabled */
  if ((huart->Instance->CR1 & USART_CR1_TE) == USART_CR1_TE)
 8006594:	687b      	ldr	r3, [r7, #4]
 8006596:	681b      	ldr	r3, [r3, #0]
 8006598:	681b      	ldr	r3, [r3, #0]
 800659a:	2208      	movs	r2, #8
 800659c:	4013      	ands	r3, r2
 800659e:	2b08      	cmp	r3, #8
 80065a0:	d10c      	bne.n	80065bc <UART_CheckIdleState+0x40>
  {
    /* Wait until TEACK flag is set */
    if (UART_WaitOnFlagUntilTimeout(huart, USART_ISR_TEACK, RESET, tickstart, HAL_UART_TIMEOUT_VALUE) != HAL_OK)
 80065a2:	68fb      	ldr	r3, [r7, #12]
 80065a4:	2280      	movs	r2, #128	; 0x80
 80065a6:	0391      	lsls	r1, r2, #14
 80065a8:	6878      	ldr	r0, [r7, #4]
 80065aa:	4a17      	ldr	r2, [pc, #92]	; (8006608 <UART_CheckIdleState+0x8c>)
 80065ac:	9200      	str	r2, [sp, #0]
 80065ae:	2200      	movs	r2, #0
 80065b0:	f000 f82c 	bl	800660c <UART_WaitOnFlagUntilTimeout>
 80065b4:	1e03      	subs	r3, r0, #0
 80065b6:	d001      	beq.n	80065bc <UART_CheckIdleState+0x40>
    {
      /* Timeout occurred */
      return HAL_TIMEOUT;
 80065b8:	2303      	movs	r3, #3
 80065ba:	e021      	b.n	8006600 <UART_CheckIdleState+0x84>
    }
  }

  /* Check if the Receiver is enabled */
  if ((huart->Instance->CR1 & USART_CR1_RE) == USART_CR1_RE)
 80065bc:	687b      	ldr	r3, [r7, #4]
 80065be:	681b      	ldr	r3, [r3, #0]
 80065c0:	681b      	ldr	r3, [r3, #0]
 80065c2:	2204      	movs	r2, #4
 80065c4:	4013      	ands	r3, r2
 80065c6:	2b04      	cmp	r3, #4
 80065c8:	d10c      	bne.n	80065e4 <UART_CheckIdleState+0x68>
  {
    /* Wait until REACK flag is set */
    if (UART_WaitOnFlagUntilTimeout(huart, USART_ISR_REACK, RESET, tickstart, HAL_UART_TIMEOUT_VALUE) != HAL_OK)
 80065ca:	68fb      	ldr	r3, [r7, #12]
 80065cc:	2280      	movs	r2, #128	; 0x80
 80065ce:	03d1      	lsls	r1, r2, #15
 80065d0:	6878      	ldr	r0, [r7, #4]
 80065d2:	4a0d      	ldr	r2, [pc, #52]	; (8006608 <UART_CheckIdleState+0x8c>)
 80065d4:	9200      	str	r2, [sp, #0]
 80065d6:	2200      	movs	r2, #0
 80065d8:	f000 f818 	bl	800660c <UART_WaitOnFlagUntilTimeout>
 80065dc:	1e03      	subs	r3, r0, #0
 80065de:	d001      	beq.n	80065e4 <UART_CheckIdleState+0x68>
    {
      /* Timeout occurred */
      return HAL_TIMEOUT;
 80065e0:	2303      	movs	r3, #3
 80065e2:	e00d      	b.n	8006600 <UART_CheckIdleState+0x84>
    }
  }

  /* Initialize the UART State */
  huart->gState = HAL_UART_STATE_READY;
 80065e4:	687b      	ldr	r3, [r7, #4]
 80065e6:	2220      	movs	r2, #32
 80065e8:	679a      	str	r2, [r3, #120]	; 0x78
  huart->RxState = HAL_UART_STATE_READY;
 80065ea:	687b      	ldr	r3, [r7, #4]
 80065ec:	2220      	movs	r2, #32
 80065ee:	67da      	str	r2, [r3, #124]	; 0x7c
  huart->ReceptionType = HAL_UART_RECEPTION_STANDARD;
 80065f0:	687b      	ldr	r3, [r7, #4]
 80065f2:	2200      	movs	r2, #0
 80065f4:	661a      	str	r2, [r3, #96]	; 0x60

  __HAL_UNLOCK(huart);
 80065f6:	687b      	ldr	r3, [r7, #4]
 80065f8:	2274      	movs	r2, #116	; 0x74
 80065fa:	2100      	movs	r1, #0
 80065fc:	5499      	strb	r1, [r3, r2]

  return HAL_OK;
 80065fe:	2300      	movs	r3, #0
}
 8006600:	0018      	movs	r0, r3
 8006602:	46bd      	mov	sp, r7
 8006604:	b004      	add	sp, #16
 8006606:	bd80      	pop	{r7, pc}
 8006608:	01ffffff 	.word	0x01ffffff

0800660c <UART_WaitOnFlagUntilTimeout>:
  * @param Timeout   Timeout duration
  * @retval HAL status
  */
HAL_StatusTypeDef UART_WaitOnFlagUntilTimeout(UART_HandleTypeDef *huart, uint32_t Flag, FlagStatus Status,
                                              uint32_t Tickstart, uint32_t Timeout)
{
 800660c:	b580      	push	{r7, lr}
 800660e:	b094      	sub	sp, #80	; 0x50
 8006610:	af00      	add	r7, sp, #0
 8006612:	60f8      	str	r0, [r7, #12]
 8006614:	60b9      	str	r1, [r7, #8]
 8006616:	603b      	str	r3, [r7, #0]
 8006618:	1dfb      	adds	r3, r7, #7
 800661a:	701a      	strb	r2, [r3, #0]
  /* Wait until flag is set */
  while ((__HAL_UART_GET_FLAG(huart, Flag) ? SET : RESET) == Status)
 800661c:	e0a3      	b.n	8006766 <UART_WaitOnFlagUntilTimeout+0x15a>
  {
    /* Check for the Timeout */
    if (Timeout != HAL_MAX_DELAY)
 800661e:	6dbb      	ldr	r3, [r7, #88]	; 0x58
 8006620:	3301      	adds	r3, #1
 8006622:	d100      	bne.n	8006626 <UART_WaitOnFlagUntilTimeout+0x1a>
 8006624:	e09f      	b.n	8006766 <UART_WaitOnFlagUntilTimeout+0x15a>
    {
      if (((HAL_GetTick() - Tickstart) > Timeout) || (Timeout == 0U))
 8006626:	f7fc fb93 	bl	8002d50 <HAL_GetTick>
 800662a:	0002      	movs	r2, r0
 800662c:	683b      	ldr	r3, [r7, #0]
 800662e:	1ad3      	subs	r3, r2, r3
 8006630:	6dba      	ldr	r2, [r7, #88]	; 0x58
 8006632:	429a      	cmp	r2, r3
 8006634:	d302      	bcc.n	800663c <UART_WaitOnFlagUntilTimeout+0x30>
 8006636:	6dbb      	ldr	r3, [r7, #88]	; 0x58
 8006638:	2b00      	cmp	r3, #0
 800663a:	d13d      	bne.n	80066b8 <UART_WaitOnFlagUntilTimeout+0xac>
 */
__STATIC_FORCEINLINE uint32_t __get_PRIMASK(void)
{
  uint32_t result;

  __ASM volatile ("MRS %0, primask" : "=r" (result) :: "memory");
 800663c:	f3ef 8310 	mrs	r3, PRIMASK
 8006640:	62bb      	str	r3, [r7, #40]	; 0x28
  return(result);
 8006642:	6abb      	ldr	r3, [r7, #40]	; 0x28
      {
        /* Disable TXE, RXNE, PE and ERR (Frame error, noise error, overrun error)
           interrupts for the interrupt process */
        ATOMIC_CLEAR_BIT(huart->Instance->CR1, (USART_CR1_RXNEIE | USART_CR1_PEIE | USART_CR1_TXEIE));
 8006644:	647b      	str	r3, [r7, #68]	; 0x44
 8006646:	2301      	movs	r3, #1
 8006648:	62fb      	str	r3, [r7, #44]	; 0x2c
  \details Assigns the given value to the Priority Mask Register.
  \param [in]    priMask  Priority Mask
 */
__STATIC_FORCEINLINE void __set_PRIMASK(uint32_t priMask)
{
  __ASM volatile ("MSR primask, %0" : : "r" (priMask) : "memory");
 800664a:	6afb      	ldr	r3, [r7, #44]	; 0x2c
 800664c:	f383 8810 	msr	PRIMASK, r3
}
 8006650:	46c0      	nop			; (mov r8, r8)
 8006652:	68fb      	ldr	r3, [r7, #12]
 8006654:	681b      	ldr	r3, [r3, #0]
 8006656:	681a      	ldr	r2, [r3, #0]
 8006658:	68fb      	ldr	r3, [r7, #12]
 800665a:	681b      	ldr	r3, [r3, #0]
 800665c:	494c      	ldr	r1, [pc, #304]	; (8006790 <UART_WaitOnFlagUntilTimeout+0x184>)
 800665e:	400a      	ands	r2, r1
 8006660:	601a      	str	r2, [r3, #0]
 8006662:	6c7b      	ldr	r3, [r7, #68]	; 0x44
 8006664:	633b      	str	r3, [r7, #48]	; 0x30
  __ASM volatile ("MSR primask, %0" : : "r" (priMask) : "memory");
 8006666:	6b3b      	ldr	r3, [r7, #48]	; 0x30
 8006668:	f383 8810 	msr	PRIMASK, r3
}
 800666c:	46c0      	nop			; (mov r8, r8)
  __ASM volatile ("MRS %0, primask" : "=r" (result) :: "memory");
 800666e:	f3ef 8310 	mrs	r3, PRIMASK
 8006672:	637b      	str	r3, [r7, #52]	; 0x34
  return(result);
 8006674:	6b7b      	ldr	r3, [r7, #52]	; 0x34
        ATOMIC_CLEAR_BIT(huart->Instance->CR3, USART_CR3_EIE);
 8006676:	643b      	str	r3, [r7, #64]	; 0x40
 8006678:	2301      	movs	r3, #1
 800667a:	63bb      	str	r3, [r7, #56]	; 0x38
  __ASM volatile ("MSR primask, %0" : : "r" (priMask) : "memory");
 800667c:	6bbb      	ldr	r3, [r7, #56]	; 0x38
 800667e:	f383 8810 	msr	PRIMASK, r3
}
 8006682:	46c0      	nop			; (mov r8, r8)
 8006684:	68fb      	ldr	r3, [r7, #12]
 8006686:	681b      	ldr	r3, [r3, #0]
 8006688:	689a      	ldr	r2, [r3, #8]
 800668a:	68fb      	ldr	r3, [r7, #12]
 800668c:	681b      	ldr	r3, [r3, #0]
 800668e:	2101      	movs	r1, #1
 8006690:	438a      	bics	r2, r1
 8006692:	609a      	str	r2, [r3, #8]
 8006694:	6c3b      	ldr	r3, [r7, #64]	; 0x40
 8006696:	63fb      	str	r3, [r7, #60]	; 0x3c
  __ASM volatile ("MSR primask, %0" : : "r" (priMask) : "memory");
 8006698:	6bfb      	ldr	r3, [r7, #60]	; 0x3c
 800669a:	f383 8810 	msr	PRIMASK, r3
}
 800669e:	46c0      	nop			; (mov r8, r8)

        huart->gState = HAL_UART_STATE_READY;
 80066a0:	68fb      	ldr	r3, [r7, #12]
 80066a2:	2220      	movs	r2, #32
 80066a4:	679a      	str	r2, [r3, #120]	; 0x78
        huart->RxState = HAL_UART_STATE_READY;
 80066a6:	68fb      	ldr	r3, [r7, #12]
 80066a8:	2220      	movs	r2, #32
 80066aa:	67da      	str	r2, [r3, #124]	; 0x7c

        __HAL_UNLOCK(huart);
 80066ac:	68fb      	ldr	r3, [r7, #12]
 80066ae:	2274      	movs	r2, #116	; 0x74
 80066b0:	2100      	movs	r1, #0
 80066b2:	5499      	strb	r1, [r3, r2]

        return HAL_TIMEOUT;
 80066b4:	2303      	movs	r3, #3
 80066b6:	e067      	b.n	8006788 <UART_WaitOnFlagUntilTimeout+0x17c>
      }

      if (READ_BIT(huart->Instance->CR1, USART_CR1_RE) != 0U)
 80066b8:	68fb      	ldr	r3, [r7, #12]
 80066ba:	681b      	ldr	r3, [r3, #0]
 80066bc:	681b      	ldr	r3, [r3, #0]
 80066be:	2204      	movs	r2, #4
 80066c0:	4013      	ands	r3, r2
 80066c2:	d050      	beq.n	8006766 <UART_WaitOnFlagUntilTimeout+0x15a>
      {
        if (__HAL_UART_GET_FLAG(huart, UART_FLAG_RTOF) == SET)
 80066c4:	68fb      	ldr	r3, [r7, #12]
 80066c6:	681b      	ldr	r3, [r3, #0]
 80066c8:	69da      	ldr	r2, [r3, #28]
 80066ca:	2380      	movs	r3, #128	; 0x80
 80066cc:	011b      	lsls	r3, r3, #4
 80066ce:	401a      	ands	r2, r3
 80066d0:	2380      	movs	r3, #128	; 0x80
 80066d2:	011b      	lsls	r3, r3, #4
 80066d4:	429a      	cmp	r2, r3
 80066d6:	d146      	bne.n	8006766 <UART_WaitOnFlagUntilTimeout+0x15a>
        {
          /* Clear Receiver Timeout flag*/
          __HAL_UART_CLEAR_FLAG(huart, UART_CLEAR_RTOF);
 80066d8:	68fb      	ldr	r3, [r7, #12]
 80066da:	681b      	ldr	r3, [r3, #0]
 80066dc:	2280      	movs	r2, #128	; 0x80
 80066de:	0112      	lsls	r2, r2, #4
 80066e0:	621a      	str	r2, [r3, #32]
  __ASM volatile ("MRS %0, primask" : "=r" (result) :: "memory");
 80066e2:	f3ef 8310 	mrs	r3, PRIMASK
 80066e6:	613b      	str	r3, [r7, #16]
  return(result);
 80066e8:	693b      	ldr	r3, [r7, #16]

          /* Disable TXE, RXNE, PE and ERR (Frame error, noise error, overrun error)
             interrupts for the interrupt process */
          ATOMIC_CLEAR_BIT(huart->Instance->CR1, (USART_CR1_RXNEIE | USART_CR1_PEIE | USART_CR1_TXEIE));
 80066ea:	64fb      	str	r3, [r7, #76]	; 0x4c
 80066ec:	2301      	movs	r3, #1
 80066ee:	617b      	str	r3, [r7, #20]
  __ASM volatile ("MSR primask, %0" : : "r" (priMask) : "memory");
 80066f0:	697b      	ldr	r3, [r7, #20]
 80066f2:	f383 8810 	msr	PRIMASK, r3
}
 80066f6:	46c0      	nop			; (mov r8, r8)
 80066f8:	68fb      	ldr	r3, [r7, #12]
 80066fa:	681b      	ldr	r3, [r3, #0]
 80066fc:	681a      	ldr	r2, [r3, #0]
 80066fe:	68fb      	ldr	r3, [r7, #12]
 8006700:	681b      	ldr	r3, [r3, #0]
 8006702:	4923      	ldr	r1, [pc, #140]	; (8006790 <UART_WaitOnFlagUntilTimeout+0x184>)
 8006704:	400a      	ands	r2, r1
 8006706:	601a      	str	r2, [r3, #0]
 8006708:	6cfb      	ldr	r3, [r7, #76]	; 0x4c
 800670a:	61bb      	str	r3, [r7, #24]
  __ASM volatile ("MSR primask, %0" : : "r" (priMask) : "memory");
 800670c:	69bb      	ldr	r3, [r7, #24]
 800670e:	f383 8810 	msr	PRIMASK, r3
}
 8006712:	46c0      	nop			; (mov r8, r8)
  __ASM volatile ("MRS %0, primask" : "=r" (result) :: "memory");
 8006714:	f3ef 8310 	mrs	r3, PRIMASK
 8006718:	61fb      	str	r3, [r7, #28]
  return(result);
 800671a:	69fb      	ldr	r3, [r7, #28]
          ATOMIC_CLEAR_BIT(huart->Instance->CR3, USART_CR3_EIE);
 800671c:	64bb      	str	r3, [r7, #72]	; 0x48
 800671e:	2301      	movs	r3, #1
 8006720:	623b      	str	r3, [r7, #32]
  __ASM volatile ("MSR primask, %0" : : "r" (priMask) : "memory");
 8006722:	6a3b      	ldr	r3, [r7, #32]
 8006724:	f383 8810 	msr	PRIMASK, r3
}
 8006728:	46c0      	nop			; (mov r8, r8)
 800672a:	68fb      	ldr	r3, [r7, #12]
 800672c:	681b      	ldr	r3, [r3, #0]
 800672e:	689a      	ldr	r2, [r3, #8]
 8006730:	68fb      	ldr	r3, [r7, #12]
 8006732:	681b      	ldr	r3, [r3, #0]
 8006734:	2101      	movs	r1, #1
 8006736:	438a      	bics	r2, r1
 8006738:	609a      	str	r2, [r3, #8]
 800673a:	6cbb      	ldr	r3, [r7, #72]	; 0x48
 800673c:	627b      	str	r3, [r7, #36]	; 0x24
  __ASM volatile ("MSR primask, %0" : : "r" (priMask) : "memory");
 800673e:	6a7b      	ldr	r3, [r7, #36]	; 0x24
 8006740:	f383 8810 	msr	PRIMASK, r3
}
 8006744:	46c0      	nop			; (mov r8, r8)

          huart->gState = HAL_UART_STATE_READY;
 8006746:	68fb      	ldr	r3, [r7, #12]
 8006748:	2220      	movs	r2, #32
 800674a:	679a      	str	r2, [r3, #120]	; 0x78
          huart->RxState = HAL_UART_STATE_READY;
 800674c:	68fb      	ldr	r3, [r7, #12]
 800674e:	2220      	movs	r2, #32
 8006750:	67da      	str	r2, [r3, #124]	; 0x7c
          huart->ErrorCode = HAL_UART_ERROR_RTO;
 8006752:	68fb      	ldr	r3, [r7, #12]
 8006754:	2280      	movs	r2, #128	; 0x80
 8006756:	2120      	movs	r1, #32
 8006758:	5099      	str	r1, [r3, r2]

          /* Process Unlocked */
          __HAL_UNLOCK(huart);
 800675a:	68fb      	ldr	r3, [r7, #12]
 800675c:	2274      	movs	r2, #116	; 0x74
 800675e:	2100      	movs	r1, #0
 8006760:	5499      	strb	r1, [r3, r2]

          return HAL_TIMEOUT;
 8006762:	2303      	movs	r3, #3
 8006764:	e010      	b.n	8006788 <UART_WaitOnFlagUntilTimeout+0x17c>
  while ((__HAL_UART_GET_FLAG(huart, Flag) ? SET : RESET) == Status)
 8006766:	68fb      	ldr	r3, [r7, #12]
 8006768:	681b      	ldr	r3, [r3, #0]
 800676a:	69db      	ldr	r3, [r3, #28]
 800676c:	68ba      	ldr	r2, [r7, #8]
 800676e:	4013      	ands	r3, r2
 8006770:	68ba      	ldr	r2, [r7, #8]
 8006772:	1ad3      	subs	r3, r2, r3
 8006774:	425a      	negs	r2, r3
 8006776:	4153      	adcs	r3, r2
 8006778:	b2db      	uxtb	r3, r3
 800677a:	001a      	movs	r2, r3
 800677c:	1dfb      	adds	r3, r7, #7
 800677e:	781b      	ldrb	r3, [r3, #0]
 8006780:	429a      	cmp	r2, r3
 8006782:	d100      	bne.n	8006786 <UART_WaitOnFlagUntilTimeout+0x17a>
 8006784:	e74b      	b.n	800661e <UART_WaitOnFlagUntilTimeout+0x12>
        }
      }
    }
  }
  return HAL_OK;
 8006786:	2300      	movs	r3, #0
}
 8006788:	0018      	movs	r0, r3
 800678a:	46bd      	mov	sp, r7
 800678c:	b014      	add	sp, #80	; 0x50
 800678e:	bd80      	pop	{r7, pc}
 8006790:	fffffe5f 	.word	0xfffffe5f

08006794 <__errno>:
 8006794:	4b01      	ldr	r3, [pc, #4]	; (800679c <__errno+0x8>)
 8006796:	6818      	ldr	r0, [r3, #0]
 8006798:	4770      	bx	lr
 800679a:	46c0      	nop			; (mov r8, r8)
 800679c:	20000190 	.word	0x20000190

080067a0 <__libc_init_array>:
 80067a0:	b570      	push	{r4, r5, r6, lr}
 80067a2:	2600      	movs	r6, #0
 80067a4:	4d0c      	ldr	r5, [pc, #48]	; (80067d8 <__libc_init_array+0x38>)
 80067a6:	4c0d      	ldr	r4, [pc, #52]	; (80067dc <__libc_init_array+0x3c>)
 80067a8:	1b64      	subs	r4, r4, r5
 80067aa:	10a4      	asrs	r4, r4, #2
 80067ac:	42a6      	cmp	r6, r4
 80067ae:	d109      	bne.n	80067c4 <__libc_init_array+0x24>
 80067b0:	2600      	movs	r6, #0
 80067b2:	f000 fc5d 	bl	8007070 <_init>
 80067b6:	4d0a      	ldr	r5, [pc, #40]	; (80067e0 <__libc_init_array+0x40>)
 80067b8:	4c0a      	ldr	r4, [pc, #40]	; (80067e4 <__libc_init_array+0x44>)
 80067ba:	1b64      	subs	r4, r4, r5
 80067bc:	10a4      	asrs	r4, r4, #2
 80067be:	42a6      	cmp	r6, r4
 80067c0:	d105      	bne.n	80067ce <__libc_init_array+0x2e>
 80067c2:	bd70      	pop	{r4, r5, r6, pc}
 80067c4:	00b3      	lsls	r3, r6, #2
 80067c6:	58eb      	ldr	r3, [r5, r3]
 80067c8:	4798      	blx	r3
 80067ca:	3601      	adds	r6, #1
 80067cc:	e7ee      	b.n	80067ac <__libc_init_array+0xc>
 80067ce:	00b3      	lsls	r3, r6, #2
 80067d0:	58eb      	ldr	r3, [r5, r3]
 80067d2:	4798      	blx	r3
 80067d4:	3601      	adds	r6, #1
 80067d6:	e7f2      	b.n	80067be <__libc_init_array+0x1e>
 80067d8:	080072cc 	.word	0x080072cc
 80067dc:	080072cc 	.word	0x080072cc
 80067e0:	080072cc 	.word	0x080072cc
 80067e4:	080072d0 	.word	0x080072d0

080067e8 <memcpy>:
 80067e8:	2300      	movs	r3, #0
 80067ea:	b510      	push	{r4, lr}
 80067ec:	429a      	cmp	r2, r3
 80067ee:	d100      	bne.n	80067f2 <memcpy+0xa>
 80067f0:	bd10      	pop	{r4, pc}
 80067f2:	5ccc      	ldrb	r4, [r1, r3]
 80067f4:	54c4      	strb	r4, [r0, r3]
 80067f6:	3301      	adds	r3, #1
 80067f8:	e7f8      	b.n	80067ec <memcpy+0x4>

080067fa <memset>:
 80067fa:	0003      	movs	r3, r0
 80067fc:	1882      	adds	r2, r0, r2
 80067fe:	4293      	cmp	r3, r2
 8006800:	d100      	bne.n	8006804 <memset+0xa>
 8006802:	4770      	bx	lr
 8006804:	7019      	strb	r1, [r3, #0]
 8006806:	3301      	adds	r3, #1
 8006808:	e7f9      	b.n	80067fe <memset+0x4>
	...

0800680c <siprintf>:
 800680c:	b40e      	push	{r1, r2, r3}
 800680e:	b500      	push	{lr}
 8006810:	490b      	ldr	r1, [pc, #44]	; (8006840 <siprintf+0x34>)
 8006812:	b09c      	sub	sp, #112	; 0x70
 8006814:	ab1d      	add	r3, sp, #116	; 0x74
 8006816:	9002      	str	r0, [sp, #8]
 8006818:	9006      	str	r0, [sp, #24]
 800681a:	9107      	str	r1, [sp, #28]
 800681c:	9104      	str	r1, [sp, #16]
 800681e:	4809      	ldr	r0, [pc, #36]	; (8006844 <siprintf+0x38>)
 8006820:	4909      	ldr	r1, [pc, #36]	; (8006848 <siprintf+0x3c>)
 8006822:	cb04      	ldmia	r3!, {r2}
 8006824:	9105      	str	r1, [sp, #20]
 8006826:	6800      	ldr	r0, [r0, #0]
 8006828:	a902      	add	r1, sp, #8
 800682a:	9301      	str	r3, [sp, #4]
 800682c:	f000 f886 	bl	800693c <_svfiprintf_r>
 8006830:	2300      	movs	r3, #0
 8006832:	9a02      	ldr	r2, [sp, #8]
 8006834:	7013      	strb	r3, [r2, #0]
 8006836:	b01c      	add	sp, #112	; 0x70
 8006838:	bc08      	pop	{r3}
 800683a:	b003      	add	sp, #12
 800683c:	4718      	bx	r3
 800683e:	46c0      	nop			; (mov r8, r8)
 8006840:	7fffffff 	.word	0x7fffffff
 8006844:	20000190 	.word	0x20000190
 8006848:	ffff0208 	.word	0xffff0208

0800684c <strncat>:
 800684c:	0003      	movs	r3, r0
 800684e:	b530      	push	{r4, r5, lr}
 8006850:	781c      	ldrb	r4, [r3, #0]
 8006852:	2c00      	cmp	r4, #0
 8006854:	d108      	bne.n	8006868 <strncat+0x1c>
 8006856:	1889      	adds	r1, r1, r2
 8006858:	2a00      	cmp	r2, #0
 800685a:	d004      	beq.n	8006866 <strncat+0x1a>
 800685c:	4255      	negs	r5, r2
 800685e:	5d4d      	ldrb	r5, [r1, r5]
 8006860:	701d      	strb	r5, [r3, #0]
 8006862:	2d00      	cmp	r5, #0
 8006864:	d102      	bne.n	800686c <strncat+0x20>
 8006866:	bd30      	pop	{r4, r5, pc}
 8006868:	3301      	adds	r3, #1
 800686a:	e7f1      	b.n	8006850 <strncat+0x4>
 800686c:	2a01      	cmp	r2, #1
 800686e:	d100      	bne.n	8006872 <strncat+0x26>
 8006870:	705c      	strb	r4, [r3, #1]
 8006872:	3301      	adds	r3, #1
 8006874:	3a01      	subs	r2, #1
 8006876:	e7ef      	b.n	8006858 <strncat+0xc>

08006878 <__ssputs_r>:
 8006878:	b5f0      	push	{r4, r5, r6, r7, lr}
 800687a:	688e      	ldr	r6, [r1, #8]
 800687c:	b085      	sub	sp, #20
 800687e:	0007      	movs	r7, r0
 8006880:	000c      	movs	r4, r1
 8006882:	9203      	str	r2, [sp, #12]
 8006884:	9301      	str	r3, [sp, #4]
 8006886:	429e      	cmp	r6, r3
 8006888:	d83c      	bhi.n	8006904 <__ssputs_r+0x8c>
 800688a:	2390      	movs	r3, #144	; 0x90
 800688c:	898a      	ldrh	r2, [r1, #12]
 800688e:	00db      	lsls	r3, r3, #3
 8006890:	421a      	tst	r2, r3
 8006892:	d034      	beq.n	80068fe <__ssputs_r+0x86>
 8006894:	2503      	movs	r5, #3
 8006896:	6909      	ldr	r1, [r1, #16]
 8006898:	6823      	ldr	r3, [r4, #0]
 800689a:	1a5b      	subs	r3, r3, r1
 800689c:	9302      	str	r3, [sp, #8]
 800689e:	6963      	ldr	r3, [r4, #20]
 80068a0:	9802      	ldr	r0, [sp, #8]
 80068a2:	435d      	muls	r5, r3
 80068a4:	0feb      	lsrs	r3, r5, #31
 80068a6:	195d      	adds	r5, r3, r5
 80068a8:	9b01      	ldr	r3, [sp, #4]
 80068aa:	106d      	asrs	r5, r5, #1
 80068ac:	3301      	adds	r3, #1
 80068ae:	181b      	adds	r3, r3, r0
 80068b0:	42ab      	cmp	r3, r5
 80068b2:	d900      	bls.n	80068b6 <__ssputs_r+0x3e>
 80068b4:	001d      	movs	r5, r3
 80068b6:	0553      	lsls	r3, r2, #21
 80068b8:	d532      	bpl.n	8006920 <__ssputs_r+0xa8>
 80068ba:	0029      	movs	r1, r5
 80068bc:	0038      	movs	r0, r7
 80068be:	f000 fb27 	bl	8006f10 <_malloc_r>
 80068c2:	1e06      	subs	r6, r0, #0
 80068c4:	d109      	bne.n	80068da <__ssputs_r+0x62>
 80068c6:	230c      	movs	r3, #12
 80068c8:	603b      	str	r3, [r7, #0]
 80068ca:	2340      	movs	r3, #64	; 0x40
 80068cc:	2001      	movs	r0, #1
 80068ce:	89a2      	ldrh	r2, [r4, #12]
 80068d0:	4240      	negs	r0, r0
 80068d2:	4313      	orrs	r3, r2
 80068d4:	81a3      	strh	r3, [r4, #12]
 80068d6:	b005      	add	sp, #20
 80068d8:	bdf0      	pop	{r4, r5, r6, r7, pc}
 80068da:	9a02      	ldr	r2, [sp, #8]
 80068dc:	6921      	ldr	r1, [r4, #16]
 80068de:	f7ff ff83 	bl	80067e8 <memcpy>
 80068e2:	89a3      	ldrh	r3, [r4, #12]
 80068e4:	4a14      	ldr	r2, [pc, #80]	; (8006938 <__ssputs_r+0xc0>)
 80068e6:	401a      	ands	r2, r3
 80068e8:	2380      	movs	r3, #128	; 0x80
 80068ea:	4313      	orrs	r3, r2
 80068ec:	81a3      	strh	r3, [r4, #12]
 80068ee:	9b02      	ldr	r3, [sp, #8]
 80068f0:	6126      	str	r6, [r4, #16]
 80068f2:	18f6      	adds	r6, r6, r3
 80068f4:	6026      	str	r6, [r4, #0]
 80068f6:	6165      	str	r5, [r4, #20]
 80068f8:	9e01      	ldr	r6, [sp, #4]
 80068fa:	1aed      	subs	r5, r5, r3
 80068fc:	60a5      	str	r5, [r4, #8]
 80068fe:	9b01      	ldr	r3, [sp, #4]
 8006900:	429e      	cmp	r6, r3
 8006902:	d900      	bls.n	8006906 <__ssputs_r+0x8e>
 8006904:	9e01      	ldr	r6, [sp, #4]
 8006906:	0032      	movs	r2, r6
 8006908:	9903      	ldr	r1, [sp, #12]
 800690a:	6820      	ldr	r0, [r4, #0]
 800690c:	f000 faa3 	bl	8006e56 <memmove>
 8006910:	68a3      	ldr	r3, [r4, #8]
 8006912:	2000      	movs	r0, #0
 8006914:	1b9b      	subs	r3, r3, r6
 8006916:	60a3      	str	r3, [r4, #8]
 8006918:	6823      	ldr	r3, [r4, #0]
 800691a:	199e      	adds	r6, r3, r6
 800691c:	6026      	str	r6, [r4, #0]
 800691e:	e7da      	b.n	80068d6 <__ssputs_r+0x5e>
 8006920:	002a      	movs	r2, r5
 8006922:	0038      	movs	r0, r7
 8006924:	f000 fb52 	bl	8006fcc <_realloc_r>
 8006928:	1e06      	subs	r6, r0, #0
 800692a:	d1e0      	bne.n	80068ee <__ssputs_r+0x76>
 800692c:	0038      	movs	r0, r7
 800692e:	6921      	ldr	r1, [r4, #16]
 8006930:	f000 faa4 	bl	8006e7c <_free_r>
 8006934:	e7c7      	b.n	80068c6 <__ssputs_r+0x4e>
 8006936:	46c0      	nop			; (mov r8, r8)
 8006938:	fffffb7f 	.word	0xfffffb7f

0800693c <_svfiprintf_r>:
 800693c:	b5f0      	push	{r4, r5, r6, r7, lr}
 800693e:	b0a1      	sub	sp, #132	; 0x84
 8006940:	9003      	str	r0, [sp, #12]
 8006942:	001d      	movs	r5, r3
 8006944:	898b      	ldrh	r3, [r1, #12]
 8006946:	000f      	movs	r7, r1
 8006948:	0016      	movs	r6, r2
 800694a:	061b      	lsls	r3, r3, #24
 800694c:	d511      	bpl.n	8006972 <_svfiprintf_r+0x36>
 800694e:	690b      	ldr	r3, [r1, #16]
 8006950:	2b00      	cmp	r3, #0
 8006952:	d10e      	bne.n	8006972 <_svfiprintf_r+0x36>
 8006954:	2140      	movs	r1, #64	; 0x40
 8006956:	f000 fadb 	bl	8006f10 <_malloc_r>
 800695a:	6038      	str	r0, [r7, #0]
 800695c:	6138      	str	r0, [r7, #16]
 800695e:	2800      	cmp	r0, #0
 8006960:	d105      	bne.n	800696e <_svfiprintf_r+0x32>
 8006962:	230c      	movs	r3, #12
 8006964:	9a03      	ldr	r2, [sp, #12]
 8006966:	3801      	subs	r0, #1
 8006968:	6013      	str	r3, [r2, #0]
 800696a:	b021      	add	sp, #132	; 0x84
 800696c:	bdf0      	pop	{r4, r5, r6, r7, pc}
 800696e:	2340      	movs	r3, #64	; 0x40
 8006970:	617b      	str	r3, [r7, #20]
 8006972:	2300      	movs	r3, #0
 8006974:	ac08      	add	r4, sp, #32
 8006976:	6163      	str	r3, [r4, #20]
 8006978:	3320      	adds	r3, #32
 800697a:	7663      	strb	r3, [r4, #25]
 800697c:	3310      	adds	r3, #16
 800697e:	76a3      	strb	r3, [r4, #26]
 8006980:	9507      	str	r5, [sp, #28]
 8006982:	0035      	movs	r5, r6
 8006984:	782b      	ldrb	r3, [r5, #0]
 8006986:	2b00      	cmp	r3, #0
 8006988:	d001      	beq.n	800698e <_svfiprintf_r+0x52>
 800698a:	2b25      	cmp	r3, #37	; 0x25
 800698c:	d147      	bne.n	8006a1e <_svfiprintf_r+0xe2>
 800698e:	1bab      	subs	r3, r5, r6
 8006990:	9305      	str	r3, [sp, #20]
 8006992:	42b5      	cmp	r5, r6
 8006994:	d00c      	beq.n	80069b0 <_svfiprintf_r+0x74>
 8006996:	0032      	movs	r2, r6
 8006998:	0039      	movs	r1, r7
 800699a:	9803      	ldr	r0, [sp, #12]
 800699c:	f7ff ff6c 	bl	8006878 <__ssputs_r>
 80069a0:	1c43      	adds	r3, r0, #1
 80069a2:	d100      	bne.n	80069a6 <_svfiprintf_r+0x6a>
 80069a4:	e0ae      	b.n	8006b04 <_svfiprintf_r+0x1c8>
 80069a6:	6962      	ldr	r2, [r4, #20]
 80069a8:	9b05      	ldr	r3, [sp, #20]
 80069aa:	4694      	mov	ip, r2
 80069ac:	4463      	add	r3, ip
 80069ae:	6163      	str	r3, [r4, #20]
 80069b0:	782b      	ldrb	r3, [r5, #0]
 80069b2:	2b00      	cmp	r3, #0
 80069b4:	d100      	bne.n	80069b8 <_svfiprintf_r+0x7c>
 80069b6:	e0a5      	b.n	8006b04 <_svfiprintf_r+0x1c8>
 80069b8:	2201      	movs	r2, #1
 80069ba:	2300      	movs	r3, #0
 80069bc:	4252      	negs	r2, r2
 80069be:	6062      	str	r2, [r4, #4]
 80069c0:	a904      	add	r1, sp, #16
 80069c2:	3254      	adds	r2, #84	; 0x54
 80069c4:	1852      	adds	r2, r2, r1
 80069c6:	1c6e      	adds	r6, r5, #1
 80069c8:	6023      	str	r3, [r4, #0]
 80069ca:	60e3      	str	r3, [r4, #12]
 80069cc:	60a3      	str	r3, [r4, #8]
 80069ce:	7013      	strb	r3, [r2, #0]
 80069d0:	65a3      	str	r3, [r4, #88]	; 0x58
 80069d2:	2205      	movs	r2, #5
 80069d4:	7831      	ldrb	r1, [r6, #0]
 80069d6:	4854      	ldr	r0, [pc, #336]	; (8006b28 <_svfiprintf_r+0x1ec>)
 80069d8:	f000 fa32 	bl	8006e40 <memchr>
 80069dc:	1c75      	adds	r5, r6, #1
 80069de:	2800      	cmp	r0, #0
 80069e0:	d11f      	bne.n	8006a22 <_svfiprintf_r+0xe6>
 80069e2:	6822      	ldr	r2, [r4, #0]
 80069e4:	06d3      	lsls	r3, r2, #27
 80069e6:	d504      	bpl.n	80069f2 <_svfiprintf_r+0xb6>
 80069e8:	2353      	movs	r3, #83	; 0x53
 80069ea:	a904      	add	r1, sp, #16
 80069ec:	185b      	adds	r3, r3, r1
 80069ee:	2120      	movs	r1, #32
 80069f0:	7019      	strb	r1, [r3, #0]
 80069f2:	0713      	lsls	r3, r2, #28
 80069f4:	d504      	bpl.n	8006a00 <_svfiprintf_r+0xc4>
 80069f6:	2353      	movs	r3, #83	; 0x53
 80069f8:	a904      	add	r1, sp, #16
 80069fa:	185b      	adds	r3, r3, r1
 80069fc:	212b      	movs	r1, #43	; 0x2b
 80069fe:	7019      	strb	r1, [r3, #0]
 8006a00:	7833      	ldrb	r3, [r6, #0]
 8006a02:	2b2a      	cmp	r3, #42	; 0x2a
 8006a04:	d016      	beq.n	8006a34 <_svfiprintf_r+0xf8>
 8006a06:	0035      	movs	r5, r6
 8006a08:	2100      	movs	r1, #0
 8006a0a:	200a      	movs	r0, #10
 8006a0c:	68e3      	ldr	r3, [r4, #12]
 8006a0e:	782a      	ldrb	r2, [r5, #0]
 8006a10:	1c6e      	adds	r6, r5, #1
 8006a12:	3a30      	subs	r2, #48	; 0x30
 8006a14:	2a09      	cmp	r2, #9
 8006a16:	d94e      	bls.n	8006ab6 <_svfiprintf_r+0x17a>
 8006a18:	2900      	cmp	r1, #0
 8006a1a:	d111      	bne.n	8006a40 <_svfiprintf_r+0x104>
 8006a1c:	e017      	b.n	8006a4e <_svfiprintf_r+0x112>
 8006a1e:	3501      	adds	r5, #1
 8006a20:	e7b0      	b.n	8006984 <_svfiprintf_r+0x48>
 8006a22:	4b41      	ldr	r3, [pc, #260]	; (8006b28 <_svfiprintf_r+0x1ec>)
 8006a24:	6822      	ldr	r2, [r4, #0]
 8006a26:	1ac0      	subs	r0, r0, r3
 8006a28:	2301      	movs	r3, #1
 8006a2a:	4083      	lsls	r3, r0
 8006a2c:	4313      	orrs	r3, r2
 8006a2e:	002e      	movs	r6, r5
 8006a30:	6023      	str	r3, [r4, #0]
 8006a32:	e7ce      	b.n	80069d2 <_svfiprintf_r+0x96>
 8006a34:	9b07      	ldr	r3, [sp, #28]
 8006a36:	1d19      	adds	r1, r3, #4
 8006a38:	681b      	ldr	r3, [r3, #0]
 8006a3a:	9107      	str	r1, [sp, #28]
 8006a3c:	2b00      	cmp	r3, #0
 8006a3e:	db01      	blt.n	8006a44 <_svfiprintf_r+0x108>
 8006a40:	930b      	str	r3, [sp, #44]	; 0x2c
 8006a42:	e004      	b.n	8006a4e <_svfiprintf_r+0x112>
 8006a44:	425b      	negs	r3, r3
 8006a46:	60e3      	str	r3, [r4, #12]
 8006a48:	2302      	movs	r3, #2
 8006a4a:	4313      	orrs	r3, r2
 8006a4c:	6023      	str	r3, [r4, #0]
 8006a4e:	782b      	ldrb	r3, [r5, #0]
 8006a50:	2b2e      	cmp	r3, #46	; 0x2e
 8006a52:	d10a      	bne.n	8006a6a <_svfiprintf_r+0x12e>
 8006a54:	786b      	ldrb	r3, [r5, #1]
 8006a56:	2b2a      	cmp	r3, #42	; 0x2a
 8006a58:	d135      	bne.n	8006ac6 <_svfiprintf_r+0x18a>
 8006a5a:	9b07      	ldr	r3, [sp, #28]
 8006a5c:	3502      	adds	r5, #2
 8006a5e:	1d1a      	adds	r2, r3, #4
 8006a60:	681b      	ldr	r3, [r3, #0]
 8006a62:	9207      	str	r2, [sp, #28]
 8006a64:	2b00      	cmp	r3, #0
 8006a66:	db2b      	blt.n	8006ac0 <_svfiprintf_r+0x184>
 8006a68:	9309      	str	r3, [sp, #36]	; 0x24
 8006a6a:	4e30      	ldr	r6, [pc, #192]	; (8006b2c <_svfiprintf_r+0x1f0>)
 8006a6c:	2203      	movs	r2, #3
 8006a6e:	0030      	movs	r0, r6
 8006a70:	7829      	ldrb	r1, [r5, #0]
 8006a72:	f000 f9e5 	bl	8006e40 <memchr>
 8006a76:	2800      	cmp	r0, #0
 8006a78:	d006      	beq.n	8006a88 <_svfiprintf_r+0x14c>
 8006a7a:	2340      	movs	r3, #64	; 0x40
 8006a7c:	1b80      	subs	r0, r0, r6
 8006a7e:	4083      	lsls	r3, r0
 8006a80:	6822      	ldr	r2, [r4, #0]
 8006a82:	3501      	adds	r5, #1
 8006a84:	4313      	orrs	r3, r2
 8006a86:	6023      	str	r3, [r4, #0]
 8006a88:	7829      	ldrb	r1, [r5, #0]
 8006a8a:	2206      	movs	r2, #6
 8006a8c:	4828      	ldr	r0, [pc, #160]	; (8006b30 <_svfiprintf_r+0x1f4>)
 8006a8e:	1c6e      	adds	r6, r5, #1
 8006a90:	7621      	strb	r1, [r4, #24]
 8006a92:	f000 f9d5 	bl	8006e40 <memchr>
 8006a96:	2800      	cmp	r0, #0
 8006a98:	d03c      	beq.n	8006b14 <_svfiprintf_r+0x1d8>
 8006a9a:	4b26      	ldr	r3, [pc, #152]	; (8006b34 <_svfiprintf_r+0x1f8>)
 8006a9c:	2b00      	cmp	r3, #0
 8006a9e:	d125      	bne.n	8006aec <_svfiprintf_r+0x1b0>
 8006aa0:	2207      	movs	r2, #7
 8006aa2:	9b07      	ldr	r3, [sp, #28]
 8006aa4:	3307      	adds	r3, #7
 8006aa6:	4393      	bics	r3, r2
 8006aa8:	3308      	adds	r3, #8
 8006aaa:	9307      	str	r3, [sp, #28]
 8006aac:	6963      	ldr	r3, [r4, #20]
 8006aae:	9a04      	ldr	r2, [sp, #16]
 8006ab0:	189b      	adds	r3, r3, r2
 8006ab2:	6163      	str	r3, [r4, #20]
 8006ab4:	e765      	b.n	8006982 <_svfiprintf_r+0x46>
 8006ab6:	4343      	muls	r3, r0
 8006ab8:	0035      	movs	r5, r6
 8006aba:	2101      	movs	r1, #1
 8006abc:	189b      	adds	r3, r3, r2
 8006abe:	e7a6      	b.n	8006a0e <_svfiprintf_r+0xd2>
 8006ac0:	2301      	movs	r3, #1
 8006ac2:	425b      	negs	r3, r3
 8006ac4:	e7d0      	b.n	8006a68 <_svfiprintf_r+0x12c>
 8006ac6:	2300      	movs	r3, #0
 8006ac8:	200a      	movs	r0, #10
 8006aca:	001a      	movs	r2, r3
 8006acc:	3501      	adds	r5, #1
 8006ace:	6063      	str	r3, [r4, #4]
 8006ad0:	7829      	ldrb	r1, [r5, #0]
 8006ad2:	1c6e      	adds	r6, r5, #1
 8006ad4:	3930      	subs	r1, #48	; 0x30
 8006ad6:	2909      	cmp	r1, #9
 8006ad8:	d903      	bls.n	8006ae2 <_svfiprintf_r+0x1a6>
 8006ada:	2b00      	cmp	r3, #0
 8006adc:	d0c5      	beq.n	8006a6a <_svfiprintf_r+0x12e>
 8006ade:	9209      	str	r2, [sp, #36]	; 0x24
 8006ae0:	e7c3      	b.n	8006a6a <_svfiprintf_r+0x12e>
 8006ae2:	4342      	muls	r2, r0
 8006ae4:	0035      	movs	r5, r6
 8006ae6:	2301      	movs	r3, #1
 8006ae8:	1852      	adds	r2, r2, r1
 8006aea:	e7f1      	b.n	8006ad0 <_svfiprintf_r+0x194>
 8006aec:	ab07      	add	r3, sp, #28
 8006aee:	9300      	str	r3, [sp, #0]
 8006af0:	003a      	movs	r2, r7
 8006af2:	0021      	movs	r1, r4
 8006af4:	4b10      	ldr	r3, [pc, #64]	; (8006b38 <_svfiprintf_r+0x1fc>)
 8006af6:	9803      	ldr	r0, [sp, #12]
 8006af8:	e000      	b.n	8006afc <_svfiprintf_r+0x1c0>
 8006afa:	bf00      	nop
 8006afc:	9004      	str	r0, [sp, #16]
 8006afe:	9b04      	ldr	r3, [sp, #16]
 8006b00:	3301      	adds	r3, #1
 8006b02:	d1d3      	bne.n	8006aac <_svfiprintf_r+0x170>
 8006b04:	89bb      	ldrh	r3, [r7, #12]
 8006b06:	980d      	ldr	r0, [sp, #52]	; 0x34
 8006b08:	065b      	lsls	r3, r3, #25
 8006b0a:	d400      	bmi.n	8006b0e <_svfiprintf_r+0x1d2>
 8006b0c:	e72d      	b.n	800696a <_svfiprintf_r+0x2e>
 8006b0e:	2001      	movs	r0, #1
 8006b10:	4240      	negs	r0, r0
 8006b12:	e72a      	b.n	800696a <_svfiprintf_r+0x2e>
 8006b14:	ab07      	add	r3, sp, #28
 8006b16:	9300      	str	r3, [sp, #0]
 8006b18:	003a      	movs	r2, r7
 8006b1a:	0021      	movs	r1, r4
 8006b1c:	4b06      	ldr	r3, [pc, #24]	; (8006b38 <_svfiprintf_r+0x1fc>)
 8006b1e:	9803      	ldr	r0, [sp, #12]
 8006b20:	f000 f87c 	bl	8006c1c <_printf_i>
 8006b24:	e7ea      	b.n	8006afc <_svfiprintf_r+0x1c0>
 8006b26:	46c0      	nop			; (mov r8, r8)
 8006b28:	08007290 	.word	0x08007290
 8006b2c:	08007296 	.word	0x08007296
 8006b30:	0800729a 	.word	0x0800729a
 8006b34:	00000000 	.word	0x00000000
 8006b38:	08006879 	.word	0x08006879

08006b3c <_printf_common>:
 8006b3c:	b5f7      	push	{r0, r1, r2, r4, r5, r6, r7, lr}
 8006b3e:	0015      	movs	r5, r2
 8006b40:	9301      	str	r3, [sp, #4]
 8006b42:	688a      	ldr	r2, [r1, #8]
 8006b44:	690b      	ldr	r3, [r1, #16]
 8006b46:	000c      	movs	r4, r1
 8006b48:	9000      	str	r0, [sp, #0]
 8006b4a:	4293      	cmp	r3, r2
 8006b4c:	da00      	bge.n	8006b50 <_printf_common+0x14>
 8006b4e:	0013      	movs	r3, r2
 8006b50:	0022      	movs	r2, r4
 8006b52:	602b      	str	r3, [r5, #0]
 8006b54:	3243      	adds	r2, #67	; 0x43
 8006b56:	7812      	ldrb	r2, [r2, #0]
 8006b58:	2a00      	cmp	r2, #0
 8006b5a:	d001      	beq.n	8006b60 <_printf_common+0x24>
 8006b5c:	3301      	adds	r3, #1
 8006b5e:	602b      	str	r3, [r5, #0]
 8006b60:	6823      	ldr	r3, [r4, #0]
 8006b62:	069b      	lsls	r3, r3, #26
 8006b64:	d502      	bpl.n	8006b6c <_printf_common+0x30>
 8006b66:	682b      	ldr	r3, [r5, #0]
 8006b68:	3302      	adds	r3, #2
 8006b6a:	602b      	str	r3, [r5, #0]
 8006b6c:	6822      	ldr	r2, [r4, #0]
 8006b6e:	2306      	movs	r3, #6
 8006b70:	0017      	movs	r7, r2
 8006b72:	401f      	ands	r7, r3
 8006b74:	421a      	tst	r2, r3
 8006b76:	d027      	beq.n	8006bc8 <_printf_common+0x8c>
 8006b78:	0023      	movs	r3, r4
 8006b7a:	3343      	adds	r3, #67	; 0x43
 8006b7c:	781b      	ldrb	r3, [r3, #0]
 8006b7e:	1e5a      	subs	r2, r3, #1
 8006b80:	4193      	sbcs	r3, r2
 8006b82:	6822      	ldr	r2, [r4, #0]
 8006b84:	0692      	lsls	r2, r2, #26
 8006b86:	d430      	bmi.n	8006bea <_printf_common+0xae>
 8006b88:	0022      	movs	r2, r4
 8006b8a:	9901      	ldr	r1, [sp, #4]
 8006b8c:	9800      	ldr	r0, [sp, #0]
 8006b8e:	9e08      	ldr	r6, [sp, #32]
 8006b90:	3243      	adds	r2, #67	; 0x43
 8006b92:	47b0      	blx	r6
 8006b94:	1c43      	adds	r3, r0, #1
 8006b96:	d025      	beq.n	8006be4 <_printf_common+0xa8>
 8006b98:	2306      	movs	r3, #6
 8006b9a:	6820      	ldr	r0, [r4, #0]
 8006b9c:	682a      	ldr	r2, [r5, #0]
 8006b9e:	68e1      	ldr	r1, [r4, #12]
 8006ba0:	2500      	movs	r5, #0
 8006ba2:	4003      	ands	r3, r0
 8006ba4:	2b04      	cmp	r3, #4
 8006ba6:	d103      	bne.n	8006bb0 <_printf_common+0x74>
 8006ba8:	1a8d      	subs	r5, r1, r2
 8006baa:	43eb      	mvns	r3, r5
 8006bac:	17db      	asrs	r3, r3, #31
 8006bae:	401d      	ands	r5, r3
 8006bb0:	68a3      	ldr	r3, [r4, #8]
 8006bb2:	6922      	ldr	r2, [r4, #16]
 8006bb4:	4293      	cmp	r3, r2
 8006bb6:	dd01      	ble.n	8006bbc <_printf_common+0x80>
 8006bb8:	1a9b      	subs	r3, r3, r2
 8006bba:	18ed      	adds	r5, r5, r3
 8006bbc:	2700      	movs	r7, #0
 8006bbe:	42bd      	cmp	r5, r7
 8006bc0:	d120      	bne.n	8006c04 <_printf_common+0xc8>
 8006bc2:	2000      	movs	r0, #0
 8006bc4:	e010      	b.n	8006be8 <_printf_common+0xac>
 8006bc6:	3701      	adds	r7, #1
 8006bc8:	68e3      	ldr	r3, [r4, #12]
 8006bca:	682a      	ldr	r2, [r5, #0]
 8006bcc:	1a9b      	subs	r3, r3, r2
 8006bce:	42bb      	cmp	r3, r7
 8006bd0:	ddd2      	ble.n	8006b78 <_printf_common+0x3c>
 8006bd2:	0022      	movs	r2, r4
 8006bd4:	2301      	movs	r3, #1
 8006bd6:	9901      	ldr	r1, [sp, #4]
 8006bd8:	9800      	ldr	r0, [sp, #0]
 8006bda:	9e08      	ldr	r6, [sp, #32]
 8006bdc:	3219      	adds	r2, #25
 8006bde:	47b0      	blx	r6
 8006be0:	1c43      	adds	r3, r0, #1
 8006be2:	d1f0      	bne.n	8006bc6 <_printf_common+0x8a>
 8006be4:	2001      	movs	r0, #1
 8006be6:	4240      	negs	r0, r0
 8006be8:	bdfe      	pop	{r1, r2, r3, r4, r5, r6, r7, pc}
 8006bea:	2030      	movs	r0, #48	; 0x30
 8006bec:	18e1      	adds	r1, r4, r3
 8006bee:	3143      	adds	r1, #67	; 0x43
 8006bf0:	7008      	strb	r0, [r1, #0]
 8006bf2:	0021      	movs	r1, r4
 8006bf4:	1c5a      	adds	r2, r3, #1
 8006bf6:	3145      	adds	r1, #69	; 0x45
 8006bf8:	7809      	ldrb	r1, [r1, #0]
 8006bfa:	18a2      	adds	r2, r4, r2
 8006bfc:	3243      	adds	r2, #67	; 0x43
 8006bfe:	3302      	adds	r3, #2
 8006c00:	7011      	strb	r1, [r2, #0]
 8006c02:	e7c1      	b.n	8006b88 <_printf_common+0x4c>
 8006c04:	0022      	movs	r2, r4
 8006c06:	2301      	movs	r3, #1
 8006c08:	9901      	ldr	r1, [sp, #4]
 8006c0a:	9800      	ldr	r0, [sp, #0]
 8006c0c:	9e08      	ldr	r6, [sp, #32]
 8006c0e:	321a      	adds	r2, #26
 8006c10:	47b0      	blx	r6
 8006c12:	1c43      	adds	r3, r0, #1
 8006c14:	d0e6      	beq.n	8006be4 <_printf_common+0xa8>
 8006c16:	3701      	adds	r7, #1
 8006c18:	e7d1      	b.n	8006bbe <_printf_common+0x82>
	...

08006c1c <_printf_i>:
 8006c1c:	b5f0      	push	{r4, r5, r6, r7, lr}
 8006c1e:	b08b      	sub	sp, #44	; 0x2c
 8006c20:	9206      	str	r2, [sp, #24]
 8006c22:	000a      	movs	r2, r1
 8006c24:	3243      	adds	r2, #67	; 0x43
 8006c26:	9307      	str	r3, [sp, #28]
 8006c28:	9005      	str	r0, [sp, #20]
 8006c2a:	9204      	str	r2, [sp, #16]
 8006c2c:	7e0a      	ldrb	r2, [r1, #24]
 8006c2e:	000c      	movs	r4, r1
 8006c30:	9b10      	ldr	r3, [sp, #64]	; 0x40
 8006c32:	2a78      	cmp	r2, #120	; 0x78
 8006c34:	d806      	bhi.n	8006c44 <_printf_i+0x28>
 8006c36:	2a62      	cmp	r2, #98	; 0x62
 8006c38:	d808      	bhi.n	8006c4c <_printf_i+0x30>
 8006c3a:	2a00      	cmp	r2, #0
 8006c3c:	d100      	bne.n	8006c40 <_printf_i+0x24>
 8006c3e:	e0c0      	b.n	8006dc2 <_printf_i+0x1a6>
 8006c40:	2a58      	cmp	r2, #88	; 0x58
 8006c42:	d052      	beq.n	8006cea <_printf_i+0xce>
 8006c44:	0026      	movs	r6, r4
 8006c46:	3642      	adds	r6, #66	; 0x42
 8006c48:	7032      	strb	r2, [r6, #0]
 8006c4a:	e022      	b.n	8006c92 <_printf_i+0x76>
 8006c4c:	0010      	movs	r0, r2
 8006c4e:	3863      	subs	r0, #99	; 0x63
 8006c50:	2815      	cmp	r0, #21
 8006c52:	d8f7      	bhi.n	8006c44 <_printf_i+0x28>
 8006c54:	f7f9 fa60 	bl	8000118 <__gnu_thumb1_case_shi>
 8006c58:	001f0016 	.word	0x001f0016
 8006c5c:	fff6fff6 	.word	0xfff6fff6
 8006c60:	fff6fff6 	.word	0xfff6fff6
 8006c64:	fff6001f 	.word	0xfff6001f
 8006c68:	fff6fff6 	.word	0xfff6fff6
 8006c6c:	00a8fff6 	.word	0x00a8fff6
 8006c70:	009a0036 	.word	0x009a0036
 8006c74:	fff6fff6 	.word	0xfff6fff6
 8006c78:	fff600b9 	.word	0xfff600b9
 8006c7c:	fff60036 	.word	0xfff60036
 8006c80:	009efff6 	.word	0x009efff6
 8006c84:	0026      	movs	r6, r4
 8006c86:	681a      	ldr	r2, [r3, #0]
 8006c88:	3642      	adds	r6, #66	; 0x42
 8006c8a:	1d11      	adds	r1, r2, #4
 8006c8c:	6019      	str	r1, [r3, #0]
 8006c8e:	6813      	ldr	r3, [r2, #0]
 8006c90:	7033      	strb	r3, [r6, #0]
 8006c92:	2301      	movs	r3, #1
 8006c94:	e0a7      	b.n	8006de6 <_printf_i+0x1ca>
 8006c96:	6808      	ldr	r0, [r1, #0]
 8006c98:	6819      	ldr	r1, [r3, #0]
 8006c9a:	1d0a      	adds	r2, r1, #4
 8006c9c:	0605      	lsls	r5, r0, #24
 8006c9e:	d50b      	bpl.n	8006cb8 <_printf_i+0x9c>
 8006ca0:	680d      	ldr	r5, [r1, #0]
 8006ca2:	601a      	str	r2, [r3, #0]
 8006ca4:	2d00      	cmp	r5, #0
 8006ca6:	da03      	bge.n	8006cb0 <_printf_i+0x94>
 8006ca8:	232d      	movs	r3, #45	; 0x2d
 8006caa:	9a04      	ldr	r2, [sp, #16]
 8006cac:	426d      	negs	r5, r5
 8006cae:	7013      	strb	r3, [r2, #0]
 8006cb0:	4b61      	ldr	r3, [pc, #388]	; (8006e38 <_printf_i+0x21c>)
 8006cb2:	270a      	movs	r7, #10
 8006cb4:	9303      	str	r3, [sp, #12]
 8006cb6:	e032      	b.n	8006d1e <_printf_i+0x102>
 8006cb8:	680d      	ldr	r5, [r1, #0]
 8006cba:	601a      	str	r2, [r3, #0]
 8006cbc:	0641      	lsls	r1, r0, #25
 8006cbe:	d5f1      	bpl.n	8006ca4 <_printf_i+0x88>
 8006cc0:	b22d      	sxth	r5, r5
 8006cc2:	e7ef      	b.n	8006ca4 <_printf_i+0x88>
 8006cc4:	680d      	ldr	r5, [r1, #0]
 8006cc6:	6819      	ldr	r1, [r3, #0]
 8006cc8:	1d08      	adds	r0, r1, #4
 8006cca:	6018      	str	r0, [r3, #0]
 8006ccc:	062e      	lsls	r6, r5, #24
 8006cce:	d501      	bpl.n	8006cd4 <_printf_i+0xb8>
 8006cd0:	680d      	ldr	r5, [r1, #0]
 8006cd2:	e003      	b.n	8006cdc <_printf_i+0xc0>
 8006cd4:	066d      	lsls	r5, r5, #25
 8006cd6:	d5fb      	bpl.n	8006cd0 <_printf_i+0xb4>
 8006cd8:	680d      	ldr	r5, [r1, #0]
 8006cda:	b2ad      	uxth	r5, r5
 8006cdc:	4b56      	ldr	r3, [pc, #344]	; (8006e38 <_printf_i+0x21c>)
 8006cde:	270a      	movs	r7, #10
 8006ce0:	9303      	str	r3, [sp, #12]
 8006ce2:	2a6f      	cmp	r2, #111	; 0x6f
 8006ce4:	d117      	bne.n	8006d16 <_printf_i+0xfa>
 8006ce6:	2708      	movs	r7, #8
 8006ce8:	e015      	b.n	8006d16 <_printf_i+0xfa>
 8006cea:	3145      	adds	r1, #69	; 0x45
 8006cec:	700a      	strb	r2, [r1, #0]
 8006cee:	4a52      	ldr	r2, [pc, #328]	; (8006e38 <_printf_i+0x21c>)
 8006cf0:	9203      	str	r2, [sp, #12]
 8006cf2:	681a      	ldr	r2, [r3, #0]
 8006cf4:	6821      	ldr	r1, [r4, #0]
 8006cf6:	ca20      	ldmia	r2!, {r5}
 8006cf8:	601a      	str	r2, [r3, #0]
 8006cfa:	0608      	lsls	r0, r1, #24
 8006cfc:	d550      	bpl.n	8006da0 <_printf_i+0x184>
 8006cfe:	07cb      	lsls	r3, r1, #31
 8006d00:	d502      	bpl.n	8006d08 <_printf_i+0xec>
 8006d02:	2320      	movs	r3, #32
 8006d04:	4319      	orrs	r1, r3
 8006d06:	6021      	str	r1, [r4, #0]
 8006d08:	2710      	movs	r7, #16
 8006d0a:	2d00      	cmp	r5, #0
 8006d0c:	d103      	bne.n	8006d16 <_printf_i+0xfa>
 8006d0e:	2320      	movs	r3, #32
 8006d10:	6822      	ldr	r2, [r4, #0]
 8006d12:	439a      	bics	r2, r3
 8006d14:	6022      	str	r2, [r4, #0]
 8006d16:	0023      	movs	r3, r4
 8006d18:	2200      	movs	r2, #0
 8006d1a:	3343      	adds	r3, #67	; 0x43
 8006d1c:	701a      	strb	r2, [r3, #0]
 8006d1e:	6863      	ldr	r3, [r4, #4]
 8006d20:	60a3      	str	r3, [r4, #8]
 8006d22:	2b00      	cmp	r3, #0
 8006d24:	db03      	blt.n	8006d2e <_printf_i+0x112>
 8006d26:	2204      	movs	r2, #4
 8006d28:	6821      	ldr	r1, [r4, #0]
 8006d2a:	4391      	bics	r1, r2
 8006d2c:	6021      	str	r1, [r4, #0]
 8006d2e:	2d00      	cmp	r5, #0
 8006d30:	d102      	bne.n	8006d38 <_printf_i+0x11c>
 8006d32:	9e04      	ldr	r6, [sp, #16]
 8006d34:	2b00      	cmp	r3, #0
 8006d36:	d00c      	beq.n	8006d52 <_printf_i+0x136>
 8006d38:	9e04      	ldr	r6, [sp, #16]
 8006d3a:	0028      	movs	r0, r5
 8006d3c:	0039      	movs	r1, r7
 8006d3e:	f7f9 fa7b 	bl	8000238 <__aeabi_uidivmod>
 8006d42:	9b03      	ldr	r3, [sp, #12]
 8006d44:	3e01      	subs	r6, #1
 8006d46:	5c5b      	ldrb	r3, [r3, r1]
 8006d48:	7033      	strb	r3, [r6, #0]
 8006d4a:	002b      	movs	r3, r5
 8006d4c:	0005      	movs	r5, r0
 8006d4e:	429f      	cmp	r7, r3
 8006d50:	d9f3      	bls.n	8006d3a <_printf_i+0x11e>
 8006d52:	2f08      	cmp	r7, #8
 8006d54:	d109      	bne.n	8006d6a <_printf_i+0x14e>
 8006d56:	6823      	ldr	r3, [r4, #0]
 8006d58:	07db      	lsls	r3, r3, #31
 8006d5a:	d506      	bpl.n	8006d6a <_printf_i+0x14e>
 8006d5c:	6863      	ldr	r3, [r4, #4]
 8006d5e:	6922      	ldr	r2, [r4, #16]
 8006d60:	4293      	cmp	r3, r2
 8006d62:	dc02      	bgt.n	8006d6a <_printf_i+0x14e>
 8006d64:	2330      	movs	r3, #48	; 0x30
 8006d66:	3e01      	subs	r6, #1
 8006d68:	7033      	strb	r3, [r6, #0]
 8006d6a:	9b04      	ldr	r3, [sp, #16]
 8006d6c:	1b9b      	subs	r3, r3, r6
 8006d6e:	6123      	str	r3, [r4, #16]
 8006d70:	9b07      	ldr	r3, [sp, #28]
 8006d72:	0021      	movs	r1, r4
 8006d74:	9300      	str	r3, [sp, #0]
 8006d76:	9805      	ldr	r0, [sp, #20]
 8006d78:	9b06      	ldr	r3, [sp, #24]
 8006d7a:	aa09      	add	r2, sp, #36	; 0x24
 8006d7c:	f7ff fede 	bl	8006b3c <_printf_common>
 8006d80:	1c43      	adds	r3, r0, #1
 8006d82:	d135      	bne.n	8006df0 <_printf_i+0x1d4>
 8006d84:	2001      	movs	r0, #1
 8006d86:	4240      	negs	r0, r0
 8006d88:	b00b      	add	sp, #44	; 0x2c
 8006d8a:	bdf0      	pop	{r4, r5, r6, r7, pc}
 8006d8c:	2220      	movs	r2, #32
 8006d8e:	6809      	ldr	r1, [r1, #0]
 8006d90:	430a      	orrs	r2, r1
 8006d92:	6022      	str	r2, [r4, #0]
 8006d94:	0022      	movs	r2, r4
 8006d96:	2178      	movs	r1, #120	; 0x78
 8006d98:	3245      	adds	r2, #69	; 0x45
 8006d9a:	7011      	strb	r1, [r2, #0]
 8006d9c:	4a27      	ldr	r2, [pc, #156]	; (8006e3c <_printf_i+0x220>)
 8006d9e:	e7a7      	b.n	8006cf0 <_printf_i+0xd4>
 8006da0:	0648      	lsls	r0, r1, #25
 8006da2:	d5ac      	bpl.n	8006cfe <_printf_i+0xe2>
 8006da4:	b2ad      	uxth	r5, r5
 8006da6:	e7aa      	b.n	8006cfe <_printf_i+0xe2>
 8006da8:	681a      	ldr	r2, [r3, #0]
 8006daa:	680d      	ldr	r5, [r1, #0]
 8006dac:	1d10      	adds	r0, r2, #4
 8006dae:	6949      	ldr	r1, [r1, #20]
 8006db0:	6018      	str	r0, [r3, #0]
 8006db2:	6813      	ldr	r3, [r2, #0]
 8006db4:	062e      	lsls	r6, r5, #24
 8006db6:	d501      	bpl.n	8006dbc <_printf_i+0x1a0>
 8006db8:	6019      	str	r1, [r3, #0]
 8006dba:	e002      	b.n	8006dc2 <_printf_i+0x1a6>
 8006dbc:	066d      	lsls	r5, r5, #25
 8006dbe:	d5fb      	bpl.n	8006db8 <_printf_i+0x19c>
 8006dc0:	8019      	strh	r1, [r3, #0]
 8006dc2:	2300      	movs	r3, #0
 8006dc4:	9e04      	ldr	r6, [sp, #16]
 8006dc6:	6123      	str	r3, [r4, #16]
 8006dc8:	e7d2      	b.n	8006d70 <_printf_i+0x154>
 8006dca:	681a      	ldr	r2, [r3, #0]
 8006dcc:	1d11      	adds	r1, r2, #4
 8006dce:	6019      	str	r1, [r3, #0]
 8006dd0:	6816      	ldr	r6, [r2, #0]
 8006dd2:	2100      	movs	r1, #0
 8006dd4:	0030      	movs	r0, r6
 8006dd6:	6862      	ldr	r2, [r4, #4]
 8006dd8:	f000 f832 	bl	8006e40 <memchr>
 8006ddc:	2800      	cmp	r0, #0
 8006dde:	d001      	beq.n	8006de4 <_printf_i+0x1c8>
 8006de0:	1b80      	subs	r0, r0, r6
 8006de2:	6060      	str	r0, [r4, #4]
 8006de4:	6863      	ldr	r3, [r4, #4]
 8006de6:	6123      	str	r3, [r4, #16]
 8006de8:	2300      	movs	r3, #0
 8006dea:	9a04      	ldr	r2, [sp, #16]
 8006dec:	7013      	strb	r3, [r2, #0]
 8006dee:	e7bf      	b.n	8006d70 <_printf_i+0x154>
 8006df0:	6923      	ldr	r3, [r4, #16]
 8006df2:	0032      	movs	r2, r6
 8006df4:	9906      	ldr	r1, [sp, #24]
 8006df6:	9805      	ldr	r0, [sp, #20]
 8006df8:	9d07      	ldr	r5, [sp, #28]
 8006dfa:	47a8      	blx	r5
 8006dfc:	1c43      	adds	r3, r0, #1
 8006dfe:	d0c1      	beq.n	8006d84 <_printf_i+0x168>
 8006e00:	6823      	ldr	r3, [r4, #0]
 8006e02:	079b      	lsls	r3, r3, #30
 8006e04:	d415      	bmi.n	8006e32 <_printf_i+0x216>
 8006e06:	9b09      	ldr	r3, [sp, #36]	; 0x24
 8006e08:	68e0      	ldr	r0, [r4, #12]
 8006e0a:	4298      	cmp	r0, r3
 8006e0c:	dabc      	bge.n	8006d88 <_printf_i+0x16c>
 8006e0e:	0018      	movs	r0, r3
 8006e10:	e7ba      	b.n	8006d88 <_printf_i+0x16c>
 8006e12:	0022      	movs	r2, r4
 8006e14:	2301      	movs	r3, #1
 8006e16:	9906      	ldr	r1, [sp, #24]
 8006e18:	9805      	ldr	r0, [sp, #20]
 8006e1a:	9e07      	ldr	r6, [sp, #28]
 8006e1c:	3219      	adds	r2, #25
 8006e1e:	47b0      	blx	r6
 8006e20:	1c43      	adds	r3, r0, #1
 8006e22:	d0af      	beq.n	8006d84 <_printf_i+0x168>
 8006e24:	3501      	adds	r5, #1
 8006e26:	68e3      	ldr	r3, [r4, #12]
 8006e28:	9a09      	ldr	r2, [sp, #36]	; 0x24
 8006e2a:	1a9b      	subs	r3, r3, r2
 8006e2c:	42ab      	cmp	r3, r5
 8006e2e:	dcf0      	bgt.n	8006e12 <_printf_i+0x1f6>
 8006e30:	e7e9      	b.n	8006e06 <_printf_i+0x1ea>
 8006e32:	2500      	movs	r5, #0
 8006e34:	e7f7      	b.n	8006e26 <_printf_i+0x20a>
 8006e36:	46c0      	nop			; (mov r8, r8)
 8006e38:	080072a1 	.word	0x080072a1
 8006e3c:	080072b2 	.word	0x080072b2

08006e40 <memchr>:
 8006e40:	b2c9      	uxtb	r1, r1
 8006e42:	1882      	adds	r2, r0, r2
 8006e44:	4290      	cmp	r0, r2
 8006e46:	d101      	bne.n	8006e4c <memchr+0xc>
 8006e48:	2000      	movs	r0, #0
 8006e4a:	4770      	bx	lr
 8006e4c:	7803      	ldrb	r3, [r0, #0]
 8006e4e:	428b      	cmp	r3, r1
 8006e50:	d0fb      	beq.n	8006e4a <memchr+0xa>
 8006e52:	3001      	adds	r0, #1
 8006e54:	e7f6      	b.n	8006e44 <memchr+0x4>

08006e56 <memmove>:
 8006e56:	b510      	push	{r4, lr}
 8006e58:	4288      	cmp	r0, r1
 8006e5a:	d902      	bls.n	8006e62 <memmove+0xc>
 8006e5c:	188b      	adds	r3, r1, r2
 8006e5e:	4298      	cmp	r0, r3
 8006e60:	d303      	bcc.n	8006e6a <memmove+0x14>
 8006e62:	2300      	movs	r3, #0
 8006e64:	e007      	b.n	8006e76 <memmove+0x20>
 8006e66:	5c8b      	ldrb	r3, [r1, r2]
 8006e68:	5483      	strb	r3, [r0, r2]
 8006e6a:	3a01      	subs	r2, #1
 8006e6c:	d2fb      	bcs.n	8006e66 <memmove+0x10>
 8006e6e:	bd10      	pop	{r4, pc}
 8006e70:	5ccc      	ldrb	r4, [r1, r3]
 8006e72:	54c4      	strb	r4, [r0, r3]
 8006e74:	3301      	adds	r3, #1
 8006e76:	429a      	cmp	r2, r3
 8006e78:	d1fa      	bne.n	8006e70 <memmove+0x1a>
 8006e7a:	e7f8      	b.n	8006e6e <memmove+0x18>

08006e7c <_free_r>:
 8006e7c:	b570      	push	{r4, r5, r6, lr}
 8006e7e:	0005      	movs	r5, r0
 8006e80:	2900      	cmp	r1, #0
 8006e82:	d010      	beq.n	8006ea6 <_free_r+0x2a>
 8006e84:	1f0c      	subs	r4, r1, #4
 8006e86:	6823      	ldr	r3, [r4, #0]
 8006e88:	2b00      	cmp	r3, #0
 8006e8a:	da00      	bge.n	8006e8e <_free_r+0x12>
 8006e8c:	18e4      	adds	r4, r4, r3
 8006e8e:	0028      	movs	r0, r5
 8006e90:	f000 f8d4 	bl	800703c <__malloc_lock>
 8006e94:	4a1d      	ldr	r2, [pc, #116]	; (8006f0c <_free_r+0x90>)
 8006e96:	6813      	ldr	r3, [r2, #0]
 8006e98:	2b00      	cmp	r3, #0
 8006e9a:	d105      	bne.n	8006ea8 <_free_r+0x2c>
 8006e9c:	6063      	str	r3, [r4, #4]
 8006e9e:	6014      	str	r4, [r2, #0]
 8006ea0:	0028      	movs	r0, r5
 8006ea2:	f000 f8d3 	bl	800704c <__malloc_unlock>
 8006ea6:	bd70      	pop	{r4, r5, r6, pc}
 8006ea8:	42a3      	cmp	r3, r4
 8006eaa:	d908      	bls.n	8006ebe <_free_r+0x42>
 8006eac:	6821      	ldr	r1, [r4, #0]
 8006eae:	1860      	adds	r0, r4, r1
 8006eb0:	4283      	cmp	r3, r0
 8006eb2:	d1f3      	bne.n	8006e9c <_free_r+0x20>
 8006eb4:	6818      	ldr	r0, [r3, #0]
 8006eb6:	685b      	ldr	r3, [r3, #4]
 8006eb8:	1841      	adds	r1, r0, r1
 8006eba:	6021      	str	r1, [r4, #0]
 8006ebc:	e7ee      	b.n	8006e9c <_free_r+0x20>
 8006ebe:	001a      	movs	r2, r3
 8006ec0:	685b      	ldr	r3, [r3, #4]
 8006ec2:	2b00      	cmp	r3, #0
 8006ec4:	d001      	beq.n	8006eca <_free_r+0x4e>
 8006ec6:	42a3      	cmp	r3, r4
 8006ec8:	d9f9      	bls.n	8006ebe <_free_r+0x42>
 8006eca:	6811      	ldr	r1, [r2, #0]
 8006ecc:	1850      	adds	r0, r2, r1
 8006ece:	42a0      	cmp	r0, r4
 8006ed0:	d10b      	bne.n	8006eea <_free_r+0x6e>
 8006ed2:	6820      	ldr	r0, [r4, #0]
 8006ed4:	1809      	adds	r1, r1, r0
 8006ed6:	1850      	adds	r0, r2, r1
 8006ed8:	6011      	str	r1, [r2, #0]
 8006eda:	4283      	cmp	r3, r0
 8006edc:	d1e0      	bne.n	8006ea0 <_free_r+0x24>
 8006ede:	6818      	ldr	r0, [r3, #0]
 8006ee0:	685b      	ldr	r3, [r3, #4]
 8006ee2:	1841      	adds	r1, r0, r1
 8006ee4:	6011      	str	r1, [r2, #0]
 8006ee6:	6053      	str	r3, [r2, #4]
 8006ee8:	e7da      	b.n	8006ea0 <_free_r+0x24>
 8006eea:	42a0      	cmp	r0, r4
 8006eec:	d902      	bls.n	8006ef4 <_free_r+0x78>
 8006eee:	230c      	movs	r3, #12
 8006ef0:	602b      	str	r3, [r5, #0]
 8006ef2:	e7d5      	b.n	8006ea0 <_free_r+0x24>
 8006ef4:	6821      	ldr	r1, [r4, #0]
 8006ef6:	1860      	adds	r0, r4, r1
 8006ef8:	4283      	cmp	r3, r0
 8006efa:	d103      	bne.n	8006f04 <_free_r+0x88>
 8006efc:	6818      	ldr	r0, [r3, #0]
 8006efe:	685b      	ldr	r3, [r3, #4]
 8006f00:	1841      	adds	r1, r0, r1
 8006f02:	6021      	str	r1, [r4, #0]
 8006f04:	6063      	str	r3, [r4, #4]
 8006f06:	6054      	str	r4, [r2, #4]
 8006f08:	e7ca      	b.n	8006ea0 <_free_r+0x24>
 8006f0a:	46c0      	nop			; (mov r8, r8)
 8006f0c:	20000260 	.word	0x20000260

08006f10 <_malloc_r>:
 8006f10:	b5f8      	push	{r3, r4, r5, r6, r7, lr}
 8006f12:	2303      	movs	r3, #3
 8006f14:	1ccd      	adds	r5, r1, #3
 8006f16:	439d      	bics	r5, r3
 8006f18:	3508      	adds	r5, #8
 8006f1a:	0006      	movs	r6, r0
 8006f1c:	2d0c      	cmp	r5, #12
 8006f1e:	d21f      	bcs.n	8006f60 <_malloc_r+0x50>
 8006f20:	250c      	movs	r5, #12
 8006f22:	42a9      	cmp	r1, r5
 8006f24:	d81e      	bhi.n	8006f64 <_malloc_r+0x54>
 8006f26:	0030      	movs	r0, r6
 8006f28:	f000 f888 	bl	800703c <__malloc_lock>
 8006f2c:	4925      	ldr	r1, [pc, #148]	; (8006fc4 <_malloc_r+0xb4>)
 8006f2e:	680a      	ldr	r2, [r1, #0]
 8006f30:	0014      	movs	r4, r2
 8006f32:	2c00      	cmp	r4, #0
 8006f34:	d11a      	bne.n	8006f6c <_malloc_r+0x5c>
 8006f36:	4f24      	ldr	r7, [pc, #144]	; (8006fc8 <_malloc_r+0xb8>)
 8006f38:	683b      	ldr	r3, [r7, #0]
 8006f3a:	2b00      	cmp	r3, #0
 8006f3c:	d104      	bne.n	8006f48 <_malloc_r+0x38>
 8006f3e:	0021      	movs	r1, r4
 8006f40:	0030      	movs	r0, r6
 8006f42:	f000 f869 	bl	8007018 <_sbrk_r>
 8006f46:	6038      	str	r0, [r7, #0]
 8006f48:	0029      	movs	r1, r5
 8006f4a:	0030      	movs	r0, r6
 8006f4c:	f000 f864 	bl	8007018 <_sbrk_r>
 8006f50:	1c43      	adds	r3, r0, #1
 8006f52:	d12b      	bne.n	8006fac <_malloc_r+0x9c>
 8006f54:	230c      	movs	r3, #12
 8006f56:	0030      	movs	r0, r6
 8006f58:	6033      	str	r3, [r6, #0]
 8006f5a:	f000 f877 	bl	800704c <__malloc_unlock>
 8006f5e:	e003      	b.n	8006f68 <_malloc_r+0x58>
 8006f60:	2d00      	cmp	r5, #0
 8006f62:	dade      	bge.n	8006f22 <_malloc_r+0x12>
 8006f64:	230c      	movs	r3, #12
 8006f66:	6033      	str	r3, [r6, #0]
 8006f68:	2000      	movs	r0, #0
 8006f6a:	bdf8      	pop	{r3, r4, r5, r6, r7, pc}
 8006f6c:	6823      	ldr	r3, [r4, #0]
 8006f6e:	1b5b      	subs	r3, r3, r5
 8006f70:	d419      	bmi.n	8006fa6 <_malloc_r+0x96>
 8006f72:	2b0b      	cmp	r3, #11
 8006f74:	d903      	bls.n	8006f7e <_malloc_r+0x6e>
 8006f76:	6023      	str	r3, [r4, #0]
 8006f78:	18e4      	adds	r4, r4, r3
 8006f7a:	6025      	str	r5, [r4, #0]
 8006f7c:	e003      	b.n	8006f86 <_malloc_r+0x76>
 8006f7e:	6863      	ldr	r3, [r4, #4]
 8006f80:	42a2      	cmp	r2, r4
 8006f82:	d10e      	bne.n	8006fa2 <_malloc_r+0x92>
 8006f84:	600b      	str	r3, [r1, #0]
 8006f86:	0030      	movs	r0, r6
 8006f88:	f000 f860 	bl	800704c <__malloc_unlock>
 8006f8c:	0020      	movs	r0, r4
 8006f8e:	2207      	movs	r2, #7
 8006f90:	300b      	adds	r0, #11
 8006f92:	1d23      	adds	r3, r4, #4
 8006f94:	4390      	bics	r0, r2
 8006f96:	1ac2      	subs	r2, r0, r3
 8006f98:	4298      	cmp	r0, r3
 8006f9a:	d0e6      	beq.n	8006f6a <_malloc_r+0x5a>
 8006f9c:	1a1b      	subs	r3, r3, r0
 8006f9e:	50a3      	str	r3, [r4, r2]
 8006fa0:	e7e3      	b.n	8006f6a <_malloc_r+0x5a>
 8006fa2:	6053      	str	r3, [r2, #4]
 8006fa4:	e7ef      	b.n	8006f86 <_malloc_r+0x76>
 8006fa6:	0022      	movs	r2, r4
 8006fa8:	6864      	ldr	r4, [r4, #4]
 8006faa:	e7c2      	b.n	8006f32 <_malloc_r+0x22>
 8006fac:	2303      	movs	r3, #3
 8006fae:	1cc4      	adds	r4, r0, #3
 8006fb0:	439c      	bics	r4, r3
 8006fb2:	42a0      	cmp	r0, r4
 8006fb4:	d0e1      	beq.n	8006f7a <_malloc_r+0x6a>
 8006fb6:	1a21      	subs	r1, r4, r0
 8006fb8:	0030      	movs	r0, r6
 8006fba:	f000 f82d 	bl	8007018 <_sbrk_r>
 8006fbe:	1c43      	adds	r3, r0, #1
 8006fc0:	d1db      	bne.n	8006f7a <_malloc_r+0x6a>
 8006fc2:	e7c7      	b.n	8006f54 <_malloc_r+0x44>
 8006fc4:	20000260 	.word	0x20000260
 8006fc8:	20000264 	.word	0x20000264

08006fcc <_realloc_r>:
 8006fcc:	b5f8      	push	{r3, r4, r5, r6, r7, lr}
 8006fce:	0007      	movs	r7, r0
 8006fd0:	000d      	movs	r5, r1
 8006fd2:	0016      	movs	r6, r2
 8006fd4:	2900      	cmp	r1, #0
 8006fd6:	d105      	bne.n	8006fe4 <_realloc_r+0x18>
 8006fd8:	0011      	movs	r1, r2
 8006fda:	f7ff ff99 	bl	8006f10 <_malloc_r>
 8006fde:	0004      	movs	r4, r0
 8006fe0:	0020      	movs	r0, r4
 8006fe2:	bdf8      	pop	{r3, r4, r5, r6, r7, pc}
 8006fe4:	2a00      	cmp	r2, #0
 8006fe6:	d103      	bne.n	8006ff0 <_realloc_r+0x24>
 8006fe8:	f7ff ff48 	bl	8006e7c <_free_r>
 8006fec:	0034      	movs	r4, r6
 8006fee:	e7f7      	b.n	8006fe0 <_realloc_r+0x14>
 8006ff0:	f000 f834 	bl	800705c <_malloc_usable_size_r>
 8006ff4:	002c      	movs	r4, r5
 8006ff6:	42b0      	cmp	r0, r6
 8006ff8:	d2f2      	bcs.n	8006fe0 <_realloc_r+0x14>
 8006ffa:	0031      	movs	r1, r6
 8006ffc:	0038      	movs	r0, r7
 8006ffe:	f7ff ff87 	bl	8006f10 <_malloc_r>
 8007002:	1e04      	subs	r4, r0, #0
 8007004:	d0ec      	beq.n	8006fe0 <_realloc_r+0x14>
 8007006:	0029      	movs	r1, r5
 8007008:	0032      	movs	r2, r6
 800700a:	f7ff fbed 	bl	80067e8 <memcpy>
 800700e:	0029      	movs	r1, r5
 8007010:	0038      	movs	r0, r7
 8007012:	f7ff ff33 	bl	8006e7c <_free_r>
 8007016:	e7e3      	b.n	8006fe0 <_realloc_r+0x14>

08007018 <_sbrk_r>:
 8007018:	2300      	movs	r3, #0
 800701a:	b570      	push	{r4, r5, r6, lr}
 800701c:	4d06      	ldr	r5, [pc, #24]	; (8007038 <_sbrk_r+0x20>)
 800701e:	0004      	movs	r4, r0
 8007020:	0008      	movs	r0, r1
 8007022:	602b      	str	r3, [r5, #0]
 8007024:	f7fb fdb0 	bl	8002b88 <_sbrk>
 8007028:	1c43      	adds	r3, r0, #1
 800702a:	d103      	bne.n	8007034 <_sbrk_r+0x1c>
 800702c:	682b      	ldr	r3, [r5, #0]
 800702e:	2b00      	cmp	r3, #0
 8007030:	d000      	beq.n	8007034 <_sbrk_r+0x1c>
 8007032:	6023      	str	r3, [r4, #0]
 8007034:	bd70      	pop	{r4, r5, r6, pc}
 8007036:	46c0      	nop			; (mov r8, r8)
 8007038:	200004c8 	.word	0x200004c8

0800703c <__malloc_lock>:
 800703c:	b510      	push	{r4, lr}
 800703e:	4802      	ldr	r0, [pc, #8]	; (8007048 <__malloc_lock+0xc>)
 8007040:	f000 f814 	bl	800706c <__retarget_lock_acquire_recursive>
 8007044:	bd10      	pop	{r4, pc}
 8007046:	46c0      	nop			; (mov r8, r8)
 8007048:	200004d0 	.word	0x200004d0

0800704c <__malloc_unlock>:
 800704c:	b510      	push	{r4, lr}
 800704e:	4802      	ldr	r0, [pc, #8]	; (8007058 <__malloc_unlock+0xc>)
 8007050:	f000 f80d 	bl	800706e <__retarget_lock_release_recursive>
 8007054:	bd10      	pop	{r4, pc}
 8007056:	46c0      	nop			; (mov r8, r8)
 8007058:	200004d0 	.word	0x200004d0

0800705c <_malloc_usable_size_r>:
 800705c:	1f0b      	subs	r3, r1, #4
 800705e:	681b      	ldr	r3, [r3, #0]
 8007060:	1f18      	subs	r0, r3, #4
 8007062:	2b00      	cmp	r3, #0
 8007064:	da01      	bge.n	800706a <_malloc_usable_size_r+0xe>
 8007066:	580b      	ldr	r3, [r1, r0]
 8007068:	18c0      	adds	r0, r0, r3
 800706a:	4770      	bx	lr

0800706c <__retarget_lock_acquire_recursive>:
 800706c:	4770      	bx	lr

0800706e <__retarget_lock_release_recursive>:
 800706e:	4770      	bx	lr

08007070 <_init>:
 8007070:	b5f8      	push	{r3, r4, r5, r6, r7, lr}
 8007072:	46c0      	nop			; (mov r8, r8)
 8007074:	bcf8      	pop	{r3, r4, r5, r6, r7}
 8007076:	bc08      	pop	{r3}
 8007078:	469e      	mov	lr, r3
 800707a:	4770      	bx	lr

0800707c <_fini>:
 800707c:	b5f8      	push	{r3, r4, r5, r6, r7, lr}
 800707e:	46c0      	nop			; (mov r8, r8)
 8007080:	bcf8      	pop	{r3, r4, r5, r6, r7}
 8007082:	bc08      	pop	{r3}
 8007084:	469e      	mov	lr, r3
 8007086:	4770      	bx	lr
